 RedRum

 Timestamp is 5cd6b1d5 (Sat May 11 12:28:21 2019)

 Preferred load address is 10000000

 Start         Length     Name                   Class
 0001:00000000 0001dbceH .text$di                CODE
 0001:0001dbd0 00086266H .text$mn                CODE
 0001:000a3e40 0000fd10H .text$x                 CODE
 0001:000b3b50 00001a96H .text$yd                CODE
 0002:00000000 000002a4H .idata$5                DATA
 0002:000002a4 00000004H .CRT$XCA                DATA
 0002:000002a8 00000004H .CRT$XCL                DATA
 0002:000002ac 00000244H .CRT$XCU                DATA
 0002:000004f0 00000004H .CRT$XCZ                DATA
 0002:000004f4 00000004H .CRT$XIA                DATA
 0002:000004f8 00000004H .CRT$XIAA               DATA
 0002:000004fc 00000004H .CRT$XIC                DATA
 0002:00000500 00000004H .CRT$XIZ                DATA
 0002:00000510 00014a10H .rdata                  DATA
 0002:00014f20 00000090H .rdata$debug            DATA
 0002:00014fb0 000014bcH .rdata$r                DATA
 0002:00016470 000008f4H .rdata$sxdata           DATA
 0002:00016d64 00000004H .rtc$IAA                DATA
 0002:00016d68 00000004H .rtc$IZZ                DATA
 0002:00016d6c 00000004H .rtc$TAA                DATA
 0002:00016d70 00000004H .rtc$TZZ                DATA
 0002:00016d78 0000ec94H .xdata$x                DATA
 0002:00025a10 0000005cH .edata                  DATA
 0002:00025a6c 0000003cH .idata$2                DATA
 0002:00025aa8 00000014H .idata$3                DATA
 0002:00025abc 000002a4H .idata$4                DATA
 0002:00025d60 000017a0H .idata$6                DATA
 0003:00000000 00009e90H .data                   DATA
 0003:00009e90 000013b3H .data$r                 DATA
 0003:0000b250 00010854H .bss                    DATA
 0004:00000000 00000058H .rsrc$01                DATA
 0004:00000060 00000180H .rsrc$02                DATA

  Address         Publics by Value              Rva+Base       Lib:Object

 0000:00000000       ___guard_fids_count        00000000     <absolute>
 0000:00000000       __except_list              00000000     <absolute>
 0000:00000000       ___guard_flags             00000000     <absolute>
 0000:00000000       ___guard_fids_table        00000000     <absolute>
 0000:0000023d       ___safe_se_handler_count   0000023d     <absolute>
 0000:00009876       __ldused                   00009876     <absolute>
 0000:00009876       __fltused                  00009876     <absolute>
 0000:00000000       ___ImageBase               10000000     <linker-defined>
 0001:0001dbd0       ??3@YAXPAX0@Z              1001ebd0 f i Base.obj
 0001:0001dbd0       ?onStart@AIModule@BWAPI@@UAEXXZ 1001ebd0 f i BWAPI:AIModule.obj
 0001:0001dbd0       ??1?$GenericValue@U?$UTF8@D@rapidjson@@V?$MemoryPoolAllocator@VCrtAllocator@rapidjson@@@2@@rapidjson@@QAE@XZ 1001ebd0 f i JSONTools.obj
 0001:0001dbd0       ?onFrame@AIModule@BWAPI@@UAEXXZ 1001ebd0 f i BWAPI:AIModule.obj
 0001:0001dbe0       ?compare@?$char_traits@D@std@@SAHPBD0I@Z 1001ebe0 f i Base.obj
 0001:0001dc40       ?copy@?$char_traits@D@std@@SAPADPADPBDI@Z 1001ec40 f i Base.obj
 0001:0001dc60       ?move@?$char_traits@D@std@@SAPADPADPBDI@Z 1001ec60 f i Base.obj
 0001:0001dc80       ??_Gerror_category@std@@UAEPAXI@Z 1001ec80 f i Base.obj
 0001:0001dc80       ??_E_System_error_category@std@@UAEPAXI@Z 1001ec80 f i * CIL library *:* CIL module *
 0001:0001dc80       ??_G_Generic_error_category@std@@UAEPAXI@Z 1001ec80 f i Base.obj
 0001:0001dc80       ??_G_System_error_category@std@@UAEPAXI@Z 1001ec80 f i Base.obj
 0001:0001dc80       ??_E_Generic_error_category@std@@UAEPAXI@Z 1001ec80 f i * CIL library *:* CIL module *
 0001:0001dc80       ??_G_Iostream_error_category@std@@UAEPAXI@Z 1001ec80 f i Base.obj
 0001:0001dc80       ??_Eerror_category@std@@UAEPAXI@Z 1001ec80 f i * CIL library *:* CIL module *
 0001:0001dc80       ??_E_Iostream_error_category@std@@UAEPAXI@Z 1001ec80 f i * CIL library *:* CIL module *
 0001:0001dcb0       ?default_error_condition@error_category@std@@UBE?AVerror_condition@2@H@Z 1001ecb0 f i Base.obj
 0001:0001dcd0       ?equivalent@error_category@std@@UBE_NHABVerror_condition@2@@Z 1001ecd0 f i Base.obj
 0001:0001dd10       ?equivalent@error_category@std@@UBE_NABVerror_code@2@H@Z 1001ed10 f i Base.obj
 0001:0001dd30       ?name@_Generic_error_category@std@@UBEPBDXZ 1001ed30 f i Base.obj
 0001:0001dd40       ?message@_Generic_error_category@std@@UBE?AV?$basic_string@DU?$char_traits@D@std@@V?$allocator@D@2@@2@H@Z 1001ed40 f i Base.obj
 0001:0001ddc0       ?name@_Iostream_error_category@std@@UBEPBDXZ 1001edc0 f i Base.obj
 0001:0001ddd0       ?message@_Iostream_error_category@std@@UBE?AV?$basic_string@DU?$char_traits@D@std@@V?$allocator@D@2@@2@H@Z 1001edd0 f i Base.obj
 0001:0001de20       ?name@_System_error_category@std@@UBEPBDXZ 1001ee20 f i Base.obj
 0001:0001de30       ?message@_System_error_category@std@@UBE?AV?$basic_string@DU?$char_traits@D@std@@V?$allocator@D@2@@2@H@Z 1001ee30 f i Base.obj
 0001:0001deb0       ?default_error_condition@_System_error_category@std@@UBE?AVerror_condition@2@H@Z 1001eeb0 f i Base.obj
 0001:0001def0       ??1?$UnaryFilter@PAVUnitInterface@BWAPI@@V?$function@$$A6A_NPAVUnitInterface@BWAPI@@@Z@std@@@BWAPI@@QAE@XZ 1001eef0 f i Base.obj
 0001:0001df30       ??1?$SetContainer@VWeaponType@BWAPI@@U?$hash@H@std@@@BWAPI@@QAE@XZ 1001ef30 f i BWAPI:WeaponType.obj
 0001:0001df30       ??1?$SetContainer@VUpgradeType@BWAPI@@U?$hash@H@std@@@BWAPI@@QAE@XZ 1001ef30 f i BWAPI:UnitType.obj
 0001:0001df30       ??1?$SetContainer@VTechType@BWAPI@@U?$hash@H@std@@@BWAPI@@QAE@XZ 1001ef30 f i BWAPI:UnitType.obj
 0001:0001df30       ??1Unitset@BWAPI@@QAE@XZ   1001ef30 f i Base.obj
 0001:0001df30       ??1?$SetContainer@VUnitType@BWAPI@@U?$hash@H@std@@@BWAPI@@QAE@XZ 1001ef30 f i BWAPI:UnitType.obj
 0001:0001df40       ?isStartingBase@Base@UAlbertaBot@@ABE_NXZ 1001ef40 f   Base.obj
 0001:0001dfe0       ??0Base@UAlbertaBot@@QAE@V?$Point@H$0CA@@BWAPI@@VUnitset@3@@Z 1001efe0 f   Base.obj
 0001:0001e3f0       ??1GridDistances@UAlbertaBot@@QAE@XZ 1001f3f0 f i Base.obj
 0001:0001e450       ??1GridWalk@UAlbertaBot@@QAE@XZ 1001f450 f i GridInset.obj
 0001:0001e450       ??1GridTileRoom@UAlbertaBot@@QAE@XZ 1001f450 f i The.obj
 0001:0001e450       ??1GridInset@UAlbertaBot@@QAE@XZ 1001f450 f i The.obj
 0001:0001e450       ??1Grid@UAlbertaBot@@QAE@XZ 1001f450 f i Base.obj
 0001:0001e490       ?findGeysers@Base@UAlbertaBot@@QAEXXZ 1001f490 f   Base.obj
 0001:0001e5c0       ?setInferredEnemyBase@Base@UAlbertaBot@@QAEXXZ 1001f5c0 f   Base.obj
 0001:0001e600       ?getMineralOffset@Base@UAlbertaBot@@QBE?AV?$Point@H$00@BWAPI@@XZ 1001f600 f   Base.obj
 0001:0001e6b0       ?getPylon@Base@UAlbertaBot@@QBEPAVUnitInterface@BWAPI@@XZ 1001f6b0 f   Base.obj
 0001:0001e790       ?isExplored@Base@UAlbertaBot@@QBE_NXZ 1001f790 f   Base.obj
 0001:0001e820       ?isVisible@Base@UAlbertaBot@@QBE_NXZ 1001f820 f   Base.obj
 0001:0001e8b0       ?clearBlocker@Base@UAlbertaBot@@QAEXPAVUnitInterface@BWAPI@@@Z 1001f8b0 f   Base.obj
 0001:0001e900       ?drawBaseInfo@Base@UAlbertaBot@@QBEXXZ 1001f900 f   Base.obj
 0001:0001ebf0       ??0?$basic_string@DU?$char_traits@D@std@@V?$allocator@D@2@@std@@QAE@PBD@Z 1001fbf0 f i Base.obj
 0001:0001ec50       ??1?$pair@V?$basic_string@DU?$char_traits@D@std@@V?$allocator@D@2@@std@@N@std@@QAE@XZ 1001fc50 f i OpponentModel.obj
 0001:0001ec50       ??1?$basic_string@DU?$char_traits@D@std@@V?$allocator@D@2@@std@@QAE@XZ 1001fc50 f i Base.obj
 0001:0001ec80       ??4?$basic_string@DU?$char_traits@D@std@@V?$allocator@D@2@@std@@QAEAAV01@PBD@Z 1001fc80 f i Base.obj
 0001:0001ecc0       ?c_str@?$basic_string@DU?$char_traits@D@std@@V?$allocator@D@2@@std@@QBEPBDXZ 1001fcc0 f i Base.obj
 0001:0001ecd0       ?find@?$basic_string@DU?$char_traits@D@std@@V?$allocator@D@2@@std@@QBEIPBDI@Z 1001fcd0 f i Base.obj
 0001:0001ed10       ?getName@?$Type@VUnitType@BWAPI@@$0OJ@@BWAPI@@QBEABV?$basic_string@DU?$char_traits@D@std@@V?$allocator@D@2@@std@@XZ 1001fd10 f i Base.obj
 0001:0001ed30       ??8?$CompareFilter@PAVUnitInterface@BWAPI@@VUnitType@2@P6A?AV32@PAV12@@Z@BWAPI@@QBE?AV?$UnaryFilter@PAVUnitInterface@BWAPI@@V?$function@$$A6A_NPAVUnitInterface@BWAPI@@@Z@std@@@1@ABVUnitType@1@@Z 1001fd30 f i Base.obj
 0001:0001ed90       ??1?$_Hash@V?$_Uset_traits@VUpgradeType@BWAPI@@V?$_Uhash_compare@VUpgradeType@BWAPI@@U?$hash@H@std@@U?$equal_to@VUpgradeType@BWAPI@@@4@@std@@V?$allocator@VUpgradeType@BWAPI@@@4@$0A@@std@@@std@@QAE@XZ 1001fd90 f i BWAPI:UnitType.obj
 0001:0001ed90       ??1?$_Hash@V?$_Uset_traits@PAVUnitInterface@BWAPI@@V?$_Uhash_compare@PAVUnitInterface@BWAPI@@U?$hash@PAX@std@@U?$equal_to@PAVUnitInterface@BWAPI@@@4@@std@@V?$allocator@PAVUnitInterface@BWAPI@@@4@$0A@@std@@@std@@QAE@XZ 1001fd90 f i Base.obj
 0001:0001ed90       ??1?$_Hash@V?$_Uset_traits@VTechType@BWAPI@@V?$_Uhash_compare@VTechType@BWAPI@@U?$hash@H@std@@U?$equal_to@VTechType@BWAPI@@@4@@std@@V?$allocator@VTechType@BWAPI@@@4@$0A@@std@@@std@@QAE@XZ 1001fd90 f i BWAPI:UnitType.obj
 0001:0001ed90       ??1?$_Hash@V?$_Uset_traits@VWeaponType@BWAPI@@V?$_Uhash_compare@VWeaponType@BWAPI@@U?$hash@H@std@@U?$equal_to@VWeaponType@BWAPI@@@4@@std@@V?$allocator@VWeaponType@BWAPI@@@4@$0A@@std@@@std@@QAE@XZ 1001fd90 f i BWAPI:WeaponType.obj
 0001:0001ed90       ??1?$_Hash@V?$_Uset_traits@VUnitType@BWAPI@@V?$_Uhash_compare@VUnitType@BWAPI@@U?$hash@H@std@@U?$equal_to@VUnitType@BWAPI@@@4@@std@@V?$allocator@VUnitType@BWAPI@@@4@$0A@@std@@@std@@QAE@XZ 1001fd90 f i BWAPI:UnitType.obj
 0001:0001edf0       ??1?$vector@V?$vector@FV?$allocator@F@std@@@std@@V?$allocator@V?$vector@FV?$allocator@F@std@@@std@@@2@@std@@QAE@XZ 1001fdf0 f i Base.obj
 0001:0001edf0       ?_Tidy@?$vector@V?$vector@FV?$allocator@F@std@@@std@@V?$allocator@V?$vector@FV?$allocator@F@std@@@std@@@2@@std@@IAEXXZ 1001fdf0 f i Base.obj
 0001:0001edf0       ?_Tidy@?$vector@V?$vector@GV?$allocator@G@std@@@std@@V?$allocator@V?$vector@GV?$allocator@G@std@@@std@@@2@@std@@IAEXXZ 1001fdf0 f i MapPartitions.obj
 0001:0001edf0       ??1?$vector@V?$vector@GV?$allocator@G@std@@@std@@V?$allocator@V?$vector@GV?$allocator@G@std@@@std@@@2@@std@@QAE@XZ 1001fdf0 f i MapPartitions.obj
 0001:0001ee30       ??1?$vector@VTimer@BOSS@@V?$allocator@VTimer@BOSS@@@std@@@std@@QAE@XZ 1001fe30 f i GameCommander.obj
 0001:0001ee30       ??1?$priority_queue@PAVUnitInterface@BWAPI@@V?$vector@PAVUnitInterface@BWAPI@@V?$allocator@PAVUnitInterface@BWAPI@@@std@@@std@@V<lambda_b38aadced49978d3b08af6a022435c25>@@@std@@QAE@XZ 1001fe30 f i CombatCommander.obj
 0001:0001ee30       ??1?$vector@VActionType@BOSS@@V?$allocator@VActionType@BOSS@@@std@@@std@@QAE@XZ 1001fe30 f i BOSSManager.obj
 0001:0001ee30       ??1?$vector@V?$_List_unchecked_const_iterator@V?$_List_val@U?$_List_simple_types@VTechType@BWAPI@@@std@@@std@@U_Iterator_base0@2@@std@@U?$_Wrap_alloc@V?$allocator@V?$_List_unchecked_const_iterator@V?$_List_val@U?$_List_simple_types@VTechType@BWAPI@@@std@@@std@@U_Iterator_base0@2@@std@@@std@@@2@@std@@QAE@XZ 1001fe30 f i BWAPI:UnitType.obj
 0001:0001ee30       ??1?$vector@VActionPerformed@BOSS@@V?$allocator@VActionPerformed@BOSS@@@std@@@std@@QAE@XZ 1001fe30 f i BOSSManager.obj
 0001:0001ee30       ??1?$vector@PAVGameRecord@UAlbertaBot@@V?$allocator@PAVGameRecord@UAlbertaBot@@@std@@@std@@QAE@XZ 1001fe30 f i OpponentModel.obj
 0001:0001ee30       ??1?$vector@V?$_List_unchecked_const_iterator@V?$_List_val@U?$_List_simple_types@VUnitSizeType@BWAPI@@@std@@@std@@U_Iterator_base0@2@@std@@U?$_Wrap_alloc@V?$allocator@V?$_List_unchecked_const_iterator@V?$_List_val@U?$_List_simple_types@VUnitSizeType@BWAPI@@@std@@@std@@U_Iterator_base0@2@@std@@@std@@@2@@std@@QAE@XZ 1001fe30 f i BWAPI:UnitSizeType.obj
 0001:0001ee30       ??1?$vector@IV?$allocator@I@std@@@std@@QAE@XZ 1001fe30 f i BOSSManager.obj
 0001:0001ee30       ??1?$vector@V?$reference_wrapper@VBuilding@UAlbertaBot@@@std@@V?$allocator@V?$reference_wrapper@VBuilding@UAlbertaBot@@@std@@@2@@std@@QAE@XZ 1001fe30 f i BuildingManager.obj
 0001:0001ee30       ??1?$vector@V?$Point@H$07@BWAPI@@V?$allocator@V?$Point@H$07@BWAPI@@@std@@@std@@QAE@XZ 1001fe30 f i GridInset.obj
 0001:0001ee30       ??1?$vector@V?$_List_unchecked_const_iterator@V?$_List_val@U?$_List_simple_types@VUnitCommandType@BWAPI@@@std@@@std@@U_Iterator_base0@2@@std@@U?$_Wrap_alloc@V?$allocator@V?$_List_unchecked_const_iterator@V?$_List_val@U?$_List_simple_types@VUnitCommandType@BWAPI@@@std@@@std@@U_Iterator_base0@2@@std@@@std@@@2@@std@@QAE@XZ 1001fe30 f i BWAPI:UnitCommandType.obj
 0001:0001ee30       ??1?$vector@UUnitInfo@UAlbertaBot@@V?$allocator@UUnitInfo@UAlbertaBot@@@std@@@std@@QAE@XZ 1001fe30 f i CombatSimulation.obj
 0001:0001ee30       ??1?$vector@PAVUnitInterface@BWAPI@@V?$allocator@PAVUnitInterface@BWAPI@@@std@@@std@@QAE@XZ 1001fe30 f i Bases.obj
 0001:0001ee30       ??1?$vector@U_Loop_vals_t@std@@V?$allocator@U_Loop_vals_t@std@@@2@@std@@QAE@XZ 1001fe30 f i MacroAct.obj
 0001:0001ee30       ??1?$_Vb_val@V?$allocator@_N@std@@@std@@QAE@XZ 1001fe30 f i BuildingPlacer.obj
 0001:0001ee30       ??1?$vector@PAUGameSnapshot@UAlbertaBot@@V?$allocator@PAUGameSnapshot@UAlbertaBot@@@std@@@std@@QAE@XZ 1001fe30 f i GameRecord.obj
 0001:0001ee30       ??1?$vector@V?$Point@H$00@BWAPI@@V?$allocator@V?$Point@H$00@BWAPI@@@std@@@std@@QAE@XZ 1001fe30 f i MicroTransports.obj
 0001:0001ee30       ??1?$vector@V?$_List_unchecked_const_iterator@V?$_List_val@U?$_List_simple_types@VDamageType@BWAPI@@@std@@@std@@U_Iterator_base0@2@@std@@U?$_Wrap_alloc@V?$allocator@V?$_List_unchecked_const_iterator@V?$_List_val@U?$_List_simple_types@VDamageType@BWAPI@@@std@@@std@@U_Iterator_base0@2@@std@@@std@@@2@@std@@QAE@XZ 1001fe30 f i BWAPI:DamageType.obj
 0001:0001ee30       ??1?$vector@V?$_List_unchecked_const_iterator@V?$_List_val@U?$_List_simple_types@VExplosionType@BWAPI@@@std@@@std@@U_Iterator_base0@2@@std@@U?$_Wrap_alloc@V?$allocator@V?$_List_unchecked_const_iterator@V?$_List_val@U?$_List_simple_types@VExplosionType@BWAPI@@@std@@@std@@U_Iterator_base0@2@@std@@@std@@@2@@std@@QAE@XZ 1001fe30 f i BWAPI:ExplosionType.obj
 0001:0001ee30       ??1?$vector@VMacroAct@UAlbertaBot@@V?$allocator@VMacroAct@UAlbertaBot@@@std@@@std@@QAE@XZ 1001fe30 f i BOSSManager.obj
 0001:0001ee30       ??1?$vector@V?$_List_unchecked_const_iterator@V?$_List_val@U?$_List_simple_types@PAVUnitInterface@BWAPI@@@std@@@std@@U_Iterator_base0@2@@std@@U?$_Wrap_alloc@V?$allocator@V?$_List_unchecked_const_iterator@V?$_List_val@U?$_List_simple_types@PAVUnitInterface@BWAPI@@@std@@@std@@U_Iterator_base0@2@@std@@@std@@@2@@std@@QAE@XZ 1001fe30 f i Base.obj
 0001:0001ee30       ??1?$vector@V?$_List_unchecked_const_iterator@V?$_List_val@U?$_List_simple_types@VUpgradeType@BWAPI@@@std@@@std@@U_Iterator_base0@2@@std@@U?$_Wrap_alloc@V?$allocator@V?$_List_unchecked_const_iterator@V?$_List_val@U?$_List_simple_types@VUpgradeType@BWAPI@@@std@@@std@@U_Iterator_base0@2@@std@@@std@@@2@@std@@QAE@XZ 1001fe30 f i BWAPI:UnitType.obj
 0001:0001ee30       ??1?$vector@FV?$allocator@F@std@@@std@@QAE@XZ 1001fe30 f i Base.obj
 0001:0001ee30       ??1?$vector@V?$_List_unchecked_const_iterator@V?$_List_val@U?$_List_simple_types@VOrder@BWAPI@@@std@@@std@@U_Iterator_base0@2@@std@@U?$_Wrap_alloc@V?$allocator@V?$_List_unchecked_const_iterator@V?$_List_val@U?$_List_simple_types@VOrder@BWAPI@@@std@@@std@@U_Iterator_base0@2@@std@@@std@@@2@@std@@QAE@XZ 1001fe30 f i BWAPI:Order.obj
 0001:0001ee30       ??1?$vector@V?$_List_unchecked_const_iterator@V?$_List_val@U?$_List_simple_types@VUnitType@BWAPI@@@std@@@std@@U_Iterator_base0@2@@std@@U?$_Wrap_alloc@V?$allocator@V?$_List_unchecked_const_iterator@V?$_List_val@U?$_List_simple_types@VUnitType@BWAPI@@@std@@@std@@U_Iterator_base0@2@@std@@@std@@@2@@std@@QAE@XZ 1001fe30 f i BWAPI:UnitType.obj
 0001:0001ee30       ??1?$vector@DV?$allocator@D@std@@@std@@QAE@XZ 1001fe30 f i MacroAct.obj
 0001:0001ee30       ??1?$vector@V?$Point@H$0CA@@BWAPI@@V?$allocator@V?$Point@H$0CA@@BWAPI@@@std@@@std@@QAE@XZ 1001fe30 f i Base.obj
 0001:0001ee30       ??1?$vector@V?$_List_unchecked_const_iterator@V?$_List_val@U?$_List_simple_types@VWeaponType@BWAPI@@@std@@@std@@U_Iterator_base0@2@@std@@U?$_Wrap_alloc@V?$allocator@V?$_List_unchecked_const_iterator@V?$_List_val@U?$_List_simple_types@VWeaponType@BWAPI@@@std@@@std@@U_Iterator_base0@2@@std@@@std@@@2@@std@@QAE@XZ 1001fe30 f i BWAPI:WeaponType.obj
 0001:0001ee30       ??1?$vector@U?$pair@VMacroAct@UAlbertaBot@@I@std@@V?$allocator@U?$pair@VMacroAct@UAlbertaBot@@I@std@@@2@@std@@QAE@XZ 1001fe30 f i BOSSManager.obj
 0001:0001ee30       ??1?$vector@VUnitType@BWAPI@@V?$allocator@VUnitType@BWAPI@@@std@@@std@@QAE@XZ 1001fe30 f i BOSSManager.obj
 0001:0001ee30       ??1?$vector@V?$_List_unchecked_const_iterator@V?$_List_val@U?$_List_simple_types@VError@BWAPI@@@std@@@std@@U_Iterator_base0@2@@std@@U?$_Wrap_alloc@V?$allocator@V?$_List_unchecked_const_iterator@V?$_List_val@U?$_List_simple_types@VError@BWAPI@@@std@@@std@@U_Iterator_base0@2@@std@@@std@@@2@@std@@QAE@XZ 1001fe30 f i BWAPI:Error.obj
 0001:0001ee30       ??1?$vector@PAVBase@UAlbertaBot@@V?$allocator@PAVBase@UAlbertaBot@@@std@@@std@@QAE@XZ 1001fe30 f i Bases.obj
 0001:0001ee30       ??1?$vector@GV?$allocator@G@std@@@std@@QAE@XZ 1001fe30 f i BOSSManager.obj
 0001:0001ee30       ??1?$vector@V?$_List_unchecked_const_iterator@V?$_List_val@U?$_List_simple_types@VRace@BWAPI@@@std@@@std@@U_Iterator_base0@2@@std@@U?$_Wrap_alloc@V?$allocator@V?$_List_unchecked_const_iterator@V?$_List_val@U?$_List_simple_types@VRace@BWAPI@@@std@@@std@@U_Iterator_base0@2@@std@@@std@@@2@@std@@QAE@XZ 1001fe30 f i BWAPI:Race.obj
 0001:0001ee30       ??1?$vector@HV?$allocator@H@std@@@std@@QAE@XZ 1001fe30 f i InformationManager.obj
 0001:0001ee60       ?begin@?$deque@VUnitType@BWAPI@@V?$allocator@VUnitType@BWAPI@@@std@@@std@@QAE?AV?$_Deque_iterator@V?$_Deque_val@U?$_Deque_simple_types@VUnitType@BWAPI@@@std@@@std@@@2@XZ 1001fe60 f i GameCommander.obj
 0001:0001ee60       ?begin@?$deque@V?$Point@H$0CA@@BWAPI@@V?$allocator@V?$Point@H$0CA@@BWAPI@@@std@@@std@@QBE?AV?$_Deque_const_iterator@V?$_Deque_val@U?$_Deque_simple_types@V?$Point@H$0CA@@BWAPI@@@std@@@std@@@2@XZ 1001fe60 f i Base.obj
 0001:0001ee60       ?begin@?$deque@UBuildOrderItem@UAlbertaBot@@V?$allocator@UBuildOrderItem@UAlbertaBot@@@std@@@std@@QAE?AV?$_Deque_iterator@V?$_Deque_val@U?$_Deque_simple_types@UBuildOrderItem@UAlbertaBot@@@std@@@std@@@2@XZ 1001fe60 f i BuildOrderQueue.obj
 0001:0001ee60       ?begin@?$deque@UBuildOrderItem@UAlbertaBot@@V?$allocator@UBuildOrderItem@UAlbertaBot@@@std@@@std@@QBE?AV?$_Deque_const_iterator@V?$_Deque_val@U?$_Deque_simple_types@UBuildOrderItem@UAlbertaBot@@@std@@@std@@@2@XZ 1001fe60 f i BuildOrderQueue.obj
 0001:0001ee80       ?end@?$deque@UBuildOrderItem@UAlbertaBot@@V?$allocator@UBuildOrderItem@UAlbertaBot@@@std@@@std@@QAE?AV?$_Deque_iterator@V?$_Deque_val@U?$_Deque_simple_types@UBuildOrderItem@UAlbertaBot@@@std@@@std@@@2@XZ 1001fe80 f i BuildOrderQueue.obj
 0001:0001ee80       ?end@?$deque@V?$Point@H$0CA@@BWAPI@@V?$allocator@V?$Point@H$0CA@@BWAPI@@@std@@@std@@QBE?AV?$_Deque_const_iterator@V?$_Deque_val@U?$_Deque_simple_types@V?$Point@H$0CA@@BWAPI@@@std@@@std@@@2@XZ 1001fe80 f i Base.obj
 0001:0001ee80       ?end@?$deque@UBuildOrderItem@UAlbertaBot@@V?$allocator@UBuildOrderItem@UAlbertaBot@@@std@@@std@@QBE?AV?$_Deque_const_iterator@V?$_Deque_val@U?$_Deque_simple_types@UBuildOrderItem@UAlbertaBot@@@std@@@std@@@2@XZ 1001fe80 f i BuildOrderQueue.obj
 0001:0001eea0       ?assign@?$basic_string@DU?$char_traits@D@std@@V?$allocator@D@2@@std@@QAEAAV12@ABV12@II@Z 1001fea0 f i Base.obj
 0001:0001efc0       ?find@?$basic_string@DU?$char_traits@D@std@@V?$allocator@D@2@@std@@QBEIPBDII@Z 1001ffc0 f i Base.obj
 0001:0001f060       ?allocate@?$_Wrap_alloc@V?$allocator@D@std@@@std@@QAEPADI@Z 10020060 f i Base.obj
 0001:0001f060       ?allocate@?$allocator@D@std@@QAEPADI@Z 10020060 f i Base.obj
 0001:0001f090       ?isValid@?$Type@VUnitType@BWAPI@@$0OJ@@BWAPI@@QBE_NXZ 10020090 f i Base.obj
 0001:0001f0b0       ??1?$_Func_class@_NPAVUnitInterface@BWAPI@@@std@@QAE@XZ 100200b0 f i Base.obj
 0001:0001f0e0       ?erase@?$_Hash@V?$_Uset_traits@PAVUnitInterface@BWAPI@@V?$_Uhash_compare@PAVUnitInterface@BWAPI@@U?$hash@PAX@std@@U?$equal_to@PAVUnitInterface@BWAPI@@@4@@std@@V?$allocator@PAVUnitInterface@BWAPI@@@4@$0A@@std@@@std@@QAE?AV?$_List_const_iterator@V?$_List_val@U?$_List_simple_types@PAVUnitInterface@BWAPI@@@std@@@std@@@2@V32@0@Z 100200e0 f i Base.obj
 0001:0001f1e0       ?equal_range@?$_Hash@V?$_Uset_traits@PAVUnitInterface@BWAPI@@V?$_Uhash_compare@PAVUnitInterface@BWAPI@@U?$hash@PAX@std@@U?$equal_to@PAVUnitInterface@BWAPI@@@4@@std@@V?$allocator@PAVUnitInterface@BWAPI@@@4@$0A@@std@@@std@@QBE?AU?$pair@V?$_List_const_iterator@V?$_List_val@U?$_List_simple_types@PAVUnitInterface@BWAPI@@@std@@@std@@@std@@V12@@2@ABQAVUnitInterface@BWAPI@@@Z 100201e0 f i Common.obj
 0001:0001f1e0       ?equal_range@?$_Hash@V?$_Uset_traits@PAVUnitInterface@BWAPI@@V?$_Uhash_compare@PAVUnitInterface@BWAPI@@U?$hash@PAX@std@@U?$equal_to@PAVUnitInterface@BWAPI@@@4@@std@@V?$allocator@PAVUnitInterface@BWAPI@@@4@$0A@@std@@@std@@QAE?AU?$pair@V?$_List_const_iterator@V?$_List_val@U?$_List_simple_types@PAVUnitInterface@BWAPI@@@std@@@std@@@std@@V12@@2@ABQAVUnitInterface@BWAPI@@@Z 100201e0 f i Base.obj
 0001:0001f280       ??1?$list@PAVUnitInterface@BWAPI@@V?$allocator@PAVUnitInterface@BWAPI@@@std@@@std@@QAE@XZ 10020280 f i Base.obj
 0001:0001f280       ??1?$list@W4MacroCommandType@UAlbertaBot@@V?$allocator@W4MacroCommandType@UAlbertaBot@@@std@@@std@@QAE@XZ 10020280 f i MacroAct.obj
 0001:0001f280       ??1?$list@VWeaponType@BWAPI@@V?$allocator@VWeaponType@BWAPI@@@std@@@std@@QAE@XZ 10020280 f i BWAPI:WeaponType.obj
 0001:0001f280       ??1?$list@VUpgradeType@BWAPI@@V?$allocator@VUpgradeType@BWAPI@@@std@@@std@@QAE@XZ 10020280 f i BWAPI:UnitType.obj
 0001:0001f280       ??1?$list@VTechType@BWAPI@@V?$allocator@VTechType@BWAPI@@@std@@@std@@QAE@XZ 10020280 f i BWAPI:UnitType.obj
 0001:0001f280       ??1?$list@VUnitType@BWAPI@@V?$allocator@VUnitType@BWAPI@@@std@@@std@@QAE@XZ 10020280 f i BWAPI:UnitType.obj
 0001:0001f2c0       ?assign@?$basic_string@DU?$char_traits@D@std@@V?$allocator@D@2@@std@@QAEAAV12@PBDI@Z 100202c0 f i Base.obj
 0001:0001f3c0       ?erase@?$basic_string@DU?$char_traits@D@std@@V?$allocator@D@2@@std@@QAEAAV12@II@Z 100203c0 f i Base.obj
 0001:0001f460       ?_Eos@?$basic_string@DU?$char_traits@D@std@@V?$allocator@D@2@@std@@QAEXI@Z 10020460 f i Base.obj
 0001:0001f490       ?_Grow@?$basic_string@DU?$char_traits@D@std@@V?$allocator@D@2@@std@@QAE_NI_N@Z 10020490 f i Base.obj
 0001:0001f540       ??0?$_Wrap_alloc@U?$_Wrap_alloc@V?$allocator@V?$_List_unchecked_const_iterator@V?$_List_val@U?$_List_simple_types@VExplosionType@BWAPI@@@std@@@std@@U_Iterator_base0@2@@std@@@std@@@std@@@std@@QAE@XZ 10020540 f i BWAPI:ExplosionType.obj
 0001:0001f540       ??0?$_Wrap_alloc@V?$allocator@V?$vector@_NV?$allocator@_N@std@@@std@@@std@@@std@@QAE@XZ 10020540 f i BuildingPlacer.obj
 0001:0001f540       ??0?$_Wrap_alloc@V?$allocator@U?$pair@W4OpeningPlan@UAlbertaBot@@V?$basic_string@DU?$char_traits@D@std@@V?$allocator@D@2@@std@@@std@@@std@@@std@@QAE@XZ 10020540 f i Dll.obj
 0001:0001f540       ??0?$_Wrap_alloc@V?$allocator@U?$_List_node@VRace@BWAPI@@PAX@std@@@std@@@std@@QAE@XZ 10020540 f i BWAPI:Race.obj
 0001:0001f540       ??0?$_Wrap_alloc@V?$allocator@VBuilding@UAlbertaBot@@@std@@@std@@QAE@XZ 10020540 f i BuildingManager.obj
 0001:0001f540       ??$begin@$$CBH$03@std@@YAPBHAAY03$$CBH@Z 10020540 f i BWAPI:UnitType.obj
 0001:0001f540       ??$begin@$$CBH$00@std@@YAPBHAAY00$$CBH@Z 10020540 f i BWAPI:UnitType.obj
 0001:0001f540       ??0?$_Wrap_alloc@V?$allocator@U?$_List_node@VError@BWAPI@@PAX@std@@@std@@@std@@QAE@XZ 10020540 f i BWAPI:Error.obj
 0001:0001f540       ??0?$_Wrap_alloc@V?$allocator@V?$vector@VActionType@BOSS@@V?$allocator@VActionType@BOSS@@@std@@@std@@@std@@@std@@QAE@XZ 10020540 f i BOSS:ActionType.obj
 0001:0001f540       ??0?$_Wrap_alloc@V?$allocator@V?$map@VUnitType@BWAPI@@HU?$less@VUnitType@BWAPI@@@std@@V?$allocator@U?$pair@$$CBVUnitType@BWAPI@@H@std@@@4@@std@@@std@@@std@@QAE@XZ 10020540 f i BWAPI:UnitType.obj
 0001:0001f540       ??0?$_Wrap_alloc@V?$allocator@U?$_List_node@VExplosionType@BWAPI@@PAX@std@@@std@@@std@@QAE@XZ 10020540 f i BWAPI:ExplosionType.obj
 0001:0001f540       ??$begin@$$CBH$04@std@@YAPBHAAY04$$CBH@Z 10020540 f i BWAPI:UnitType.obj
 0001:0001f540       ??0?$_Wrap_alloc@V?$allocator@V?$vector@VActionTypeData@BOSS@@V?$allocator@VActionTypeData@BOSS@@@std@@@std@@@std@@@std@@QAE@XZ 10020540 f i BOSS:ActionTypeData.obj
 0001:0001f540       ??0?$_Wrap_alloc@V?$allocator@U?$_Tree_node@U?$pair@$$CBV?$basic_string@DU?$char_traits@D@std@@V?$allocator@D@2@@std@@VSquad@UAlbertaBot@@@std@@PAX@std@@@std@@@std@@QAE@XZ 10020540 f i CombatCommander.obj
 0001:0001f540       ??0?$_Wrap_alloc@V?$allocator@U?$_List_node@VDamageType@BWAPI@@PAX@std@@@std@@@std@@QAE@XZ 10020540 f i BWAPI:DamageType.obj
 0001:0001f540       ??0?$_Wrap_alloc@U?$_Wrap_alloc@V?$allocator@V?$_List_unchecked_const_iterator@V?$_List_val@U?$_List_simple_types@VOrder@BWAPI@@@std@@@std@@U_Iterator_base0@2@@std@@@std@@@std@@@std@@QAE@XZ 10020540 f i BWAPI:Order.obj
 0001:0001f540       ??0?$_Wrap_alloc@V?$allocator@U?$_List_node@VOrder@BWAPI@@PAX@std@@@std@@@std@@QAE@XZ 10020540 f i BWAPI:Order.obj
 0001:0001f540       ??0?$_Wrap_alloc@V?$allocator@VActionType@BOSS@@@std@@@std@@QAE@XZ 10020540 f i BOSSManager.obj
 0001:0001f540       ??0?$_Wrap_alloc@V?$allocator@U?$_List_node@VUnitCommandType@BWAPI@@PAX@std@@@std@@@std@@QAE@XZ 10020540 f i BWAPI:UnitCommandType.obj
 0001:0001f540       ??0?$_Wrap_alloc@U?$_Wrap_alloc@V?$allocator@V?$_List_unchecked_const_iterator@V?$_List_val@U?$_List_simple_types@VUnitCommandType@BWAPI@@@std@@@std@@U_Iterator_base0@2@@std@@@std@@@std@@@std@@QAE@XZ 10020540 f i BWAPI:UnitCommandType.obj
 0001:0001f540       ??0?$_Wrap_alloc@V?$allocator@VMacroAct@UAlbertaBot@@@std@@@std@@QAE@XZ 10020540 f i BOSSManager.obj
 0001:0001f540       ??0?$_Wrap_alloc@V?$allocator@VGridCell@UAlbertaBot@@@std@@@std@@QAE@XZ 10020540 f i MapGrid.obj
 0001:0001f540       ??0?$_Wrap_alloc@V?$allocator@D@std@@@std@@QAE@XZ 10020540 f i Base.obj
 0001:0001f540       ??$begin@$$CBH$02@std@@YAPBHAAY02$$CBH@Z 10020540 f i BWAPI:UnitType.obj
 0001:0001f540       ??0?$_Wrap_alloc@U?$_Wrap_alloc@V?$allocator@V?$_List_unchecked_const_iterator@V?$_List_val@U?$_List_simple_types@VDamageType@BWAPI@@@std@@@std@@U_Iterator_base0@2@@std@@@std@@@std@@@std@@QAE@XZ 10020540 f i BWAPI:DamageType.obj
 0001:0001f540       ??0?$_Wrap_alloc@U?$_Wrap_alloc@V?$allocator@V?$_List_unchecked_const_iterator@V?$_List_val@U?$_List_simple_types@VRace@BWAPI@@@std@@@std@@U_Iterator_base0@2@@std@@@std@@@std@@@std@@QAE@XZ 10020540 f i BWAPI:Race.obj
 0001:0001f540       ??0?$_Wrap_alloc@V?$allocator@U?$_Tree_node@U?$pair@$$CBV?$basic_string@DU?$char_traits@D@std@@V?$allocator@D@2@@std@@VActionType@BOSS@@@std@@PAX@std@@@std@@@std@@QAE@XZ 10020540 f i BOSS:ActionType.obj
 0001:0001f540       ??0?$_Wrap_alloc@U?$_Wrap_alloc@V?$allocator@V?$_List_unchecked_const_iterator@V?$_List_val@U?$_List_simple_types@VError@BWAPI@@@std@@@std@@U_Iterator_base0@2@@std@@@std@@@std@@@std@@QAE@XZ 10020540 f i BWAPI:Error.obj
 0001:0001f540       ??0?$_Wrap_alloc@V?$allocator@U?$_List_node@VUnitSizeType@BWAPI@@PAX@std@@@std@@@std@@QAE@XZ 10020540 f i BWAPI:UnitSizeType.obj
 0001:0001f540       ??$begin@$$CBH$01@std@@YAPBHAAY01$$CBH@Z 10020540 f i BWAPI:UnitType.obj
 0001:0001f540       ??0?$_Wrap_alloc@U?$_Wrap_alloc@V?$allocator@V?$_List_unchecked_const_iterator@V?$_List_val@U?$_List_simple_types@VUnitSizeType@BWAPI@@@std@@@std@@U_Iterator_base0@2@@std@@@std@@@std@@@std@@QAE@XZ 10020540 f i BWAPI:UnitSizeType.obj
 0001:0001f550       ??0?$_Hash@V?$_Uset_traits@PAVUnitInterface@BWAPI@@V?$_Uhash_compare@PAVUnitInterface@BWAPI@@U?$hash@PAX@std@@U?$equal_to@PAVUnitInterface@BWAPI@@@4@@std@@V?$allocator@PAVUnitInterface@BWAPI@@@4@$0A@@std@@@std@@QAE@ABV?$_Uhash_compare@PAVUnitInterface@BWAPI@@U?$hash@PAX@std@@U?$equal_to@PAVUnitInterface@BWAPI@@@4@@1@ABV?$allocator@PAVUnitInterface@BWAPI@@@1@@Z 10020550 f i Base.obj
 0001:0001f600       ?erase@?$_Hash@V?$_Uset_traits@PAVUnitInterface@BWAPI@@V?$_Uhash_compare@PAVUnitInterface@BWAPI@@U?$hash@PAX@std@@U?$equal_to@PAVUnitInterface@BWAPI@@@4@@std@@V?$allocator@PAVUnitInterface@BWAPI@@@4@$0A@@std@@@std@@QAE?AV?$_List_const_iterator@V?$_List_val@U?$_List_simple_types@PAVUnitInterface@BWAPI@@@std@@@std@@@2@V32@@Z 10020600 f i Base.obj
 0001:0001f680       ?clear@?$_Hash@V?$_Uset_traits@PAVUnitInterface@BWAPI@@V?$_Uhash_compare@PAVUnitInterface@BWAPI@@U?$hash@PAX@std@@U?$equal_to@PAVUnitInterface@BWAPI@@@4@@std@@V?$allocator@PAVUnitInterface@BWAPI@@@4@$0A@@std@@@std@@QAEXXZ 10020680 f i Base.obj
 0001:0001f6f0       ?_Hashval@?$_Hash@V?$_Uset_traits@PAVUnitInterface@BWAPI@@V?$_Uhash_compare@PAVUnitInterface@BWAPI@@U?$hash@PAX@std@@U?$equal_to@PAVUnitInterface@BWAPI@@@4@@std@@V?$allocator@PAVUnitInterface@BWAPI@@@4@$0A@@std@@@std@@IBEIABQAVUnitInterface@BWAPI@@@Z 100206f0 f i Base.obj
 0001:0001f760       ?_Destroy@?$vector@V?$vector@GV?$allocator@G@std@@@std@@V?$allocator@V?$vector@GV?$allocator@G@std@@@std@@@2@@std@@IAEXPAV?$vector@GV?$allocator@G@std@@@2@0@Z 10020760 f i MapPartitions.obj
 0001:0001f760       ?_Destroy@?$vector@V?$vector@FV?$allocator@F@std@@@std@@V?$allocator@V?$vector@FV?$allocator@F@std@@@std@@@2@@std@@IAEXPAV?$vector@FV?$allocator@F@std@@@2@0@Z 10020760 f i Base.obj
 0001:0001f760       ?_Destroy@?$vector@V?$vector@VMacroAct@UAlbertaBot@@V?$allocator@VMacroAct@UAlbertaBot@@@std@@@std@@V?$allocator@V?$vector@VMacroAct@UAlbertaBot@@V?$allocator@VMacroAct@UAlbertaBot@@@std@@@std@@@2@@std@@IAEXPAV?$vector@VMacroAct@UAlbertaBot@@V?$allocator@VMacroAct@UAlbertaBot@@@std@@@2@0@Z 10020760 f i BOSSManager.obj
 0001:0001f760       ?_Destroy@?$vector@V?$vector@VActionType@BOSS@@V?$allocator@VActionType@BOSS@@@std@@@std@@V?$allocator@V?$vector@VActionType@BOSS@@V?$allocator@VActionType@BOSS@@@std@@@std@@@2@@std@@IAEXPAV?$vector@VActionType@BOSS@@V?$allocator@VActionType@BOSS@@@std@@@2@0@Z 10020760 f i BOSS:ActionType.obj
 0001:0001f7b0       ??1?$_Func_base@_NPAVUnitInterface@BWAPI@@@std@@UAE@XZ 100207b0 f i Base.obj
 0001:0001f7c0       ??_E?$_Func_base@_NPAVUnitInterface@BWAPI@@@std@@UAEPAXI@Z 100207c0 f i * CIL library *:* CIL module *
 0001:0001f7c0       ??_E?$_Func_impl@U?$_Callable_obj@V<lambda_86a23b8b9e9158d3db1e219e96257edf>@@$0A@@std@@V?$allocator@V?$_Func_class@_NPAVUnitInterface@BWAPI@@@std@@@2@_NPAVUnitInterface@BWAPI@@@std@@UAEPAXI@Z 100207c0 f i * CIL library *:* CIL module *
 0001:0001f7c0       ??_G?$_Func_impl@U?$_Callable_obj@V?$UnaryFilter@PAVUnitInterface@BWAPI@@P6A_NPAV12@@Z@BWAPI@@$0A@@std@@V?$allocator@V?$_Func_class@_NPAVUnitInterface@BWAPI@@@std@@@2@_NPAVUnitInterface@BWAPI@@@std@@UAEPAXI@Z 100207c0 f i CombatCommander.obj
 0001:0001f7c0       ??_G?$_Func_base@_NPAVUnitInterface@BWAPI@@@std@@UAEPAXI@Z 100207c0 f i Base.obj
 0001:0001f7c0       ??_G?$_Func_impl@U?$_Callable_obj@V<lambda_c1e349560a5f92f063e637d97da5c54a>@@$0A@@std@@V?$allocator@V?$_Func_class@_NPAVUnitInterface@BWAPI@@@std@@@2@_NPAVUnitInterface@BWAPI@@@std@@UAEPAXI@Z 100207c0 f i MicroDefilers.obj
 0001:0001f7c0       ??_G?$_Func_impl@U?$_Callable_obj@V<lambda_86a23b8b9e9158d3db1e219e96257edf>@@$0A@@std@@V?$allocator@V?$_Func_class@_NPAVUnitInterface@BWAPI@@@std@@@2@_NPAVUnitInterface@BWAPI@@@std@@UAEPAXI@Z 100207c0 f i Base.obj
 0001:0001f7c0       ??_G?$_Func_impl@U?$_Callable_obj@V<lambda_3d302a1317419cd92892c19f4249dbfc>@@$0A@@std@@V?$allocator@V?$_Func_class@_NPAVUnitInterface@BWAPI@@@std@@@2@_NPAVUnitInterface@BWAPI@@@std@@UAEPAXI@Z 100207c0 f i MicroManager.obj
 0001:0001f7c0       ??_E?$_Func_impl@U?$_Callable_obj@V<lambda_c951ba86f2b730e911551f8179284141>@@$0A@@std@@V?$allocator@V?$_Func_class@_NPAVUnitInterface@BWAPI@@@std@@@2@_NPAVUnitInterface@BWAPI@@@std@@UAEPAXI@Z 100207c0 f i * CIL library *:* CIL module *
 0001:0001f7c0       ??_E?$_Func_impl@U?$_Callable_obj@V<lambda_c1e349560a5f92f063e637d97da5c54a>@@$0A@@std@@V?$allocator@V?$_Func_class@_NPAVUnitInterface@BWAPI@@@std@@@2@_NPAVUnitInterface@BWAPI@@@std@@UAEPAXI@Z 100207c0 f i * CIL library *:* CIL module *
 0001:0001f7c0       ??_G?$_Func_impl@U?$_Callable_obj@V<lambda_b62a7bf29e97477c46a7925ecfd8ccbf>@@$0A@@std@@V?$allocator@V?$_Func_class@_NPAVUnitInterface@BWAPI@@@std@@@2@_NPAVUnitInterface@BWAPI@@@std@@UAEPAXI@Z 100207c0 f i MicroManager.obj
 0001:0001f7c0       ??_E?$_Func_impl@U?$_Callable_obj@V<lambda_b62a7bf29e97477c46a7925ecfd8ccbf>@@$0A@@std@@V?$allocator@V?$_Func_class@_NPAVUnitInterface@BWAPI@@@std@@@2@_NPAVUnitInterface@BWAPI@@@std@@UAEPAXI@Z 100207c0 f i * CIL library *:* CIL module *
 0001:0001f7c0       ??_E?$_Func_impl@U?$_Callable_obj@V?$UnaryFilter@PAVUnitInterface@BWAPI@@P6A_NPAV12@@Z@BWAPI@@$0A@@std@@V?$allocator@V?$_Func_class@_NPAVUnitInterface@BWAPI@@@std@@@2@_NPAVUnitInterface@BWAPI@@@std@@UAEPAXI@Z 100207c0 f i * CIL library *:* CIL module *
 0001:0001f7c0       ??_G?$_Func_impl@U?$_Callable_obj@V<lambda_c951ba86f2b730e911551f8179284141>@@$0A@@std@@V?$allocator@V?$_Func_class@_NPAVUnitInterface@BWAPI@@@std@@@2@_NPAVUnitInterface@BWAPI@@@std@@UAEPAXI@Z 100207c0 f i MicroManager.obj
 0001:0001f7c0       ??_E?$_Func_impl@U?$_Callable_obj@V<lambda_3d302a1317419cd92892c19f4249dbfc>@@$0A@@std@@V?$allocator@V?$_Func_class@_NPAVUnitInterface@BWAPI@@@std@@@2@_NPAVUnitInterface@BWAPI@@@std@@UAEPAXI@Z 100207c0 f i * CIL library *:* CIL module *
 0001:0001f7f0       ?_Copy@?$basic_string@DU?$char_traits@D@std@@V?$allocator@D@2@@std@@QAEXII@Z 100207f0 f i Base.obj
 0001:0001f940       ??0?$_Hash_oper2@$0A@U?$hash@H@std@@U?$equal_to@VUnitType@BWAPI@@@2@@std@@QAE@U?$hash@H@1@U?$equal_to@VUnitType@BWAPI@@@1@@Z 10020940 f i BWAPI:UnitType.obj
 0001:0001f940       ??0?$_Hash_oper2@$0A@U?$hash@H@std@@U?$equal_to@VTechType@BWAPI@@@2@@std@@QAE@U?$hash@H@1@U?$equal_to@VTechType@BWAPI@@@1@@Z 10020940 f i BWAPI:UnitType.obj
 0001:0001f940       ??0?$_Hash_oper2@$0A@U?$hash@H@std@@U?$equal_to@VError@BWAPI@@@2@@std@@QAE@U?$hash@H@1@U?$equal_to@VError@BWAPI@@@1@@Z 10020940 f i BWAPI:Error.obj
 0001:0001f940       ??0?$_Hash_oper2@$0A@U?$hash@PAX@std@@U?$equal_to@PAVUnitInterface@BWAPI@@@2@@std@@QAE@U?$hash@PAX@1@U?$equal_to@PAVUnitInterface@BWAPI@@@1@@Z 10020940 f i Base.obj
 0001:0001f940       ??0?$_Hash_oper2@$0A@U?$hash@H@std@@U?$equal_to@VUpgradeType@BWAPI@@@2@@std@@QAE@U?$hash@H@1@U?$equal_to@VUpgradeType@BWAPI@@@1@@Z 10020940 f i BWAPI:UnitType.obj
 0001:0001f940       ??0?$_Hash_oper2@$0A@U?$hash@H@std@@U?$equal_to@VWeaponType@BWAPI@@@2@@std@@QAE@U?$hash@H@1@U?$equal_to@VWeaponType@BWAPI@@@1@@Z 10020940 f i BWAPI:WeaponType.obj
 0001:0001f940       ??0?$_Hash_oper2@$0A@U?$hash@H@std@@U?$equal_to@VRace@BWAPI@@@2@@std@@QAE@U?$hash@H@1@U?$equal_to@VRace@BWAPI@@@1@@Z 10020940 f i BWAPI:Race.obj
 0001:0001f940       ??0?$_Hash_oper2@$0A@U?$hash@H@std@@U?$equal_to@VDamageType@BWAPI@@@2@@std@@QAE@U?$hash@H@1@U?$equal_to@VDamageType@BWAPI@@@1@@Z 10020940 f i BWAPI:DamageType.obj
 0001:0001f940       ??0?$_Hash_oper2@$0A@U?$hash@H@std@@U?$equal_to@VOrder@BWAPI@@@2@@std@@QAE@U?$hash@H@1@U?$equal_to@VOrder@BWAPI@@@1@@Z 10020940 f i BWAPI:Order.obj
 0001:0001f940       ??0?$_Hash_oper2@$0A@U?$hash@H@std@@U?$equal_to@VUnitCommandType@BWAPI@@@2@@std@@QAE@U?$hash@H@1@U?$equal_to@VUnitCommandType@BWAPI@@@1@@Z 10020940 f i BWAPI:UnitCommandType.obj
 0001:0001f940       ??0?$_Hash_oper2@$0A@U?$hash@H@std@@U?$equal_to@VUnitSizeType@BWAPI@@@2@@std@@QAE@U?$hash@H@1@U?$equal_to@VUnitSizeType@BWAPI@@@1@@Z 10020940 f i BWAPI:UnitSizeType.obj
 0001:0001f940       ??0?$_Hash_oper2@$0A@U?$hash@H@std@@U?$equal_to@VExplosionType@BWAPI@@@2@@std@@QAE@U?$hash@H@1@U?$equal_to@VExplosionType@BWAPI@@@1@@Z 10020940 f i BWAPI:ExplosionType.obj
 0001:0001f950       ?_Destroy@?$vector@V?$_List_unchecked_const_iterator@V?$_List_val@U?$_List_simple_types@VExplosionType@BWAPI@@@std@@@std@@U_Iterator_base0@2@@std@@U?$_Wrap_alloc@V?$allocator@V?$_List_unchecked_const_iterator@V?$_List_val@U?$_List_simple_types@VExplosionType@BWAPI@@@std@@@std@@U_Iterator_base0@2@@std@@@std@@@2@@std@@IAEXPAV?$_List_unchecked_const_iterator@V?$_List_val@U?$_List_simple_types@VExplosionType@BWAPI@@@std@@@std@@U_Iterator_base0@2@@2@0@Z 10020950 f i BWAPI:ExplosionType.obj
 0001:0001f950       ?_Destroy@?$vector@VMacroAct@UAlbertaBot@@V?$allocator@VMacroAct@UAlbertaBot@@@std@@@std@@IAEXPAVMacroAct@UAlbertaBot@@0@Z 10020950 f i BOSSManager.obj
 0001:0001f950       ?_Destroy@?$vector@V?$_List_unchecked_const_iterator@V?$_List_val@U?$_List_simple_types@VWeaponType@BWAPI@@@std@@@std@@U_Iterator_base0@2@@std@@U?$_Wrap_alloc@V?$allocator@V?$_List_unchecked_const_iterator@V?$_List_val@U?$_List_simple_types@VWeaponType@BWAPI@@@std@@@std@@U_Iterator_base0@2@@std@@@std@@@2@@std@@IAEXPAV?$_List_unchecked_const_iterator@V?$_List_val@U?$_List_simple_types@VWeaponType@BWAPI@@@std@@@std@@U_Iterator_base0@2@@2@0@Z 10020950 f i BWAPI:WeaponType.obj
 0001:0001f950       ?_Destroy@?$vector@V?$_List_unchecked_const_iterator@V?$_List_val@U?$_List_simple_types@VDamageType@BWAPI@@@std@@@std@@U_Iterator_base0@2@@std@@U?$_Wrap_alloc@V?$allocator@V?$_List_unchecked_const_iterator@V?$_List_val@U?$_List_simple_types@VDamageType@BWAPI@@@std@@@std@@U_Iterator_base0@2@@std@@@std@@@2@@std@@IAEXPAV?$_List_unchecked_const_iterator@V?$_List_val@U?$_List_simple_types@VDamageType@BWAPI@@@std@@@std@@U_Iterator_base0@2@@2@0@Z 10020950 f i BWAPI:DamageType.obj
 0001:0001f950       ?_Destroy@?$vector@V?$_List_unchecked_const_iterator@V?$_List_val@U?$_List_simple_types@VRace@BWAPI@@@std@@@std@@U_Iterator_base0@2@@std@@U?$_Wrap_alloc@V?$allocator@V?$_List_unchecked_const_iterator@V?$_List_val@U?$_List_simple_types@VRace@BWAPI@@@std@@@std@@U_Iterator_base0@2@@std@@@std@@@2@@std@@IAEXPAV?$_List_unchecked_const_iterator@V?$_List_val@U?$_List_simple_types@VRace@BWAPI@@@std@@@std@@U_Iterator_base0@2@@2@0@Z 10020950 f i BWAPI:Race.obj
 0001:0001f950       ?executeMicro@MicroHighTemplar@UAlbertaBot@@UAEXABVUnitset@BWAPI@@ABVUnitCluster@2@@Z 10020950 f i MicroHighTemplar.obj
 0001:0001f950       ?_Destroy@?$vector@V?$_List_unchecked_const_iterator@V?$_List_val@U?$_List_simple_types@VUnitCommandType@BWAPI@@@std@@@std@@U_Iterator_base0@2@@std@@U?$_Wrap_alloc@V?$allocator@V?$_List_unchecked_const_iterator@V?$_List_val@U?$_List_simple_types@VUnitCommandType@BWAPI@@@std@@@std@@U_Iterator_base0@2@@std@@@std@@@2@@std@@IAEXPAV?$_List_unchecked_const_iterator@V?$_List_val@U?$_List_simple_types@VUnitCommandType@BWAPI@@@std@@@std@@U_Iterator_base0@2@@2@0@Z 10020950 f i BWAPI:UnitCommandType.obj
 0001:0001f950       ?executeMicro@MicroTransports@UAlbertaBot@@UAEXABVUnitset@BWAPI@@ABVUnitCluster@2@@Z 10020950 f i MicroTransports.obj
 0001:0001f950       ?_Destroy@?$vector@VBuilding@UAlbertaBot@@V?$allocator@VBuilding@UAlbertaBot@@@std@@@std@@IAEXPAVBuilding@UAlbertaBot@@0@Z 10020950 f i BuildingManager.obj
 0001:0001f950       ?_Destroy@?$vector@V?$_List_unchecked_const_iterator@V?$_List_val@U?$_List_simple_types@VError@BWAPI@@@std@@@std@@U_Iterator_base0@2@@std@@U?$_Wrap_alloc@V?$allocator@V?$_List_unchecked_const_iterator@V?$_List_val@U?$_List_simple_types@VError@BWAPI@@@std@@@std@@U_Iterator_base0@2@@std@@@std@@@2@@std@@IAEXPAV?$_List_unchecked_const_iterator@V?$_List_val@U?$_List_simple_types@VError@BWAPI@@@std@@@std@@U_Iterator_base0@2@@2@0@Z 10020950 f i BWAPI:Error.obj
 0001:0001f950       ?_Destroy@?$vector@V?$_List_unchecked_const_iterator@V?$_List_val@U?$_List_simple_types@VOrder@BWAPI@@@std@@@std@@U_Iterator_base0@2@@std@@U?$_Wrap_alloc@V?$allocator@V?$_List_unchecked_const_iterator@V?$_List_val@U?$_List_simple_types@VOrder@BWAPI@@@std@@@std@@U_Iterator_base0@2@@std@@@std@@@2@@std@@IAEXPAV?$_List_unchecked_const_iterator@V?$_List_val@U?$_List_simple_types@VOrder@BWAPI@@@std@@@std@@U_Iterator_base0@2@@2@0@Z 10020950 f i BWAPI:Order.obj
 0001:0001f950       ?_Destroy@?$vector@V?$_List_unchecked_const_iterator@V?$_List_val@U?$_List_simple_types@VUpgradeType@BWAPI@@@std@@@std@@U_Iterator_base0@2@@std@@U?$_Wrap_alloc@V?$allocator@V?$_List_unchecked_const_iterator@V?$_List_val@U?$_List_simple_types@VUpgradeType@BWAPI@@@std@@@std@@U_Iterator_base0@2@@std@@@std@@@2@@std@@IAEXPAV?$_List_unchecked_const_iterator@V?$_List_val@U?$_List_simple_types@VUpgradeType@BWAPI@@@std@@@std@@U_Iterator_base0@2@@2@0@Z 10020950 f i BWAPI:UnitType.obj
 0001:0001f950       ?executeMicro@MicroMedics@UAlbertaBot@@UAEXABVUnitset@BWAPI@@ABVUnitCluster@2@@Z 10020950 f i MicroMedics.obj
 0001:0001f950       ?_Destroy@?$vector@V?$_List_unchecked_const_iterator@V?$_List_val@U?$_List_simple_types@VUnitSizeType@BWAPI@@@std@@@std@@U_Iterator_base0@2@@std@@U?$_Wrap_alloc@V?$allocator@V?$_List_unchecked_const_iterator@V?$_List_val@U?$_List_simple_types@VUnitSizeType@BWAPI@@@std@@@std@@U_Iterator_base0@2@@std@@@std@@@2@@std@@IAEXPAV?$_List_unchecked_const_iterator@V?$_List_val@U?$_List_simple_types@VUnitSizeType@BWAPI@@@std@@@std@@U_Iterator_base0@2@@2@0@Z 10020950 f i BWAPI:UnitSizeType.obj
 0001:0001f950       ?onNukeDetect@AIModule@BWAPI@@UAEXV?$Point@H$00@2@@Z 10020950 f i BWAPI:AIModule.obj
 0001:0001f950       ?executeMicro@MicroDefilers@UAlbertaBot@@UAEXABVUnitset@BWAPI@@ABVUnitCluster@2@@Z 10020950 f i MicroDefilers.obj
 0001:0001f950       ?_Destroy@?$vector@V?$_List_unchecked_const_iterator@V?$_List_val@U?$_List_simple_types@VUnitType@BWAPI@@@std@@@std@@U_Iterator_base0@2@@std@@U?$_Wrap_alloc@V?$allocator@V?$_List_unchecked_const_iterator@V?$_List_val@U?$_List_simple_types@VUnitType@BWAPI@@@std@@@std@@U_Iterator_base0@2@@std@@@std@@@2@@std@@IAEXPAV?$_List_unchecked_const_iterator@V?$_List_val@U?$_List_simple_types@VUnitType@BWAPI@@@std@@@std@@U_Iterator_base0@2@@2@0@Z 10020950 f i BWAPI:UnitType.obj
 0001:0001f950       ?_Destroy@?$vector@V?$_List_unchecked_const_iterator@V?$_List_val@U?$_List_simple_types@VTechType@BWAPI@@@std@@@std@@U_Iterator_base0@2@@std@@U?$_Wrap_alloc@V?$allocator@V?$_List_unchecked_const_iterator@V?$_List_val@U?$_List_simple_types@VTechType@BWAPI@@@std@@@std@@U_Iterator_base0@2@@std@@@std@@@2@@std@@IAEXPAV?$_List_unchecked_const_iterator@V?$_List_val@U?$_List_simple_types@VTechType@BWAPI@@@std@@@std@@U_Iterator_base0@2@@2@0@Z 10020950 f i BWAPI:UnitType.obj
 0001:0001f950       ?_Destroy@?$vector@V?$_List_unchecked_const_iterator@V?$_List_val@U?$_List_simple_types@PAVUnitInterface@BWAPI@@@std@@@std@@U_Iterator_base0@2@@std@@U?$_Wrap_alloc@V?$allocator@V?$_List_unchecked_const_iterator@V?$_List_val@U?$_List_simple_types@PAVUnitInterface@BWAPI@@@std@@@std@@U_Iterator_base0@2@@std@@@std@@@2@@std@@IAEXPAV?$_List_unchecked_const_iterator@V?$_List_val@U?$_List_simple_types@PAVUnitInterface@BWAPI@@@std@@@std@@U_Iterator_base0@2@@2@0@Z 10020950 f i Base.obj
 0001:0001f950       ?_Destroy@?$vector@VActionType@BOSS@@V?$allocator@VActionType@BOSS@@@std@@@std@@IAEXPAVActionType@BOSS@@0@Z 10020950 f i BOSSManager.obj
 0001:0001f950       ?executeMicro@MicroDetectors@UAlbertaBot@@UAEXABVUnitset@BWAPI@@ABVUnitCluster@2@@Z 10020950 f i MicroDetectors.obj
 0001:0001f950       ?executeMicro@MicroOverlords@UAlbertaBot@@UAEXABVUnitset@BWAPI@@ABVUnitCluster@2@@Z 10020950 f i MicroOverlords.obj
 0001:0001f960       ?_Insert_n@?$vector@V?$_List_unchecked_const_iterator@V?$_List_val@U?$_List_simple_types@PAVUnitInterface@BWAPI@@@std@@@std@@U_Iterator_base0@2@@std@@U?$_Wrap_alloc@V?$allocator@V?$_List_unchecked_const_iterator@V?$_List_val@U?$_List_simple_types@PAVUnitInterface@BWAPI@@@std@@@std@@U_Iterator_base0@2@@std@@@std@@@2@@std@@IAE?AV?$_Vector_iterator@V?$_Vector_val@U?$_Simple_types@V?$_List_unchecked_const_iterator@V?$_List_val@U?$_List_simple_types@PAVUnitInterface@BWAPI@@@std@@@std@@U_Iterator_base0@2@@std@@@std@@@std@@@2@V?$_Vector_const_iterator@V?$_Vector_val@U?$_Simple_types@V?$_List_unchecked_const_iterator@V?$_List_val@U?$_List_simple_types@PAVUnitInterface@BWAPI@@@std@@@std@@U_Iterator_base0@2@@std@@@std@@@std@@@2@IABV?$_List_unchecked_const_iterator@V?$_List_val@U?$_List_simple_types@PAVUnitInterface@BWAPI@@@std@@@std@@U_Iterator_base0@2@@2@@Z 10020960 f i Base.obj
 0001:0001fb40       ?_Buynode0@?$_List_alloc@$0A@U?$_List_base_types@PAVUnitInterface@BWAPI@@V?$allocator@PAVUnitInterface@BWAPI@@@std@@@std@@@std@@QAEPAU?$_List_node@PAVUnitInterface@BWAPI@@PAX@2@PAU32@0@Z 10020b40 f i Base.obj
 0001:0001fb40       ?_Buynode0@?$_List_alloc@$0A@U?$_List_base_types@W4MacroCommandType@UAlbertaBot@@V?$allocator@W4MacroCommandType@UAlbertaBot@@@std@@@std@@@std@@QAEPAU?$_List_node@W4MacroCommandType@UAlbertaBot@@PAX@2@PAU32@0@Z 10020b40 f i MacroAct.obj
 0001:0001fb80       ?_Grow_to@?$vector@HV?$allocator@H@std@@@std@@IBEII@Z 10020b80 f i ParseUtils.obj
 0001:0001fb80       ?_Grow_to@?$vector@V?$_List_unchecked_const_iterator@V?$_List_val@U?$_List_simple_types@PAVUnitInterface@BWAPI@@@std@@@std@@U_Iterator_base0@2@@std@@U?$_Wrap_alloc@V?$allocator@V?$_List_unchecked_const_iterator@V?$_List_val@U?$_List_simple_types@PAVUnitInterface@BWAPI@@@std@@@std@@U_Iterator_base0@2@@std@@@std@@@2@@std@@IBEII@Z 10020b80 f i Base.obj
 0001:0001fbc0       ??$?VV?$UnaryFilter@PAVUnitInterface@BWAPI@@V?$function@$$A6A_NPAVUnitInterface@BWAPI@@@Z@std@@@BWAPI@@@?$UnaryFilter@PAVUnitInterface@BWAPI@@P6A_NPAV12@@Z@BWAPI@@QBE?AV?$UnaryFilter@PAVUnitInterface@BWAPI@@V?$function@$$A6A_NPAVUnitInterface@BWAPI@@@Z@std@@@1@ABV21@@Z 10020bc0 f i Base.obj
 0001:0001fcb0       ?onUnitShow@AIModule@BWAPI@@UAEXPAVUnitInterface@2@@Z 10020cb0 f i BWAPI:AIModule.obj
 0001:0001fcb0       ?onPlayerLeft@AIModule@BWAPI@@UAEXPAVPlayerInterface@2@@Z 10020cb0 f i BWAPI:AIModule.obj
 0001:0001fcb0       ??$destroy@PAU?$_List_node@VDamageType@BWAPI@@PAX@std@@@?$_Wrap_alloc@V?$allocator@U?$_List_node@VDamageType@BWAPI@@PAX@std@@@std@@@std@@QAEXPAPAU?$_List_node@VDamageType@BWAPI@@PAX@1@@Z 10020cb0 f i BWAPI:DamageType.obj
 0001:0001fcb0       ?onEnd@AIModule@BWAPI@@UAEX_N@Z 10020cb0 f i BWAPI:AIModule.obj
 0001:0001fcb0       ??$destroy@PAU?$_List_node@VError@BWAPI@@PAX@std@@@?$_Wrap_alloc@V?$allocator@U?$_List_node@VError@BWAPI@@PAX@std@@@std@@@std@@QAEXPAPAU?$_List_node@VError@BWAPI@@PAX@1@@Z 10020cb0 f i BWAPI:Error.obj
 0001:0001fcb0       ?onUnitDestroy@AIModule@BWAPI@@UAEXPAVUnitInterface@2@@Z 10020cb0 f i BWAPI:AIModule.obj
 0001:0001fcb0       ??$destroy@PAU?$_List_node@VExplosionType@BWAPI@@PAX@std@@@?$_Wrap_alloc@V?$allocator@U?$_List_node@VExplosionType@BWAPI@@PAX@std@@@std@@@std@@QAEXPAPAU?$_List_node@VExplosionType@BWAPI@@PAX@1@@Z 10020cb0 f i BWAPI:ExplosionType.obj
 0001:0001fcb0       ?onUnitEvade@AIModule@BWAPI@@UAEXPAVUnitInterface@2@@Z 10020cb0 f i BWAPI:AIModule.obj
 0001:0001fcb0       ?onUnitHide@AIModule@BWAPI@@UAEXPAVUnitInterface@2@@Z 10020cb0 f i BWAPI:AIModule.obj
 0001:0001fcb0       ??$destroy@PAU?$_List_node@VUnitSizeType@BWAPI@@PAX@std@@@?$_Wrap_alloc@V?$allocator@U?$_List_node@VUnitSizeType@BWAPI@@PAX@std@@@std@@@std@@QAEXPAPAU?$_List_node@VUnitSizeType@BWAPI@@PAX@1@@Z 10020cb0 f i BWAPI:UnitSizeType.obj
 0001:0001fcb0       ??$destroy@PAU?$_Tree_node@U?$pair@$$CBV?$basic_string@DU?$char_traits@D@std@@V?$allocator@D@2@@std@@VActionType@BOSS@@@std@@PAX@std@@@?$_Wrap_alloc@V?$allocator@U?$_Tree_node@U?$pair@$$CBV?$basic_string@DU?$char_traits@D@std@@V?$allocator@D@2@@std@@VActionType@BOSS@@@std@@PAX@std@@@std@@@std@@QAEXPAPAU?$_Tree_node@U?$pair@$$CBV?$basic_string@DU?$char_traits@D@std@@V?$allocator@D@2@@std@@VActionType@BOSS@@@std@@PAX@1@@Z 10020cb0 f i BOSS:ActionType.obj
 0001:0001fcb0       ?onUnitDiscover@AIModule@BWAPI@@UAEXPAVUnitInterface@2@@Z 10020cb0 f i BWAPI:AIModule.obj
 0001:0001fcb0       ?onUnitComplete@AIModule@BWAPI@@UAEXPAVUnitInterface@2@@Z 10020cb0 f i BWAPI:AIModule.obj
 0001:0001fcb0       ?onUnitCreate@AIModule@BWAPI@@UAEXPAVUnitInterface@2@@Z 10020cb0 f i BWAPI:AIModule.obj
 0001:0001fcb0       ??$destroy@PAU?$_List_node@VUnitCommandType@BWAPI@@PAX@std@@@?$_Wrap_alloc@V?$allocator@U?$_List_node@VUnitCommandType@BWAPI@@PAX@std@@@std@@@std@@QAEXPAPAU?$_List_node@VUnitCommandType@BWAPI@@PAX@1@@Z 10020cb0 f i BWAPI:UnitCommandType.obj
 0001:0001fcb0       ??$destroy@PAU?$_List_node@VRace@BWAPI@@PAX@std@@@?$_Wrap_alloc@V?$allocator@U?$_List_node@VRace@BWAPI@@PAX@std@@@std@@@std@@QAEXPAPAU?$_List_node@VRace@BWAPI@@PAX@1@@Z 10020cb0 f i BWAPI:Race.obj
 0001:0001fcb0       ??$destroy@PAD@?$_Wrap_alloc@V?$allocator@D@std@@@std@@QAEXPAPAD@Z 10020cb0 f i Base.obj
 0001:0001fcb0       ??$destroy@PAU?$_List_node@VOrder@BWAPI@@PAX@std@@@?$_Wrap_alloc@V?$allocator@U?$_List_node@VOrder@BWAPI@@PAX@std@@@std@@@std@@QAEXPAPAU?$_List_node@VOrder@BWAPI@@PAX@1@@Z 10020cb0 f i BWAPI:Order.obj
 0001:0001fcb0       ?onUnitMorph@AIModule@BWAPI@@UAEXPAVUnitInterface@2@@Z 10020cb0 f i BWAPI:AIModule.obj
 0001:0001fcb0       ?onUnitRenegade@AIModule@BWAPI@@UAEXPAVUnitInterface@2@@Z 10020cb0 f i BWAPI:AIModule.obj
 0001:0001fcb0       ??$destroy@PAU?$_Tree_node@U?$pair@$$CBV?$basic_string@DU?$char_traits@D@std@@V?$allocator@D@2@@std@@VSquad@UAlbertaBot@@@std@@PAX@std@@@?$_Wrap_alloc@V?$allocator@U?$_Tree_node@U?$pair@$$CBV?$basic_string@DU?$char_traits@D@std@@V?$allocator@D@2@@std@@VSquad@UAlbertaBot@@@std@@PAX@std@@@std@@@std@@QAEXPAPAU?$_Tree_node@U?$pair@$$CBV?$basic_string@DU?$char_traits@D@std@@V?$allocator@D@2@@std@@VSquad@UAlbertaBot@@@std@@PAX@1@@Z 10020cb0 f i CombatCommander.obj
 0001:0001fcc0       ??$_Insert@ABQAVUnitInterface@BWAPI@@U_Nil@std@@@?$_Hash@V?$_Uset_traits@PAVUnitInterface@BWAPI@@V?$_Uhash_compare@PAVUnitInterface@BWAPI@@U?$hash@PAX@std@@U?$equal_to@PAVUnitInterface@BWAPI@@@4@@std@@V?$allocator@PAVUnitInterface@BWAPI@@@4@$0A@@std@@@std@@IAE?AU?$pair@V?$_List_const_iterator@V?$_List_val@U?$_List_simple_types@PAVUnitInterface@BWAPI@@@std@@@std@@@std@@_N@1@ABQAVUnitInterface@BWAPI@@U_Nil@1@@Z 10020cc0 f i Base.obj
 0001:0001fdd0       ??$?0V?$allocator@VUnitType@BWAPI@@@std@@@?$_Wrap_alloc@V?$allocator@V?$_List_unchecked_const_iterator@V?$_List_val@U?$_List_simple_types@VUnitType@BWAPI@@@std@@@std@@U_Iterator_base0@2@@std@@@std@@@std@@QAE@ABV?$allocator@VUnitType@BWAPI@@@1@@Z 10020dd0 f i BWAPI:UnitType.obj
 0001:0001fdd0       ??$?0V?$allocator@VUpgradeType@BWAPI@@@std@@@?$_Wrap_alloc@V?$allocator@V?$_List_unchecked_const_iterator@V?$_List_val@U?$_List_simple_types@VUpgradeType@BWAPI@@@std@@@std@@U_Iterator_base0@2@@std@@@std@@@std@@QAE@ABV?$allocator@VUpgradeType@BWAPI@@@1@@Z 10020dd0 f i BWAPI:UnitType.obj
 0001:0001fdd0       ??$?0V?$allocator@PAVUnitInterface@BWAPI@@@std@@@?$_Wrap_alloc@V?$allocator@V?$_List_unchecked_const_iterator@V?$_List_val@U?$_List_simple_types@PAVUnitInterface@BWAPI@@@std@@@std@@U_Iterator_base0@2@@std@@@std@@@std@@QAE@ABV?$allocator@PAVUnitInterface@BWAPI@@@1@@Z 10020dd0 f i Base.obj
 0001:0001fdd0       ??$?0V?$allocator@VTechType@BWAPI@@@std@@@?$_Wrap_alloc@V?$allocator@V?$_List_unchecked_const_iterator@V?$_List_val@U?$_List_simple_types@VTechType@BWAPI@@@std@@@std@@U_Iterator_base0@2@@std@@@std@@@std@@QAE@ABV?$allocator@VTechType@BWAPI@@@1@@Z 10020dd0 f i BWAPI:UnitType.obj
 0001:0001fdd0       ??$?0V?$allocator@VWeaponType@BWAPI@@@std@@@?$_Wrap_alloc@V?$allocator@V?$_List_unchecked_const_iterator@V?$_List_val@U?$_List_simple_types@VWeaponType@BWAPI@@@std@@@std@@U_Iterator_base0@2@@std@@@std@@@std@@QAE@ABV?$allocator@VWeaponType@BWAPI@@@1@@Z 10020dd0 f i BWAPI:WeaponType.obj
 0001:0001fde0       ??$fill@PAV?$_List_unchecked_const_iterator@V?$_List_val@U?$_List_simple_types@PAVUnitInterface@BWAPI@@@std@@@std@@U_Iterator_base0@2@@std@@V12@@std@@YAXPAV?$_List_unchecked_const_iterator@V?$_List_val@U?$_List_simple_types@PAVUnitInterface@BWAPI@@@std@@@std@@U_Iterator_base0@2@@0@0ABV10@@Z 10020de0 f i Base.obj
 0001:0001fe60       ?_Check_size@?$_Hash@V?$_Uset_traits@PAVUnitInterface@BWAPI@@V?$_Uhash_compare@PAVUnitInterface@BWAPI@@U?$hash@PAX@std@@U?$equal_to@PAVUnitInterface@BWAPI@@@4@@std@@V?$allocator@PAVUnitInterface@BWAPI@@@4@$0A@@std@@@std@@IAEXXZ 10020e60 f i Base.obj
 0001:0001ff20       ??$_Uninit_fill_n@PAV?$_List_unchecked_const_iterator@V?$_List_val@U?$_List_simple_types@PAVUnitInterface@BWAPI@@@std@@@std@@U_Iterator_base0@2@@std@@IV12@U?$_Wrap_alloc@V?$allocator@V?$_List_unchecked_const_iterator@V?$_List_val@U?$_List_simple_types@PAVUnitInterface@BWAPI@@@std@@@std@@U_Iterator_base0@2@@std@@@std@@@2@V12@@std@@YAXPAV?$_List_unchecked_const_iterator@V?$_List_val@U?$_List_simple_types@PAVUnitInterface@BWAPI@@@std@@@std@@U_Iterator_base0@2@@0@IPBV10@AAU?$_Wrap_alloc@U?$_Wrap_alloc@V?$allocator@V?$_List_unchecked_const_iterator@V?$_List_val@U?$_List_simple_types@PAVUnitInterface@BWAPI@@@std@@@std@@U_Iterator_base0@2@@std@@@std@@@std@@@0@0U_Nonscalar_ptr_iterator_tag@0@@Z 10020f20 f i Base.obj
 0001:0001ff50       ??$_Insert@ABQAVUnitInterface@BWAPI@@V?$_List_unchecked_const_iterator@V?$_List_val@U?$_List_simple_types@PAVUnitInterface@BWAPI@@@std@@@std@@U_Iterator_base0@2@@std@@@?$_Hash@V?$_Uset_traits@PAVUnitInterface@BWAPI@@V?$_Uhash_compare@PAVUnitInterface@BWAPI@@U?$hash@PAX@std@@U?$equal_to@PAVUnitInterface@BWAPI@@@4@@std@@V?$allocator@PAVUnitInterface@BWAPI@@@4@$0A@@std@@@std@@IAE?AU?$pair@V?$_List_const_iterator@V?$_List_val@U?$_List_simple_types@PAVUnitInterface@BWAPI@@@std@@@std@@@std@@_N@1@ABQAVUnitInterface@BWAPI@@V?$_List_unchecked_const_iterator@V?$_List_val@U?$_List_simple_types@PAVUnitInterface@BWAPI@@@std@@@std@@U_Iterator_base0@2@@1@@Z 10020f50 f i Base.obj
 0001:00020040       ??$destroy@V?$vector@GV?$allocator@G@std@@@std@@@?$_Wrap_alloc@V?$allocator@V?$vector@GV?$allocator@G@std@@@std@@@std@@@std@@QAEXPAV?$vector@GV?$allocator@G@std@@@1@@Z 10021040 f i MapPartitions.obj
 0001:00020040       ??$destroy@V?$vector@FV?$allocator@F@std@@@std@@@?$_Wrap_alloc@V?$allocator@V?$vector@FV?$allocator@F@std@@@std@@@std@@@std@@QAEXPAV?$vector@FV?$allocator@F@std@@@1@@Z 10021040 f i Base.obj
 0001:00020070       ??$_Uninit_move@PAV?$_List_unchecked_const_iterator@V?$_List_val@U?$_List_simple_types@PAVUnitInterface@BWAPI@@@std@@@std@@U_Iterator_base0@2@@std@@PAV12@U?$_Wrap_alloc@V?$allocator@V?$_List_unchecked_const_iterator@V?$_List_val@U?$_List_simple_types@PAVUnitInterface@BWAPI@@@std@@@std@@U_Iterator_base0@2@@std@@@std@@@2@V12@@std@@YAPAV?$_List_unchecked_const_iterator@V?$_List_val@U?$_List_simple_types@PAVUnitInterface@BWAPI@@@std@@@std@@U_Iterator_base0@2@@0@PAV10@00AAU?$_Wrap_alloc@U?$_Wrap_alloc@V?$allocator@V?$_List_unchecked_const_iterator@V?$_List_val@U?$_List_simple_types@PAVUnitInterface@BWAPI@@@std@@@std@@U_Iterator_base0@2@@std@@@std@@@std@@@0@0U_Nonscalar_ptr_iterator_tag@0@@Z 10021070 f i Base.obj
 0001:00020070       ??$_Uninit_move@PAVUnitType@BWAPI@@PAV12@V?$allocator@VUnitType@BWAPI@@@std@@V12@@std@@YAPAVUnitType@BWAPI@@PAV12@00AAU?$_Wrap_alloc@V?$allocator@VUnitType@BWAPI@@@std@@@0@0U_Nonscalar_ptr_iterator_tag@0@@Z 10021070 f i BuildingManager.obj
 0001:000200b0       ??$_Buynode@ABW4MacroCommandType@UAlbertaBot@@@?$_List_buy@W4MacroCommandType@UAlbertaBot@@V?$allocator@W4MacroCommandType@UAlbertaBot@@@std@@@std@@QAEPAU?$_List_node@W4MacroCommandType@UAlbertaBot@@PAX@1@PAU21@0ABW4MacroCommandType@UAlbertaBot@@@Z 100210b0 f i MacroAct.obj
 0001:000200b0       ??$_Buynode@ABQAVUnitInterface@BWAPI@@@?$_List_buy@PAVUnitInterface@BWAPI@@V?$allocator@PAVUnitInterface@BWAPI@@@std@@@std@@QAEPAU?$_List_node@PAVUnitInterface@BWAPI@@PAX@1@PAU21@0ABQAVUnitInterface@BWAPI@@@Z 100210b0 f i Base.obj
 0001:000200d0       ?_Copy@?$_Func_impl@U?$_Callable_obj@V<lambda_86a23b8b9e9158d3db1e219e96257edf>@@$0A@@std@@V?$allocator@V?$_Func_class@_NPAVUnitInterface@BWAPI@@@std@@@2@_NPAVUnitInterface@BWAPI@@@std@@UAEPAV?$_Func_base@_NPAVUnitInterface@BWAPI@@@2@PAX@Z 100210d0 f i Base.obj
 0001:000200d0       ?_Move@?$_Func_impl@U?$_Callable_obj@V<lambda_86a23b8b9e9158d3db1e219e96257edf>@@$0A@@std@@V?$allocator@V?$_Func_class@_NPAVUnitInterface@BWAPI@@@std@@@2@_NPAVUnitInterface@BWAPI@@@std@@UAEPAV?$_Func_base@_NPAVUnitInterface@BWAPI@@@2@PAX@Z 100210d0 f i Base.obj
 0001:00020110       ?_Do_call@?$_Func_impl@U?$_Callable_obj@V<lambda_86a23b8b9e9158d3db1e219e96257edf>@@$0A@@std@@V?$allocator@V?$_Func_class@_NPAVUnitInterface@BWAPI@@@std@@@2@_NPAVUnitInterface@BWAPI@@@std@@UAE_N$$QAPAVUnitInterface@BWAPI@@@Z 10021110 f i Base.obj
 0001:00020110       ?_Do_call@?$_Func_impl@U?$_Callable_obj@V<lambda_3d302a1317419cd92892c19f4249dbfc>@@$0A@@std@@V?$allocator@V?$_Func_class@_NPAVUnitInterface@BWAPI@@@std@@@2@_NPAVUnitInterface@BWAPI@@@std@@UAE_N$$QAPAVUnitInterface@BWAPI@@@Z 10021110 f i MicroManager.obj
 0001:00020140       ?_Target_type@?$_Func_impl@U?$_Callable_obj@V<lambda_86a23b8b9e9158d3db1e219e96257edf>@@$0A@@std@@V?$allocator@V?$_Func_class@_NPAVUnitInterface@BWAPI@@@std@@@2@_NPAVUnitInterface@BWAPI@@@std@@UBEABVtype_info@@XZ 10021140 f i Base.obj
 0001:00020150       ??$end@$$CBH$00@std@@YAPBHAAY00$$CBH@Z 10021150 f i BWAPI:UnitType.obj
 0001:00020150       ?_Get@?$_Func_impl@U?$_Callable_obj@V?$UnaryFilter@PAVUnitInterface@BWAPI@@P6A_NPAV12@@Z@BWAPI@@$0A@@std@@V?$allocator@V?$_Func_class@_NPAVUnitInterface@BWAPI@@@std@@@2@_NPAVUnitInterface@BWAPI@@@std@@EBEPBXXZ 10021150 f i CombatCommander.obj
 0001:00020150       ?_Get@?$_Func_impl@U?$_Callable_obj@V<lambda_c1e349560a5f92f063e637d97da5c54a>@@$0A@@std@@V?$allocator@V?$_Func_class@_NPAVUnitInterface@BWAPI@@@std@@@2@_NPAVUnitInterface@BWAPI@@@std@@EBEPBXXZ 10021150 f i MicroDefilers.obj
 0001:00020150       ?_Get@?$_Func_impl@U?$_Callable_obj@V<lambda_11f9d97fd03d656412f8c4abae38644e>@@$0A@@std@@V?$allocator@V?$_Func_class@_NPAVUnitInterface@BWAPI@@@std@@@2@_NPAVUnitInterface@BWAPI@@@std@@EBEPBXXZ 10021150 f i BWAPI:Game.obj
 0001:00020150       ?_Get@?$_Func_impl@U?$_Callable_obj@V<lambda_b62a7bf29e97477c46a7925ecfd8ccbf>@@$0A@@std@@V?$allocator@V?$_Func_class@_NPAVUnitInterface@BWAPI@@@std@@@2@_NPAVUnitInterface@BWAPI@@@std@@EBEPBXXZ 10021150 f i MicroManager.obj
 0001:00020150       ?_Get@?$_Func_impl@U?$_Callable_obj@V<lambda_638d105fc3795c3124a81ff5819a2f55>@@$0A@@std@@V?$allocator@V?$_Func_class@_NPAVUnitInterface@BWAPI@@@std@@@2@_NPAVUnitInterface@BWAPI@@@std@@EBEPBXXZ 10021150 f i BWAPI:Game.obj
 0001:00020150       ?_Get@?$_Func_impl@U?$_Callable_obj@V<lambda_c951ba86f2b730e911551f8179284141>@@$0A@@std@@V?$allocator@V?$_Func_class@_NPAVUnitInterface@BWAPI@@@std@@@2@_NPAVUnitInterface@BWAPI@@@std@@EBEPBXXZ 10021150 f i MicroManager.obj
 0001:00020150       ?_Get@?$_Func_impl@U?$_Callable_obj@V<lambda_3d302a1317419cd92892c19f4249dbfc>@@$0A@@std@@V?$allocator@V?$_Func_class@_NPAVUnitInterface@BWAPI@@@std@@@2@_NPAVUnitInterface@BWAPI@@@std@@EBEPBXXZ 10021150 f i MicroManager.obj
 0001:00020150       ?_Get@?$_Func_impl@U?$_Callable_obj@V<lambda_86a23b8b9e9158d3db1e219e96257edf>@@$0A@@std@@V?$allocator@V?$_Func_class@_NPAVUnitInterface@BWAPI@@@std@@@2@_NPAVUnitInterface@BWAPI@@@std@@EBEPBXXZ 10021150 f i Base.obj
 0001:00020160       ?_Delete_this@?$_Func_impl@U?$_Callable_obj@V<lambda_c951ba86f2b730e911551f8179284141>@@$0A@@std@@V?$allocator@V?$_Func_class@_NPAVUnitInterface@BWAPI@@@std@@@2@_NPAVUnitInterface@BWAPI@@@std@@EAEX_N@Z 10021160 f i MicroManager.obj
 0001:00020160       ?_Delete_this@?$_Func_impl@U?$_Callable_obj@V<lambda_aba4f7dd9ba17059b8de52b74f35f28e>@@$0A@@std@@V?$allocator@V?$_Func_class@_NPAVUnitInterface@BWAPI@@@std@@@2@_NPAVUnitInterface@BWAPI@@@std@@EAEX_N@Z 10021160 f i CombatCommander.obj
 0001:00020160       ?_Delete_this@?$_Func_impl@U?$_Callable_obj@V<lambda_3d302a1317419cd92892c19f4249dbfc>@@$0A@@std@@V?$allocator@V?$_Func_class@_NPAVUnitInterface@BWAPI@@@std@@@2@_NPAVUnitInterface@BWAPI@@@std@@EAEX_N@Z 10021160 f i MicroManager.obj
 0001:00020160       ?_Delete_this@?$_Func_impl@U?$_Callable_obj@V<lambda_86a23b8b9e9158d3db1e219e96257edf>@@$0A@@std@@V?$allocator@V?$_Func_class@_NPAVUnitInterface@BWAPI@@@std@@@2@_NPAVUnitInterface@BWAPI@@@std@@EAEX_N@Z 10021160 f i Base.obj
 0001:00020160       ?_Delete_this@?$_Func_impl@U?$_Callable_obj@V<lambda_d453f4193ca7d2581c13279844baec8c>@@$0A@@std@@V?$allocator@V?$_Func_class@_NPAVUnitInterface@BWAPI@@@std@@@2@_NPAVUnitInterface@BWAPI@@@std@@EAEX_N@Z 10021160 f i Micro.obj
 0001:00020160       ?_Delete_this@?$_Func_impl@U?$_Callable_obj@V<lambda_72374808bbce56bd06d43e686f86eac2>@@$0A@@std@@V?$allocator@V?$_Func_class@_NPAVUnitInterface@BWAPI@@@std@@@2@_NPAVUnitInterface@BWAPI@@@std@@EAEX_N@Z 10021160 f i Base.obj
 0001:00020160       ?_Delete_this@?$_Func_impl@U?$_Callable_obj@V<lambda_b62a7bf29e97477c46a7925ecfd8ccbf>@@$0A@@std@@V?$allocator@V?$_Func_class@_NPAVUnitInterface@BWAPI@@@std@@@2@_NPAVUnitInterface@BWAPI@@@std@@EAEX_N@Z 10021160 f i MicroManager.obj
 0001:00020160       ?_Delete_this@?$_Func_impl@U?$_Callable_obj@V<lambda_c1e349560a5f92f063e637d97da5c54a>@@$0A@@std@@V?$allocator@V?$_Func_class@_NPAVUnitInterface@BWAPI@@@std@@@2@_NPAVUnitInterface@BWAPI@@@std@@EAEX_N@Z 10021160 f i MicroDefilers.obj
 0001:00020160       ?_Delete_this@?$_Func_impl@U?$_Callable_obj@V?$UnaryFilter@PAVUnitInterface@BWAPI@@P6A_NPAV12@@Z@BWAPI@@$0A@@std@@V?$allocator@V?$_Func_class@_NPAVUnitInterface@BWAPI@@@std@@@2@_NPAVUnitInterface@BWAPI@@@std@@EAEX_N@Z 10021160 f i CombatCommander.obj
 0001:00020190       ?_Move@?$_Func_impl@U?$_Callable_obj@V<lambda_72374808bbce56bd06d43e686f86eac2>@@$0A@@std@@V?$allocator@V?$_Func_class@_NPAVUnitInterface@BWAPI@@@std@@@2@_NPAVUnitInterface@BWAPI@@@std@@UAEPAV?$_Func_base@_NPAVUnitInterface@BWAPI@@@2@PAX@Z 10021190 f i Base.obj
 0001:00020190       ?_Copy@?$_Func_impl@U?$_Callable_obj@V<lambda_72374808bbce56bd06d43e686f86eac2>@@$0A@@std@@V?$allocator@V?$_Func_class@_NPAVUnitInterface@BWAPI@@@std@@@2@_NPAVUnitInterface@BWAPI@@@std@@UAEPAV?$_Func_base@_NPAVUnitInterface@BWAPI@@@2@PAX@Z 10021190 f i Base.obj
 0001:00020240       ?_Do_call@?$_Func_impl@U?$_Callable_obj@V<lambda_72374808bbce56bd06d43e686f86eac2>@@$0A@@std@@V?$allocator@V?$_Func_class@_NPAVUnitInterface@BWAPI@@@std@@@2@_NPAVUnitInterface@BWAPI@@@std@@UAE_N$$QAPAVUnitInterface@BWAPI@@@Z 10021240 f i Base.obj
 0001:00020290       ?_Target_type@?$_Func_impl@U?$_Callable_obj@V<lambda_72374808bbce56bd06d43e686f86eac2>@@$0A@@std@@V?$allocator@V?$_Func_class@_NPAVUnitInterface@BWAPI@@@std@@@2@_NPAVUnitInterface@BWAPI@@@std@@UBEABVtype_info@@XZ 10021290 f i Base.obj
 0001:000202a0       ?_Get@?$_Func_impl@U?$_Callable_obj@V<lambda_d453f4193ca7d2581c13279844baec8c>@@$0A@@std@@V?$allocator@V?$_Func_class@_NPAVUnitInterface@BWAPI@@@std@@@2@_NPAVUnitInterface@BWAPI@@@std@@EBEPBXXZ 100212a0 f i Micro.obj
 0001:000202a0       ??$end@$$CBH$01@std@@YAPBHAAY01$$CBH@Z 100212a0 f i BWAPI:UnitType.obj
 0001:000202a0       ?_Get@?$_Func_impl@U?$_Callable_obj@V<lambda_72374808bbce56bd06d43e686f86eac2>@@$0A@@std@@V?$allocator@V?$_Func_class@_NPAVUnitInterface@BWAPI@@@std@@@2@_NPAVUnitInterface@BWAPI@@@std@@EBEPBXXZ 100212a0 f i Base.obj
 0001:000202a0       ?_Get@?$_Func_impl@U?$_Callable_obj@V<lambda_aba4f7dd9ba17059b8de52b74f35f28e>@@$0A@@std@@V?$allocator@V?$_Func_class@_NPAVUnitInterface@BWAPI@@@std@@@2@_NPAVUnitInterface@BWAPI@@@std@@EBEPBXXZ 100212a0 f i CombatCommander.obj
 0001:000202b0       ??_G?$_Func_impl@U?$_Callable_obj@V<lambda_72374808bbce56bd06d43e686f86eac2>@@$0A@@std@@V?$allocator@V?$_Func_class@_NPAVUnitInterface@BWAPI@@@std@@@2@_NPAVUnitInterface@BWAPI@@@std@@UAEPAXI@Z 100212b0 f i Base.obj
 0001:000202b0       ??_E?$_Func_impl@U?$_Callable_obj@V<lambda_72374808bbce56bd06d43e686f86eac2>@@$0A@@std@@V?$allocator@V?$_Func_class@_NPAVUnitInterface@BWAPI@@@std@@@2@_NPAVUnitInterface@BWAPI@@@std@@UAEPAXI@Z 100212b0 f i * CIL library *:* CIL module *
 0001:00020320       ??$?0ABV<lambda_72374808bbce56bd06d43e686f86eac2>@@@?$_Func_impl@U?$_Callable_obj@V<lambda_72374808bbce56bd06d43e686f86eac2>@@$0A@@std@@V?$allocator@V?$_Func_class@_NPAVUnitInterface@BWAPI@@@std@@@2@_NPAVUnitInterface@BWAPI@@@std@@QAE@ABV<lambda_72374808bbce56bd06d43e686f86eac2>@@ABV?$allocator@V?$_Func_impl@U?$_Callable_obj@V<lambda_72374808bbce56bd06d43e686f86eac2>@@$0A@@std@@V?$allocator@V?$_Func_class@_NPAVUnitInterface@BWAPI@@@std@@@2@_NPAVUnitInterface@BWAPI@@@std@@@1@@Z 10021320 f i Base.obj
 0001:000203b0       ??0Bases@UAlbertaBot@@AAE@XZ 100213b0 f   Bases.obj
 0001:00020500       ?checkIslandMap@Bases@UAlbertaBot@@ABE_NXZ 10021500 f   Bases.obj
 0001:00020670       ?rememberBaseBlockers@Bases@UAlbertaBot@@AAEXXZ 10021670 f   Bases.obj
 0001:00020700       ?setNaturalBase@Bases@UAlbertaBot@@AAEXXZ 10021700 f   Bases.obj
 0001:00020850       ?removeUsedResources@Bases@UAlbertaBot@@ABEXAAVUnitset@BWAPI@@PBVBase@2@@Z 10021850 f   Bases.obj
 0001:00020910       ?findBasePosition@Bases@UAlbertaBot@@AAE?AV?$Point@H$0CA@@BWAPI@@VUnitset@4@@Z 10021910 f   Bases.obj
 0001:00020d00       ??0Unitset@BWAPI@@QAE@ABV01@@Z 10021d00 f i Bases.obj
 0001:00020d90       ?baseLocationScore@Bases@UAlbertaBot@@ABEHABV?$Point@H$0CA@@BWAPI@@VUnitset@4@@Z 10021d90 f   Bases.obj
 0001:00020f20       ?inferEnemyBaseFromOverlord@Bases@UAlbertaBot@@AAE_NXZ 10021f20 f   Bases.obj
 0001:00021140       ?updateEnemyStart@Bases@UAlbertaBot@@AAEXXZ 10022140 f   Bases.obj
 0001:00021310       ?updateBaseOwners@Bases@UAlbertaBot@@AAEXXZ 10022310 f   Bases.obj
 0001:00021500       ?updateMainBase@Bases@UAlbertaBot@@AAEXXZ 10022500 f   Bases.obj
 0001:00021620       ?initialize@Bases@UAlbertaBot@@QAEXXZ 10022620 f   Bases.obj
 0001:00022410       ?checkBuildingPosition@Bases@UAlbertaBot@@QAEXABV?$Point@H$0CA@@BWAPI@@0@Z 10023410 f   Bases.obj
 0001:000225a0       ?drawBaseInfo@Bases@UAlbertaBot@@QBEXXZ 100235a0 f   Bases.obj
 0001:000227e0       ?drawBaseOwnership@Bases@UAlbertaBot@@QBEXHH@Z 100237e0 f   Bases.obj
 0001:00022960       ?frontBase@Bases@UAlbertaBot@@QBEPAVBase@2@XZ 10023960 f   Bases.obj
 0001:00022a20       ?frontPoint@Bases@UAlbertaBot@@QBE?AV?$Point@H$0CA@@BWAPI@@XZ 10023a20 f   Bases.obj
 0001:00022b90       ?connectedToStart@Bases@UAlbertaBot@@QBE_NABV?$Point@H$0CA@@BWAPI@@@Z 10023b90 f   Bases.obj
 0001:00022c60       ?getBaseAtTilePosition@Bases@UAlbertaBot@@QAEPAVBase@2@V?$Point@H$0CA@@BWAPI@@@Z 10023c60 f   Bases.obj
 0001:00022cb0       ?baseCount@Bases@UAlbertaBot@@QBEHPAVPlayerInterface@BWAPI@@@Z 10023cb0 f   Bases.obj
 0001:00022d00       ?completedBaseCount@Bases@UAlbertaBot@@QBEHPAVPlayerInterface@BWAPI@@@Z 10023d00 f   Bases.obj
 0001:00022de0       ?freeLandBaseCount@Bases@UAlbertaBot@@QBEHXZ 10023de0 f   Bases.obj
 0001:00022e70       ?mineralPatchCount@Bases@UAlbertaBot@@QBEHXZ 10023e70 f   Bases.obj
 0001:00022ef0       ?gasCounts@Bases@UAlbertaBot@@QBEXAAH0@Z 10023ef0 f   Bases.obj
 0001:00023080       ?getEnemyProxy@Bases@UAlbertaBot@@QBE_NXZ 10024080 f   Bases.obj
 0001:000232f0       ?clearNeutral@Bases@UAlbertaBot@@QAEXPAVUnitInterface@BWAPI@@@Z 100242f0 f   Bases.obj
 0001:00023380       ?Instance@Bases@UAlbertaBot@@SAAAV12@XZ 10024380 f   Bases.obj
 0001:000233e0       ??1Bases@UAlbertaBot@@QAE@XZ 100243e0 f i Bases.obj
 0001:00023510       ?getDistance@?$Point@H$00@BWAPI@@QBENABV12@@Z 10024510 f i Bases.obj
 0001:00023550       ?getApproxDistance@?$Point@H$00@BWAPI@@QBEHABV12@@Z 10024550 f i Bases.obj
 0001:000235b0       ?push_back@?$vector@PAVUnitInterface@BWAPI@@V?$allocator@PAVUnitInterface@BWAPI@@@std@@@std@@QAEXABQAVUnitInterface@BWAPI@@@Z 100245b0 f i Bases.obj
 0001:000235b0       ?push_back@?$vector@PAVZone@UAlbertaBot@@V?$allocator@PAVZone@UAlbertaBot@@@std@@@std@@QAEX$$QAPAVZone@UAlbertaBot@@@Z 100245b0 f i GridZone.obj
 0001:000235b0       ?push_back@?$vector@PAUGameSnapshot@UAlbertaBot@@V?$allocator@PAUGameSnapshot@UAlbertaBot@@@std@@@std@@QAEX$$QAPAUGameSnapshot@UAlbertaBot@@@Z 100245b0 f i GameRecord.obj
 0001:000235b0       ?push_back@?$vector@HV?$allocator@H@std@@@std@@QAEXABH@Z 100245b0 f i ParseUtils.obj
 0001:000235b0       ?push_back@?$vector@PAUGameSnapshot@UAlbertaBot@@V?$allocator@PAUGameSnapshot@UAlbertaBot@@@std@@@std@@QAEXABQAUGameSnapshot@UAlbertaBot@@@Z 100245b0 f i GameRecord.obj
 0001:00023620       ??A?$map@PAVBase@UAlbertaBot@@PAVUnitInterface@BWAPI@@U?$less@PAVBase@UAlbertaBot@@@std@@V?$allocator@U?$pair@QAVBase@UAlbertaBot@@PAVUnitInterface@BWAPI@@@std@@@6@@std@@QAEAAPAVUnitInterface@BWAPI@@ABQAVBase@UAlbertaBot@@@Z 10024620 f i MicroOverlords.obj
 0001:00023620       ??A?$map@PAVUnitInterface@BWAPI@@HU?$less@PAVUnitInterface@BWAPI@@@std@@V?$allocator@U?$pair@QAVUnitInterface@BWAPI@@H@std@@@4@@std@@QAEAAHABQAVUnitInterface@BWAPI@@@Z 10024620 f i WorkerData.obj
 0001:00023620       ??A?$map@PAVUnitInterface@BWAPI@@PAVBase@UAlbertaBot@@U?$less@PAVUnitInterface@BWAPI@@@std@@V?$allocator@U?$pair@QAVUnitInterface@BWAPI@@PAVBase@UAlbertaBot@@@std@@@6@@std@@QAEAAPAVBase@UAlbertaBot@@ABQAVUnitInterface@BWAPI@@@Z 10024620 f i Bases.obj
 0001:00023620       ??A?$map@PAVUnitInterface@BWAPI@@W4WorkerJob@WorkerData@UAlbertaBot@@U?$less@PAVUnitInterface@BWAPI@@@std@@V?$allocator@U?$pair@QAVUnitInterface@BWAPI@@W4WorkerJob@WorkerData@UAlbertaBot@@@std@@@7@@std@@QAEAAW4WorkerJob@WorkerData@UAlbertaBot@@ABQAVUnitInterface@BWAPI@@@Z 10024620 f i WorkerData.obj
 0001:00023620       ??A?$map@PAVUnitInterface@BWAPI@@PAV12@U?$less@PAVUnitInterface@BWAPI@@@std@@V?$allocator@U?$pair@QAVUnitInterface@BWAPI@@PAV12@@std@@@4@@std@@QAEAAPAVUnitInterface@BWAPI@@ABQAV23@@Z 10024620 f i WorkerData.obj
 0001:000236a0       ?erase@?$_Tree@V?$_Tmap_traits@PAVUnitInterface@BWAPI@@VMicroState@UAlbertaBot@@U?$less@PAVUnitInterface@BWAPI@@@std@@V?$allocator@U?$pair@QAVUnitInterface@BWAPI@@VMicroState@UAlbertaBot@@@std@@@6@$0A@@std@@@std@@QAE?AV?$_Tree_iterator@V?$_Tree_val@U?$_Tree_simple_types@U?$pair@QAVUnitInterface@BWAPI@@VMicroState@UAlbertaBot@@@std@@@std@@@std@@@2@V?$_Tree_const_iterator@V?$_Tree_val@U?$_Tree_simple_types@U?$pair@QAVUnitInterface@BWAPI@@VMicroState@UAlbertaBot@@@std@@@std@@@std@@@2@@Z 100246a0 f i Micro.obj
 0001:000236a0       ?erase@?$_Tree@V?$_Tmap_traits@PAVUnitInterface@BWAPI@@_NU?$less@PAVUnitInterface@BWAPI@@@std@@V?$allocator@U?$pair@QAVUnitInterface@BWAPI@@_N@std@@@4@$0A@@std@@@std@@QAE?AV?$_Tree_iterator@V?$_Tree_val@U?$_Tree_simple_types@U?$pair@QAVUnitInterface@BWAPI@@_N@std@@@std@@@std@@@2@V?$_Tree_const_iterator@V?$_Tree_val@U?$_Tree_simple_types@U?$pair@QAVUnitInterface@BWAPI@@_N@std@@@std@@@std@@@2@@Z 100246a0 f i Squad.obj
 0001:000236a0       ?erase@?$_Tree@V?$_Tset_traits@PAVZone@UAlbertaBot@@U?$less@PAVZone@UAlbertaBot@@@std@@V?$allocator@PAVZone@UAlbertaBot@@@4@$0A@@std@@@std@@QAE?AV?$_Tree_const_iterator@V?$_Tree_val@U?$_Tree_simple_types@PAVZone@UAlbertaBot@@@std@@@std@@@2@V32@@Z 100246a0 f i GridZone.obj
 0001:000236a0       ?erase@?$_Tree@V?$_Tset_traits@W4OpeningPlan@UAlbertaBot@@U?$less@W4OpeningPlan@UAlbertaBot@@@std@@V?$allocator@W4OpeningPlan@UAlbertaBot@@@4@$0A@@std@@@std@@QAE?AV?$_Tree_const_iterator@V?$_Tree_val@U?$_Tree_simple_types@W4OpeningPlan@UAlbertaBot@@@std@@@std@@@2@V32@@Z 100246a0 f i OpponentModel.obj
 0001:000236a0       ?erase@?$_Tree@V?$_Tmap_traits@PAVUnitInterface@BWAPI@@PAVBase@UAlbertaBot@@U?$less@PAVUnitInterface@BWAPI@@@std@@V?$allocator@U?$pair@QAVUnitInterface@BWAPI@@PAVBase@UAlbertaBot@@@std@@@6@$0A@@std@@@std@@QAE?AV?$_Tree_iterator@V?$_Tree_val@U?$_Tree_simple_types@U?$pair@QAVUnitInterface@BWAPI@@PAVBase@UAlbertaBot@@@std@@@std@@@std@@@2@V?$_Tree_const_iterator@V?$_Tree_val@U?$_Tree_simple_types@U?$pair@QAVUnitInterface@BWAPI@@PAVBase@UAlbertaBot@@@std@@@std@@@std@@@2@@Z 100246a0 f i Bases.obj
 0001:000236a0       ?erase@?$_Tree@V?$_Tmap_traits@PAVUnitInterface@BWAPI@@HU?$less@PAVUnitInterface@BWAPI@@@std@@V?$allocator@U?$pair@QAVUnitInterface@BWAPI@@H@std@@@4@$0A@@std@@@std@@QAE?AV?$_Tree_iterator@V?$_Tree_val@U?$_Tree_simple_types@U?$pair@QAVUnitInterface@BWAPI@@H@std@@@std@@@std@@@2@V?$_Tree_const_iterator@V?$_Tree_val@U?$_Tree_simple_types@U?$pair@QAVUnitInterface@BWAPI@@H@std@@@std@@@std@@@2@@Z 100246a0 f i WorkerData.obj
 0001:000236a0       ?erase@?$_Tree@V?$_Tmap_traits@PAVBase@UAlbertaBot@@PAVUnitInterface@BWAPI@@U?$less@PAVBase@UAlbertaBot@@@std@@V?$allocator@U?$pair@QAVBase@UAlbertaBot@@PAVUnitInterface@BWAPI@@@std@@@6@$0A@@std@@@std@@QAE?AV?$_Tree_iterator@V?$_Tree_val@U?$_Tree_simple_types@U?$pair@QAVBase@UAlbertaBot@@PAVUnitInterface@BWAPI@@@std@@@std@@@std@@@2@V?$_Tree_const_iterator@V?$_Tree_val@U?$_Tree_simple_types@U?$pair@QAVBase@UAlbertaBot@@PAVUnitInterface@BWAPI@@@std@@@std@@@std@@@2@@Z 100246a0 f i MicroOverlords.obj
 0001:000236a0       ?erase@?$_Tree@V?$_Tset_traits@PAVBase@UAlbertaBot@@U?$less@PAVBase@UAlbertaBot@@@std@@V?$allocator@PAVBase@UAlbertaBot@@@4@$0A@@std@@@std@@QAE?AV?$_Tree_const_iterator@V?$_Tree_val@U?$_Tree_simple_types@PAVBase@UAlbertaBot@@@std@@@std@@@2@V32@@Z 100246a0 f i MicroOverlords.obj
 0001:000236a0       ?erase@?$_Tree@V?$_Tmap_traits@PAVUnitInterface@BWAPI@@VUnitType@2@U?$less@PAVUnitInterface@BWAPI@@@std@@V?$allocator@U?$pair@QAVUnitInterface@BWAPI@@VUnitType@2@@std@@@5@$0A@@std@@@std@@QAE?AV?$_Tree_iterator@V?$_Tree_val@U?$_Tree_simple_types@U?$pair@QAVUnitInterface@BWAPI@@VUnitType@2@@std@@@std@@@std@@@2@V?$_Tree_const_iterator@V?$_Tree_val@U?$_Tree_simple_types@U?$pair@QAVUnitInterface@BWAPI@@VUnitType@2@@std@@@std@@@std@@@2@@Z 100246a0 f i WorkerData.obj
 0001:000236a0       ?erase@?$_Tree@V?$_Tmap_traits@PAVUnitInterface@BWAPI@@W4WorkerJob@WorkerData@UAlbertaBot@@U?$less@PAVUnitInterface@BWAPI@@@std@@V?$allocator@U?$pair@QAVUnitInterface@BWAPI@@W4WorkerJob@WorkerData@UAlbertaBot@@@std@@@7@$0A@@std@@@std@@QAE?AV?$_Tree_iterator@V?$_Tree_val@U?$_Tree_simple_types@U?$pair@QAVUnitInterface@BWAPI@@W4WorkerJob@WorkerData@UAlbertaBot@@@std@@@std@@@std@@@2@V?$_Tree_const_iterator@V?$_Tree_val@U?$_Tree_simple_types@U?$pair@QAVUnitInterface@BWAPI@@W4WorkerJob@WorkerData@UAlbertaBot@@@std@@@std@@@std@@@2@@Z 100246a0 f i WorkerData.obj
 0001:000236a0       ?erase@?$_Tree@V?$_Tset_traits@PBVZone@UAlbertaBot@@U?$less@PBVZone@UAlbertaBot@@@std@@V?$allocator@PBVZone@UAlbertaBot@@@4@$0A@@std@@@std@@QAE?AV?$_Tree_const_iterator@V?$_Tree_val@U?$_Tree_simple_types@PBVZone@UAlbertaBot@@@std@@@std@@@2@V32@@Z 100246a0 f i InformationManager.obj
 0001:000236a0       ?erase@?$_Tree@V?$_Tmap_traits@VUnitType@BWAPI@@HU?$less@VUnitType@BWAPI@@@std@@V?$allocator@U?$pair@$$CBVUnitType@BWAPI@@H@std@@@4@$0A@@std@@@std@@QAE?AV?$_Tree_iterator@V?$_Tree_val@U?$_Tree_simple_types@U?$pair@$$CBVUnitType@BWAPI@@H@std@@@std@@@std@@@2@V?$_Tree_const_iterator@V?$_Tree_val@U?$_Tree_simple_types@U?$pair@$$CBVUnitType@BWAPI@@H@std@@@std@@@std@@@2@@Z 100246a0 f i GameRecord.obj
 0001:000236a0       ?erase@?$_Tree@V?$_Tset_traits@VUnitType@BWAPI@@U?$less@VUnitType@BWAPI@@@std@@V?$allocator@VUnitType@BWAPI@@@4@$0A@@std@@@std@@QAE?AV?$_Tree_const_iterator@V?$_Tree_val@U?$_Tree_simple_types@VUnitType@BWAPI@@@std@@@std@@@2@V32@@Z 100246a0 f i MacroAct.obj
 0001:000236a0       ?erase@?$_Tree@V?$_Tmap_traits@PAVUnitInterface@BWAPI@@UUnitInfo@UAlbertaBot@@U?$less@PAVUnitInterface@BWAPI@@@std@@V?$allocator@U?$pair@QAVUnitInterface@BWAPI@@UUnitInfo@UAlbertaBot@@@std@@@6@$0A@@std@@@std@@QAE?AV?$_Tree_iterator@V?$_Tree_val@U?$_Tree_simple_types@U?$pair@QAVUnitInterface@BWAPI@@UUnitInfo@UAlbertaBot@@@std@@@std@@@std@@@2@V?$_Tree_const_iterator@V?$_Tree_val@U?$_Tree_simple_types@U?$pair@QAVUnitInterface@BWAPI@@UUnitInfo@UAlbertaBot@@@std@@@std@@@std@@@2@@Z 100246a0 f i InformationManager.obj
 0001:000236a0       ?erase@?$_Tree@V?$_Tmap_traits@PAVUnitInterface@BWAPI@@PAV12@U?$less@PAVUnitInterface@BWAPI@@@std@@V?$allocator@U?$pair@QAVUnitInterface@BWAPI@@PAV12@@std@@@4@$0A@@std@@@std@@QAE?AV?$_Tree_iterator@V?$_Tree_val@U?$_Tree_simple_types@U?$pair@QAVUnitInterface@BWAPI@@PAV12@@std@@@std@@@std@@@2@V?$_Tree_const_iterator@V?$_Tree_val@U?$_Tree_simple_types@U?$pair@QAVUnitInterface@BWAPI@@PAV12@@std@@@std@@@std@@@2@@Z 100246a0 f i WorkerData.obj
 0001:000236a0       ?erase@?$_Tree@V?$_Tset_traits@PAVUnitInterface@BWAPI@@U?$less@PAVUnitInterface@BWAPI@@@std@@V?$allocator@PAVUnitInterface@BWAPI@@@4@$0A@@std@@@std@@QAE?AV?$_Tree_const_iterator@V?$_Tree_val@U?$_Tree_simple_types@PAVUnitInterface@BWAPI@@@std@@@std@@@2@V32@@Z 100246a0 f i WorkerManager.obj
 0001:000238f0       ?find@?$_Tree@V?$_Tmap_traits@PAVUnitInterface@BWAPI@@HU?$less@PAVUnitInterface@BWAPI@@@std@@V?$allocator@U?$pair@QAVUnitInterface@BWAPI@@H@std@@@4@$0A@@std@@@std@@QAE?AV?$_Tree_iterator@V?$_Tree_val@U?$_Tree_simple_types@U?$pair@QAVUnitInterface@BWAPI@@H@std@@@std@@@std@@@2@ABQAVUnitInterface@BWAPI@@@Z 100248f0 f i WorkerData.obj
 0001:000238f0       ?find@?$_Tree@V?$_Tmap_traits@PAVUnitInterface@BWAPI@@PAVBase@UAlbertaBot@@U?$less@PAVUnitInterface@BWAPI@@@std@@V?$allocator@U?$pair@QAVUnitInterface@BWAPI@@PAVBase@UAlbertaBot@@@std@@@6@$0A@@std@@@std@@QAE?AV?$_Tree_iterator@V?$_Tree_val@U?$_Tree_simple_types@U?$pair@QAVUnitInterface@BWAPI@@PAVBase@UAlbertaBot@@@std@@@std@@@std@@@2@ABQAVUnitInterface@BWAPI@@@Z 100248f0 f i Bases.obj
 0001:000238f0       ?find@?$_Tree@V?$_Tmap_traits@PAVUnitInterface@BWAPI@@W4WorkerJob@WorkerData@UAlbertaBot@@U?$less@PAVUnitInterface@BWAPI@@@std@@V?$allocator@U?$pair@QAVUnitInterface@BWAPI@@W4WorkerJob@WorkerData@UAlbertaBot@@@std@@@7@$0A@@std@@@std@@QAE?AV?$_Tree_iterator@V?$_Tree_val@U?$_Tree_simple_types@U?$pair@QAVUnitInterface@BWAPI@@W4WorkerJob@WorkerData@UAlbertaBot@@@std@@@std@@@std@@@2@ABQAVUnitInterface@BWAPI@@@Z 100248f0 f i WorkerData.obj
 0001:000238f0       ?find@?$_Tree@V?$_Tmap_traits@PAVUnitInterface@BWAPI@@PAV12@U?$less@PAVUnitInterface@BWAPI@@@std@@V?$allocator@U?$pair@QAVUnitInterface@BWAPI@@PAV12@@std@@@4@$0A@@std@@@std@@QAE?AV?$_Tree_iterator@V?$_Tree_val@U?$_Tree_simple_types@U?$pair@QAVUnitInterface@BWAPI@@PAV12@@std@@@std@@@std@@@2@ABQAVUnitInterface@BWAPI@@@Z 100248f0 f i WorkerData.obj
 0001:000238f0       ?find@?$_Tree@V?$_Tmap_traits@PAVUnitInterface@BWAPI@@UUnitInfo@UAlbertaBot@@U?$less@PAVUnitInterface@BWAPI@@@std@@V?$allocator@U?$pair@QAVUnitInterface@BWAPI@@UUnitInfo@UAlbertaBot@@@std@@@6@$0A@@std@@@std@@QAE?AV?$_Tree_iterator@V?$_Tree_val@U?$_Tree_simple_types@U?$pair@QAVUnitInterface@BWAPI@@UUnitInfo@UAlbertaBot@@@std@@@std@@@std@@@2@ABQAVUnitInterface@BWAPI@@@Z 100248f0 f i UnitData.obj
 0001:00023940       ?push_back@?$vector@VUnitset@BWAPI@@V?$allocator@VUnitset@BWAPI@@@std@@@std@@QAEXABVUnitset@BWAPI@@@Z 10024940 f i Bases.obj
 0001:000239d0       ?push_back@?$vector@VPotentialBase@UAlbertaBot@@V?$allocator@VPotentialBase@UAlbertaBot@@@std@@@std@@QAEX$$QAVPotentialBase@UAlbertaBot@@@Z 100249d0 f i Bases.obj
 0001:00023a70       ?_Reserve@?$vector@PAVBase@UAlbertaBot@@V?$allocator@PAVBase@UAlbertaBot@@@std@@@std@@IAEXI@Z 10024a70 f i Bases.obj
 0001:00023a70       ?_Reserve@?$vector@PAVUnitInterface@BWAPI@@V?$allocator@PAVUnitInterface@BWAPI@@@std@@@std@@IAEXI@Z 10024a70 f i Bases.obj
 0001:00023a70       ?_Reserve@?$vector@PAUGameSnapshot@UAlbertaBot@@V?$allocator@PAUGameSnapshot@UAlbertaBot@@@std@@@std@@IAEXI@Z 10024a70 f i GameRecord.obj
 0001:00023a70       ?_Reserve@?$vector@PAVGameRecord@UAlbertaBot@@V?$allocator@PAVGameRecord@UAlbertaBot@@@std@@@std@@IAEXI@Z 10024a70 f i OpponentModel.obj
 0001:00023a70       ?_Reserve@?$vector@HV?$allocator@H@std@@@std@@IAEXI@Z 10024a70 f i ParseUtils.obj
 0001:00023a70       ?_Reserve@?$vector@PAVZone@UAlbertaBot@@V?$allocator@PAVZone@UAlbertaBot@@@std@@@std@@IAEXI@Z 10024a70 f i GridZone.obj
 0001:00023ae0       ?_Lrotate@?$_Tree@V?$_Tmap_traits@PAVUnitInterface@BWAPI@@UUnitInfo@UAlbertaBot@@U?$less@PAVUnitInterface@BWAPI@@@std@@V?$allocator@U?$pair@QAVUnitInterface@BWAPI@@UUnitInfo@UAlbertaBot@@@std@@@6@$0A@@std@@@std@@IAEXPAU?$_Tree_node@U?$pair@QAVUnitInterface@BWAPI@@UUnitInfo@UAlbertaBot@@@std@@PAX@2@@Z 10024ae0 f i InformationManager.obj
 0001:00023ae0       ?_Lrotate@?$_Tree@V?$_Tmap_traits@PAVUnitInterface@BWAPI@@VMicroState@UAlbertaBot@@U?$less@PAVUnitInterface@BWAPI@@@std@@V?$allocator@U?$pair@QAVUnitInterface@BWAPI@@VMicroState@UAlbertaBot@@@std@@@6@$0A@@std@@@std@@IAEXPAU?$_Tree_node@U?$pair@QAVUnitInterface@BWAPI@@VMicroState@UAlbertaBot@@@std@@PAX@2@@Z 10024ae0 f i Micro.obj
 0001:00023ae0       ?_Lrotate@?$_Tree@V?$_Tmap_traits@V?$basic_string@DU?$char_traits@D@std@@V?$allocator@D@2@@std@@UOpeningInfoType@OpponentModel@UAlbertaBot@@U?$less@V?$basic_string@DU?$char_traits@D@std@@V?$allocator@D@2@@std@@@2@V?$allocator@U?$pair@$$CBV?$basic_string@DU?$char_traits@D@std@@V?$allocator@D@2@@std@@UOpeningInfoType@OpponentModel@UAlbertaBot@@@std@@@2@$0A@@std@@@std@@IAEXPAU?$_Tree_node@U?$pair@$$CBV?$basic_string@DU?$char_traits@D@std@@V?$allocator@D@2@@std@@UOpeningInfoType@OpponentModel@UAlbertaBot@@@std@@PAX@2@@Z 10024ae0 f i OpponentModel.obj
 0001:00023ae0       ?_Lrotate@?$_Tree@V?$_Tmap_traits@V?$basic_string@DU?$char_traits@D@std@@V?$allocator@D@2@@std@@VSquad@UAlbertaBot@@U?$less@V?$basic_string@DU?$char_traits@D@std@@V?$allocator@D@2@@std@@@2@V?$allocator@U?$pair@$$CBV?$basic_string@DU?$char_traits@D@std@@V?$allocator@D@2@@std@@VSquad@UAlbertaBot@@@std@@@2@$0A@@std@@@std@@IAEXPAU?$_Tree_node@U?$pair@$$CBV?$basic_string@DU?$char_traits@D@std@@V?$allocator@D@2@@std@@VSquad@UAlbertaBot@@@std@@PAX@2@@Z 10024ae0 f i CombatCommander.obj
 0001:00023ae0       ?_Lrotate@?$_Tree@V?$_Tset_traits@W4OpeningPlan@UAlbertaBot@@U?$less@W4OpeningPlan@UAlbertaBot@@@std@@V?$allocator@W4OpeningPlan@UAlbertaBot@@@4@$0A@@std@@@std@@IAEXPAU?$_Tree_node@W4OpeningPlan@UAlbertaBot@@PAX@2@@Z 10024ae0 f i OpponentModel.obj
 0001:00023ae0       ?_Lrotate@?$_Tree@V?$_Tset_traits@PAVBase@UAlbertaBot@@U?$less@PAVBase@UAlbertaBot@@@std@@V?$allocator@PAVBase@UAlbertaBot@@@4@$0A@@std@@@std@@IAEXPAU?$_Tree_node@PAVBase@UAlbertaBot@@PAX@2@@Z 10024ae0 f i MicroOverlords.obj
 0001:00023ae0       ?_Lrotate@?$_Tree@V?$_Tmap_traits@PAVPlayerInterface@BWAPI@@V?$set@PBVZone@UAlbertaBot@@U?$less@PBVZone@UAlbertaBot@@@std@@V?$allocator@PBVZone@UAlbertaBot@@@4@@std@@U?$less@PAVPlayerInterface@BWAPI@@@4@V?$allocator@U?$pair@QAVPlayerInterface@BWAPI@@V?$set@PBVZone@UAlbertaBot@@U?$less@PBVZone@UAlbertaBot@@@std@@V?$allocator@PBVZone@UAlbertaBot@@@4@@std@@@std@@@4@$0A@@std@@@std@@IAEXPAU?$_Tree_node@U?$pair@QAVPlayerInterface@BWAPI@@V?$set@PBVZone@UAlbertaBot@@U?$less@PBVZone@UAlbertaBot@@@std@@V?$allocator@PBVZone@UAlbertaBot@@@4@@std@@@std@@PAX@2@@Z 10024ae0 f i InformationManager.obj
 0001:00023ae0       ?_Lrotate@?$_Tree@V?$_Tmap_traits@PAVUnitInterface@BWAPI@@VUnitset@2@U?$less@PAVUnitInterface@BWAPI@@@std@@V?$allocator@U?$pair@QAVUnitInterface@BWAPI@@VUnitset@2@@std@@@5@$0A@@std@@@std@@IAEXPAU?$_Tree_node@U?$pair@QAVUnitInterface@BWAPI@@VUnitset@2@@std@@PAX@2@@Z 10024ae0 f i InformationManager.obj
 0001:00023ae0       ?_Lrotate@?$_Tree@V?$_Tmap_traits@PAVBase@UAlbertaBot@@PAVUnitInterface@BWAPI@@U?$less@PAVBase@UAlbertaBot@@@std@@V?$allocator@U?$pair@QAVBase@UAlbertaBot@@PAVUnitInterface@BWAPI@@@std@@@6@$0A@@std@@@std@@IAEXPAU?$_Tree_node@U?$pair@QAVBase@UAlbertaBot@@PAVUnitInterface@BWAPI@@@std@@PAX@2@@Z 10024ae0 f i MicroOverlords.obj
 0001:00023ae0       ?_Lrotate@?$_Tree@V?$_Tset_traits@VUnitType@BWAPI@@U?$less@VUnitType@BWAPI@@@std@@V?$allocator@VUnitType@BWAPI@@@4@$0A@@std@@@std@@IAEXPAU?$_Tree_node@VUnitType@BWAPI@@PAX@2@@Z 10024ae0 f i MacroAct.obj
 0001:00023ae0       ?_Lrotate@?$_Tree@V?$_Tmap_traits@PAVUnitInterface@BWAPI@@PAV12@U?$less@PAVUnitInterface@BWAPI@@@std@@V?$allocator@U?$pair@QAVUnitInterface@BWAPI@@PAV12@@std@@@4@$0A@@std@@@std@@IAEXPAU?$_Tree_node@U?$pair@QAVUnitInterface@BWAPI@@PAV12@@std@@PAX@2@@Z 10024ae0 f i WorkerData.obj
 0001:00023ae0       ?_Lrotate@?$_Tree@V?$_Tmap_traits@PAVUnitInterface@BWAPI@@VUnitType@2@U?$less@PAVUnitInterface@BWAPI@@@std@@V?$allocator@U?$pair@QAVUnitInterface@BWAPI@@VUnitType@2@@std@@@5@$0A@@std@@@std@@IAEXPAU?$_Tree_node@U?$pair@QAVUnitInterface@BWAPI@@VUnitType@2@@std@@PAX@2@@Z 10024ae0 f i WorkerData.obj
 0001:00023ae0       ?_Lrotate@?$_Tree@V?$_Tset_traits@PAVZone@UAlbertaBot@@U?$less@PAVZone@UAlbertaBot@@@std@@V?$allocator@PAVZone@UAlbertaBot@@@4@$0A@@std@@@std@@IAEXPAU?$_Tree_node@PAVZone@UAlbertaBot@@PAX@2@@Z 10024ae0 f i GridZone.obj
 0001:00023ae0       ?_Lrotate@?$_Tree@V?$_Tmap_traits@PAVUnitInterface@BWAPI@@_NU?$less@PAVUnitInterface@BWAPI@@@std@@V?$allocator@U?$pair@QAVUnitInterface@BWAPI@@_N@std@@@4@$0A@@std@@@std@@IAEXPAU?$_Tree_node@U?$pair@QAVUnitInterface@BWAPI@@_N@std@@PAX@2@@Z 10024ae0 f i Squad.obj
 0001:00023ae0       ?_Lrotate@?$_Tree@V?$_Tmap_traits@PAVPlayerInterface@BWAPI@@VUnitData@UAlbertaBot@@U?$less@PAVPlayerInterface@BWAPI@@@std@@V?$allocator@U?$pair@QAVPlayerInterface@BWAPI@@VUnitData@UAlbertaBot@@@std@@@6@$0A@@std@@@std@@IAEXPAU?$_Tree_node@U?$pair@QAVPlayerInterface@BWAPI@@VUnitData@UAlbertaBot@@@std@@PAX@2@@Z 10024ae0 f i InformationManager.obj
 0001:00023ae0       ?_Lrotate@?$_Tree@V?$_Tmap_traits@PAVUnitInterface@BWAPI@@HU?$less@PAVUnitInterface@BWAPI@@@std@@V?$allocator@U?$pair@QAVUnitInterface@BWAPI@@H@std@@@4@$0A@@std@@@std@@IAEXPAU?$_Tree_node@U?$pair@QAVUnitInterface@BWAPI@@H@std@@PAX@2@@Z 10024ae0 f i WorkerData.obj
 0001:00023ae0       ?_Lrotate@?$_Tree@V?$_Tset_traits@PBVZone@UAlbertaBot@@U?$less@PBVZone@UAlbertaBot@@@std@@V?$allocator@PBVZone@UAlbertaBot@@@4@$0A@@std@@@std@@IAEXPAU?$_Tree_node@PBVZone@UAlbertaBot@@PAX@2@@Z 10024ae0 f i InformationManager.obj
 0001:00023ae0       ?_Lrotate@?$_Tree@V?$_Tmap_traits@VUnitType@BWAPI@@HU?$less@VUnitType@BWAPI@@@std@@V?$allocator@U?$pair@$$CBVUnitType@BWAPI@@H@std@@@4@$0A@@std@@@std@@IAEXPAU?$_Tree_node@U?$pair@$$CBVUnitType@BWAPI@@H@std@@PAX@2@@Z 10024ae0 f i GameRecord.obj
 0001:00023ae0       ?_Lrotate@?$_Tree@V?$_Tmap_traits@V?$basic_string@DU?$char_traits@D@std@@V?$allocator@D@2@@std@@UStrategy@UAlbertaBot@@U?$less@V?$basic_string@DU?$char_traits@D@std@@V?$allocator@D@2@@std@@@2@V?$allocator@U?$pair@$$CBV?$basic_string@DU?$char_traits@D@std@@V?$allocator@D@2@@std@@UStrategy@UAlbertaBot@@@std@@@2@$0A@@std@@@std@@IAEXPAU?$_Tree_node@U?$pair@$$CBV?$basic_string@DU?$char_traits@D@std@@V?$allocator@D@2@@std@@UStrategy@UAlbertaBot@@@std@@PAX@2@@Z 10024ae0 f i StrategyManager.obj
 0001:00023ae0       ?_Lrotate@?$_Tree@V?$_Tmap_traits@V?$Point@H$0CA@@BWAPI@@VGridDistances@UAlbertaBot@@U?$less@V?$Point@H$0CA@@BWAPI@@@std@@V?$allocator@U?$pair@$$CBV?$Point@H$0CA@@BWAPI@@VGridDistances@UAlbertaBot@@@std@@@6@$0A@@std@@@std@@IAEXPAU?$_Tree_node@U?$pair@$$CBV?$Point@H$0CA@@BWAPI@@VGridDistances@UAlbertaBot@@@std@@PAX@2@@Z 10024ae0 f i MapTools.obj
 0001:00023ae0       ?_Lrotate@?$_Tree@V?$_Tmap_traits@PAVUnitInterface@BWAPI@@PAVBase@UAlbertaBot@@U?$less@PAVUnitInterface@BWAPI@@@std@@V?$allocator@U?$pair@QAVUnitInterface@BWAPI@@PAVBase@UAlbertaBot@@@std@@@6@$0A@@std@@@std@@IAEXPAU?$_Tree_node@U?$pair@QAVUnitInterface@BWAPI@@PAVBase@UAlbertaBot@@@std@@PAX@2@@Z 10024ae0 f i Bases.obj
 0001:00023ae0       ?_Lrotate@?$_Tree@V?$_Tset_traits@PAVUnitInterface@BWAPI@@U?$less@PAVUnitInterface@BWAPI@@@std@@V?$allocator@PAVUnitInterface@BWAPI@@@4@$0A@@std@@@std@@IAEXPAU?$_Tree_node@PAVUnitInterface@BWAPI@@PAX@2@@Z 10024ae0 f i WorkerData.obj
 0001:00023ae0       ?_Lrotate@?$_Tree@V?$_Tmap_traits@PAVUnitInterface@BWAPI@@W4WorkerJob@WorkerData@UAlbertaBot@@U?$less@PAVUnitInterface@BWAPI@@@std@@V?$allocator@U?$pair@QAVUnitInterface@BWAPI@@W4WorkerJob@WorkerData@UAlbertaBot@@@std@@@7@$0A@@std@@@std@@IAEXPAU?$_Tree_node@U?$pair@QAVUnitInterface@BWAPI@@W4WorkerJob@WorkerData@UAlbertaBot@@@std@@PAX@2@@Z 10024ae0 f i WorkerData.obj
 0001:00023b40       ?_Rrotate@?$_Tree@V?$_Tmap_traits@PAVPlayerInterface@BWAPI@@V?$set@PBVZone@UAlbertaBot@@U?$less@PBVZone@UAlbertaBot@@@std@@V?$allocator@PBVZone@UAlbertaBot@@@4@@std@@U?$less@PAVPlayerInterface@BWAPI@@@4@V?$allocator@U?$pair@QAVPlayerInterface@BWAPI@@V?$set@PBVZone@UAlbertaBot@@U?$less@PBVZone@UAlbertaBot@@@std@@V?$allocator@PBVZone@UAlbertaBot@@@4@@std@@@std@@@4@$0A@@std@@@std@@IAEXPAU?$_Tree_node@U?$pair@QAVPlayerInterface@BWAPI@@V?$set@PBVZone@UAlbertaBot@@U?$less@PBVZone@UAlbertaBot@@@std@@V?$allocator@PBVZone@UAlbertaBot@@@4@@std@@@std@@PAX@2@@Z 10024b40 f i InformationManager.obj
 0001:00023b40       ?_Rrotate@?$_Tree@V?$_Tmap_traits@V?$basic_string@DU?$char_traits@D@std@@V?$allocator@D@2@@std@@VSquad@UAlbertaBot@@U?$less@V?$basic_string@DU?$char_traits@D@std@@V?$allocator@D@2@@std@@@2@V?$allocator@U?$pair@$$CBV?$basic_string@DU?$char_traits@D@std@@V?$allocator@D@2@@std@@VSquad@UAlbertaBot@@@std@@@2@$0A@@std@@@std@@IAEXPAU?$_Tree_node@U?$pair@$$CBV?$basic_string@DU?$char_traits@D@std@@V?$allocator@D@2@@std@@VSquad@UAlbertaBot@@@std@@PAX@2@@Z 10024b40 f i CombatCommander.obj
 0001:00023b40       ?_Rrotate@?$_Tree@V?$_Tmap_traits@PAVUnitInterface@BWAPI@@PAVBase@UAlbertaBot@@U?$less@PAVUnitInterface@BWAPI@@@std@@V?$allocator@U?$pair@QAVUnitInterface@BWAPI@@PAVBase@UAlbertaBot@@@std@@@6@$0A@@std@@@std@@IAEXPAU?$_Tree_node@U?$pair@QAVUnitInterface@BWAPI@@PAVBase@UAlbertaBot@@@std@@PAX@2@@Z 10024b40 f i Bases.obj
 0001:00023b40       ?_Rrotate@?$_Tree@V?$_Tset_traits@PAVUnitInterface@BWAPI@@U?$less@PAVUnitInterface@BWAPI@@@std@@V?$allocator@PAVUnitInterface@BWAPI@@@4@$0A@@std@@@std@@IAEXPAU?$_Tree_node@PAVUnitInterface@BWAPI@@PAX@2@@Z 10024b40 f i WorkerData.obj
 0001:00023b40       ?_Rrotate@?$_Tree@V?$_Tmap_traits@PAVPlayerInterface@BWAPI@@VUnitData@UAlbertaBot@@U?$less@PAVPlayerInterface@BWAPI@@@std@@V?$allocator@U?$pair@QAVPlayerInterface@BWAPI@@VUnitData@UAlbertaBot@@@std@@@6@$0A@@std@@@std@@IAEXPAU?$_Tree_node@U?$pair@QAVPlayerInterface@BWAPI@@VUnitData@UAlbertaBot@@@std@@PAX@2@@Z 10024b40 f i InformationManager.obj
 0001:00023b40       ?_Rrotate@?$_Tree@V?$_Tmap_traits@PAVUnitInterface@BWAPI@@W4WorkerJob@WorkerData@UAlbertaBot@@U?$less@PAVUnitInterface@BWAPI@@@std@@V?$allocator@U?$pair@QAVUnitInterface@BWAPI@@W4WorkerJob@WorkerData@UAlbertaBot@@@std@@@7@$0A@@std@@@std@@IAEXPAU?$_Tree_node@U?$pair@QAVUnitInterface@BWAPI@@W4WorkerJob@WorkerData@UAlbertaBot@@@std@@PAX@2@@Z 10024b40 f i WorkerData.obj
 0001:00023b40       ?_Rrotate@?$_Tree@V?$_Tset_traits@PAVZone@UAlbertaBot@@U?$less@PAVZone@UAlbertaBot@@@std@@V?$allocator@PAVZone@UAlbertaBot@@@4@$0A@@std@@@std@@IAEXPAU?$_Tree_node@PAVZone@UAlbertaBot@@PAX@2@@Z 10024b40 f i GridZone.obj
 0001:00023b40       ?_Rrotate@?$_Tree@V?$_Tmap_traits@PAVUnitInterface@BWAPI@@_NU?$less@PAVUnitInterface@BWAPI@@@std@@V?$allocator@U?$pair@QAVUnitInterface@BWAPI@@_N@std@@@4@$0A@@std@@@std@@IAEXPAU?$_Tree_node@U?$pair@QAVUnitInterface@BWAPI@@_N@std@@PAX@2@@Z 10024b40 f i Squad.obj
 0001:00023b40       ?_Rrotate@?$_Tree@V?$_Tmap_traits@PAVUnitInterface@BWAPI@@VMicroState@UAlbertaBot@@U?$less@PAVUnitInterface@BWAPI@@@std@@V?$allocator@U?$pair@QAVUnitInterface@BWAPI@@VMicroState@UAlbertaBot@@@std@@@6@$0A@@std@@@std@@IAEXPAU?$_Tree_node@U?$pair@QAVUnitInterface@BWAPI@@VMicroState@UAlbertaBot@@@std@@PAX@2@@Z 10024b40 f i Micro.obj
 0001:00023b40       ?_Rrotate@?$_Tree@V?$_Tset_traits@PBVZone@UAlbertaBot@@U?$less@PBVZone@UAlbertaBot@@@std@@V?$allocator@PBVZone@UAlbertaBot@@@4@$0A@@std@@@std@@IAEXPAU?$_Tree_node@PBVZone@UAlbertaBot@@PAX@2@@Z 10024b40 f i InformationManager.obj
 0001:00023b40       ?_Rrotate@?$_Tree@V?$_Tset_traits@VUnitType@BWAPI@@U?$less@VUnitType@BWAPI@@@std@@V?$allocator@VUnitType@BWAPI@@@4@$0A@@std@@@std@@IAEXPAU?$_Tree_node@VUnitType@BWAPI@@PAX@2@@Z 10024b40 f i MacroAct.obj
 0001:00023b40       ?_Rrotate@?$_Tree@V?$_Tmap_traits@PAVUnitInterface@BWAPI@@HU?$less@PAVUnitInterface@BWAPI@@@std@@V?$allocator@U?$pair@QAVUnitInterface@BWAPI@@H@std@@@4@$0A@@std@@@std@@IAEXPAU?$_Tree_node@U?$pair@QAVUnitInterface@BWAPI@@H@std@@PAX@2@@Z 10024b40 f i WorkerData.obj
 0001:00023b40       ?_Rrotate@?$_Tree@V?$_Tmap_traits@VUnitType@BWAPI@@HU?$less@VUnitType@BWAPI@@@std@@V?$allocator@U?$pair@$$CBVUnitType@BWAPI@@H@std@@@4@$0A@@std@@@std@@IAEXPAU?$_Tree_node@U?$pair@$$CBVUnitType@BWAPI@@H@std@@PAX@2@@Z 10024b40 f i GameRecord.obj
 0001:00023b40       ?_Rrotate@?$_Tree@V?$_Tmap_traits@V?$basic_string@DU?$char_traits@D@std@@V?$allocator@D@2@@std@@UOpeningInfoType@OpponentModel@UAlbertaBot@@U?$less@V?$basic_string@DU?$char_traits@D@std@@V?$allocator@D@2@@std@@@2@V?$allocator@U?$pair@$$CBV?$basic_string@DU?$char_traits@D@std@@V?$allocator@D@2@@std@@UOpeningInfoType@OpponentModel@UAlbertaBot@@@std@@@2@$0A@@std@@@std@@IAEXPAU?$_Tree_node@U?$pair@$$CBV?$basic_string@DU?$char_traits@D@std@@V?$allocator@D@2@@std@@UOpeningInfoType@OpponentModel@UAlbertaBot@@@std@@PAX@2@@Z 10024b40 f i OpponentModel.obj
 0001:00023b40       ?_Rrotate@?$_Tree@V?$_Tset_traits@W4OpeningPlan@UAlbertaBot@@U?$less@W4OpeningPlan@UAlbertaBot@@@std@@V?$allocator@W4OpeningPlan@UAlbertaBot@@@4@$0A@@std@@@std@@IAEXPAU?$_Tree_node@W4OpeningPlan@UAlbertaBot@@PAX@2@@Z 10024b40 f i OpponentModel.obj
 0001:00023b40       ?_Rrotate@?$_Tree@V?$_Tmap_traits@PAVBase@UAlbertaBot@@PAVUnitInterface@BWAPI@@U?$less@PAVBase@UAlbertaBot@@@std@@V?$allocator@U?$pair@QAVBase@UAlbertaBot@@PAVUnitInterface@BWAPI@@@std@@@6@$0A@@std@@@std@@IAEXPAU?$_Tree_node@U?$pair@QAVBase@UAlbertaBot@@PAVUnitInterface@BWAPI@@@std@@PAX@2@@Z 10024b40 f i MicroOverlords.obj
 0001:00023b40       ?_Rrotate@?$_Tree@V?$_Tmap_traits@V?$basic_string@DU?$char_traits@D@std@@V?$allocator@D@2@@std@@UStrategy@UAlbertaBot@@U?$less@V?$basic_string@DU?$char_traits@D@std@@V?$allocator@D@2@@std@@@2@V?$allocator@U?$pair@$$CBV?$basic_string@DU?$char_traits@D@std@@V?$allocator@D@2@@std@@UStrategy@UAlbertaBot@@@std@@@2@$0A@@std@@@std@@IAEXPAU?$_Tree_node@U?$pair@$$CBV?$basic_string@DU?$char_traits@D@std@@V?$allocator@D@2@@std@@UStrategy@UAlbertaBot@@@std@@PAX@2@@Z 10024b40 f i StrategyManager.obj
 0001:00023b40       ?_Rrotate@?$_Tree@V?$_Tmap_traits@PAVUnitInterface@BWAPI@@PAV12@U?$less@PAVUnitInterface@BWAPI@@@std@@V?$allocator@U?$pair@QAVUnitInterface@BWAPI@@PAV12@@std@@@4@$0A@@std@@@std@@IAEXPAU?$_Tree_node@U?$pair@QAVUnitInterface@BWAPI@@PAV12@@std@@PAX@2@@Z 10024b40 f i WorkerData.obj
 0001:00023b40       ?_Rrotate@?$_Tree@V?$_Tmap_traits@PAVUnitInterface@BWAPI@@VUnitset@2@U?$less@PAVUnitInterface@BWAPI@@@std@@V?$allocator@U?$pair@QAVUnitInterface@BWAPI@@VUnitset@2@@std@@@5@$0A@@std@@@std@@IAEXPAU?$_Tree_node@U?$pair@QAVUnitInterface@BWAPI@@VUnitset@2@@std@@PAX@2@@Z 10024b40 f i InformationManager.obj
 0001:00023b40       ?_Rrotate@?$_Tree@V?$_Tmap_traits@PAVUnitInterface@BWAPI@@VUnitType@2@U?$less@PAVUnitInterface@BWAPI@@@std@@V?$allocator@U?$pair@QAVUnitInterface@BWAPI@@VUnitType@2@@std@@@5@$0A@@std@@@std@@IAEXPAU?$_Tree_node@U?$pair@QAVUnitInterface@BWAPI@@VUnitType@2@@std@@PAX@2@@Z 10024b40 f i WorkerData.obj
 0001:00023b40       ?_Rrotate@?$_Tree@V?$_Tset_traits@PAVBase@UAlbertaBot@@U?$less@PAVBase@UAlbertaBot@@@std@@V?$allocator@PAVBase@UAlbertaBot@@@4@$0A@@std@@@std@@IAEXPAU?$_Tree_node@PAVBase@UAlbertaBot@@PAX@2@@Z 10024b40 f i MicroOverlords.obj
 0001:00023b40       ?_Rrotate@?$_Tree@V?$_Tmap_traits@PAVUnitInterface@BWAPI@@UUnitInfo@UAlbertaBot@@U?$less@PAVUnitInterface@BWAPI@@@std@@V?$allocator@U?$pair@QAVUnitInterface@BWAPI@@UUnitInfo@UAlbertaBot@@@std@@@6@$0A@@std@@@std@@IAEXPAU?$_Tree_node@U?$pair@QAVUnitInterface@BWAPI@@UUnitInfo@UAlbertaBot@@@std@@PAX@2@@Z 10024b40 f i InformationManager.obj
 0001:00023b40       ?_Rrotate@?$_Tree@V?$_Tmap_traits@V?$Point@H$0CA@@BWAPI@@VGridDistances@UAlbertaBot@@U?$less@V?$Point@H$0CA@@BWAPI@@@std@@V?$allocator@U?$pair@$$CBV?$Point@H$0CA@@BWAPI@@VGridDistances@UAlbertaBot@@@std@@@6@$0A@@std@@@std@@IAEXPAU?$_Tree_node@U?$pair@$$CBV?$Point@H$0CA@@BWAPI@@VGridDistances@UAlbertaBot@@@std@@PAX@2@@Z 10024b40 f i MapTools.obj
 0001:00023ba0       ?_Max@?$_Tree_val@U?$_Tree_simple_types@U?$pair@$$CBVUnitType@BWAPI@@H@std@@@std@@@std@@SAPAU?$_Tree_node@U?$pair@$$CBVUnitType@BWAPI@@H@std@@PAX@2@PAU32@@Z 10024ba0 f i GameRecord.obj
 0001:00023ba0       ?_Max@?$_Tree_val@U?$_Tree_simple_types@U?$pair@$$CBV?$basic_string@DU?$char_traits@D@std@@V?$allocator@D@2@@std@@VActionType@BOSS@@@std@@@std@@@std@@SAPAU?$_Tree_node@U?$pair@$$CBV?$basic_string@DU?$char_traits@D@std@@V?$allocator@D@2@@std@@VActionType@BOSS@@@std@@PAX@2@PAU32@@Z 10024ba0 f i BOSS:ActionType.obj
 0001:00023ba0       ?_Max@?$_Tree_val@U?$_Tree_simple_types@U?$pair@QAVBase@UAlbertaBot@@PAVUnitInterface@BWAPI@@@std@@@std@@@std@@SAPAU?$_Tree_node@U?$pair@QAVBase@UAlbertaBot@@PAVUnitInterface@BWAPI@@@std@@PAX@2@PAU32@@Z 10024ba0 f i MicroOverlords.obj
 0001:00023ba0       ?_Max@?$_Tree_val@U?$_Tree_simple_types@U?$pair@QAVUnitInterface@BWAPI@@VUnitset@2@@std@@@std@@@std@@SAPAU?$_Tree_node@U?$pair@QAVUnitInterface@BWAPI@@VUnitset@2@@std@@PAX@2@PAU32@@Z 10024ba0 f i InformationManager.obj
 0001:00023ba0       ?_Max@?$_Tree_val@U?$_Tree_simple_types@U?$pair@QAVPlayerInterface@BWAPI@@VUnitData@UAlbertaBot@@@std@@@std@@@std@@SAPAU?$_Tree_node@U?$pair@QAVPlayerInterface@BWAPI@@VUnitData@UAlbertaBot@@@std@@PAX@2@PAU32@@Z 10024ba0 f i InformationManager.obj
 0001:00023ba0       ?_Max@?$_Tree_val@U?$_Tree_simple_types@U?$pair@QAVUnitInterface@BWAPI@@PAVBase@UAlbertaBot@@@std@@@std@@@std@@SAPAU?$_Tree_node@U?$pair@QAVUnitInterface@BWAPI@@PAVBase@UAlbertaBot@@@std@@PAX@2@PAU32@@Z 10024ba0 f i Bases.obj
 0001:00023ba0       ?_Max@?$_Tree_val@U?$_Tree_simple_types@U?$pair@QAVUnitInterface@BWAPI@@UUnitInfo@UAlbertaBot@@@std@@@std@@@std@@SAPAU?$_Tree_node@U?$pair@QAVUnitInterface@BWAPI@@UUnitInfo@UAlbertaBot@@@std@@PAX@2@PAU32@@Z 10024ba0 f i InformationManager.obj
 0001:00023ba0       ?_Max@?$_Tree_val@U?$_Tree_simple_types@U?$pair@QAVUnitInterface@BWAPI@@VMicroState@UAlbertaBot@@@std@@@std@@@std@@SAPAU?$_Tree_node@U?$pair@QAVUnitInterface@BWAPI@@VMicroState@UAlbertaBot@@@std@@PAX@2@PAU32@@Z 10024ba0 f i Micro.obj
 0001:00023ba0       ?_Max@?$_Tree_val@U?$_Tree_simple_types@VUnitType@BWAPI@@@std@@@std@@SAPAU?$_Tree_node@VUnitType@BWAPI@@PAX@2@PAU32@@Z 10024ba0 f i MacroAct.obj
 0001:00023ba0       ?_Max@?$_Tree_val@U?$_Tree_simple_types@U?$pair@QAVUnitInterface@BWAPI@@VUnitType@2@@std@@@std@@@std@@SAPAU?$_Tree_node@U?$pair@QAVUnitInterface@BWAPI@@VUnitType@2@@std@@PAX@2@PAU32@@Z 10024ba0 f i WorkerData.obj
 0001:00023ba0       ?_Max@?$_Tree_val@U?$_Tree_simple_types@PAVUnitInterface@BWAPI@@@std@@@std@@SAPAU?$_Tree_node@PAVUnitInterface@BWAPI@@PAX@2@PAU32@@Z 10024ba0 f i WorkerData.obj
 0001:00023ba0       ?_Max@?$_Tree_val@U?$_Tree_simple_types@PBVZone@UAlbertaBot@@@std@@@std@@SAPAU?$_Tree_node@PBVZone@UAlbertaBot@@PAX@2@PAU32@@Z 10024ba0 f i InformationManager.obj
 0001:00023ba0       ?_Max@?$_Tree_val@U?$_Tree_simple_types@U?$pair@QAVUnitInterface@BWAPI@@PAV12@@std@@@std@@@std@@SAPAU?$_Tree_node@U?$pair@QAVUnitInterface@BWAPI@@PAV12@@std@@PAX@2@PAU32@@Z 10024ba0 f i MicroMutas.obj
 0001:00023ba0       ?_Max@?$_Tree_val@U?$_Tree_simple_types@U?$pair@$$CBV?$basic_string@DU?$char_traits@D@std@@V?$allocator@D@2@@std@@UStrategy@UAlbertaBot@@@std@@@std@@@std@@SAPAU?$_Tree_node@U?$pair@$$CBV?$basic_string@DU?$char_traits@D@std@@V?$allocator@D@2@@std@@UStrategy@UAlbertaBot@@@std@@PAX@2@PAU32@@Z 10024ba0 f i StrategyManager.obj
 0001:00023ba0       ?_Max@?$_Tree_val@U?$_Tree_simple_types@W4OpeningPlan@UAlbertaBot@@@std@@@std@@SAPAU?$_Tree_node@W4OpeningPlan@UAlbertaBot@@PAX@2@PAU32@@Z 10024ba0 f i OpponentModel.obj
 0001:00023ba0       ?_Max@?$_Tree_val@U?$_Tree_simple_types@U?$pair@$$CBV?$basic_string@DU?$char_traits@D@std@@V?$allocator@D@2@@std@@VSquad@UAlbertaBot@@@std@@@std@@@std@@SAPAU?$_Tree_node@U?$pair@$$CBV?$basic_string@DU?$char_traits@D@std@@V?$allocator@D@2@@std@@VSquad@UAlbertaBot@@@std@@PAX@2@PAU32@@Z 10024ba0 f i CombatCommander.obj
 0001:00023ba0       ?_Max@?$_Tree_val@U?$_Tree_simple_types@U?$pair@$$CBV?$Point@H$0CA@@BWAPI@@VGridDistances@UAlbertaBot@@@std@@@std@@@std@@SAPAU?$_Tree_node@U?$pair@$$CBV?$Point@H$0CA@@BWAPI@@VGridDistances@UAlbertaBot@@@std@@PAX@2@PAU32@@Z 10024ba0 f i MapTools.obj
 0001:00023ba0       ?_Max@?$_Tree_val@U?$_Tree_simple_types@U?$pair@$$CBV?$basic_string@DU?$char_traits@D@std@@V?$allocator@D@2@@std@@UOpeningInfoType@OpponentModel@UAlbertaBot@@@std@@@std@@@std@@SAPAU?$_Tree_node@U?$pair@$$CBV?$basic_string@DU?$char_traits@D@std@@V?$allocator@D@2@@std@@UOpeningInfoType@OpponentModel@UAlbertaBot@@@std@@PAX@2@PAU32@@Z 10024ba0 f i OpponentModel.obj
 0001:00023ba0       ?_Max@?$_Tree_val@U?$_Tree_simple_types@PAVZone@UAlbertaBot@@@std@@@std@@SAPAU?$_Tree_node@PAVZone@UAlbertaBot@@PAX@2@PAU32@@Z 10024ba0 f i GridZone.obj
 0001:00023ba0       ?_Max@?$_Tree_val@U?$_Tree_simple_types@U?$pair@QAVUnitInterface@BWAPI@@_N@std@@@std@@@std@@SAPAU?$_Tree_node@U?$pair@QAVUnitInterface@BWAPI@@_N@std@@PAX@2@PAU32@@Z 10024ba0 f i Squad.obj
 0001:00023ba0       ?_Max@?$_Tree_val@U?$_Tree_simple_types@U?$pair@QAVPlayerInterface@BWAPI@@V?$set@PBVZone@UAlbertaBot@@U?$less@PBVZone@UAlbertaBot@@@std@@V?$allocator@PBVZone@UAlbertaBot@@@4@@std@@@std@@@std@@@std@@SAPAU?$_Tree_node@U?$pair@QAVPlayerInterface@BWAPI@@V?$set@PBVZone@UAlbertaBot@@U?$less@PBVZone@UAlbertaBot@@@std@@V?$allocator@PBVZone@UAlbertaBot@@@4@@std@@@std@@PAX@2@PAU32@@Z 10024ba0 f i InformationManager.obj
 0001:00023ba0       ?_Max@?$_Tree_val@U?$_Tree_simple_types@PAVBase@UAlbertaBot@@@std@@@std@@SAPAU?$_Tree_node@PAVBase@UAlbertaBot@@PAX@2@PAU32@@Z 10024ba0 f i MicroOverlords.obj
 0001:00023ba0       ?_Max@?$_Tree_val@U?$_Tree_simple_types@U?$pair@QAVUnitInterface@BWAPI@@W4WorkerJob@WorkerData@UAlbertaBot@@@std@@@std@@@std@@SAPAU?$_Tree_node@U?$pair@QAVUnitInterface@BWAPI@@W4WorkerJob@WorkerData@UAlbertaBot@@@std@@PAX@2@PAU32@@Z 10024ba0 f i WorkerData.obj
 0001:00023ba0       ?_Max@?$_Tree_val@U?$_Tree_simple_types@U?$pair@QAVUnitInterface@BWAPI@@H@std@@@std@@@std@@SAPAU?$_Tree_node@U?$pair@QAVUnitInterface@BWAPI@@H@std@@PAX@2@PAU32@@Z 10024ba0 f i WorkerData.obj
 0001:00023bc0       ?_Reserve@?$vector@VUnitset@BWAPI@@V?$allocator@VUnitset@BWAPI@@@std@@@std@@IAEXI@Z 10024bc0 f i Bases.obj
 0001:00023c30       ?_Reserve@?$vector@VPotentialBase@UAlbertaBot@@V?$allocator@VPotentialBase@UAlbertaBot@@@std@@@std@@IAEXI@Z 10024c30 f i Bases.obj
 0001:00023cd0       ??E?$_Tree_unchecked_const_iterator@V?$_Tree_val@U?$_Tree_simple_types@U?$pair@QAVUnitInterface@BWAPI@@PAV12@@std@@@std@@@std@@U_Iterator_base0@2@@std@@QAEAAV01@XZ 10024cd0 f i MicroMutas.obj
 0001:00023cd0       ??E?$_Tree_unchecked_const_iterator@V?$_Tree_val@U?$_Tree_simple_types@U?$pair@QAVUnitInterface@BWAPI@@VUnitset@2@@std@@@std@@@std@@U_Iterator_base0@2@@std@@QAEAAV01@XZ 10024cd0 f i InformationManager.obj
 0001:00023cd0       ??E?$_Tree_unchecked_const_iterator@V?$_Tree_val@U?$_Tree_simple_types@U?$pair@$$CBVUnitType@BWAPI@@H@std@@@std@@@std@@U_Iterator_base0@2@@std@@QAEAAV01@XZ 10024cd0 f i GameRecord.obj
 0001:00023cd0       ??E?$_Tree_unchecked_const_iterator@V?$_Tree_val@U?$_Tree_simple_types@PAVUnitInterface@BWAPI@@@std@@@std@@U_Iterator_base0@2@@std@@QAEAAV01@XZ 10024cd0 f i WorkerManager.obj
 0001:00023cd0       ??E?$_Tree_unchecked_const_iterator@V?$_Tree_val@U?$_Tree_simple_types@U?$pair@$$CBV?$basic_string@DU?$char_traits@D@std@@V?$allocator@D@2@@std@@UOpeningInfoType@OpponentModel@UAlbertaBot@@@std@@@std@@@std@@U_Iterator_base0@2@@std@@QAEAAV01@XZ 10024cd0 f i OpponentModel.obj
 0001:00023cd0       ??E?$_Tree_unchecked_const_iterator@V?$_Tree_val@U?$_Tree_simple_types@U?$pair@QAVPlayerInterface@BWAPI@@V?$set@PBVZone@UAlbertaBot@@U?$less@PBVZone@UAlbertaBot@@@std@@V?$allocator@PBVZone@UAlbertaBot@@@4@@std@@@std@@@std@@@std@@U_Iterator_base0@2@@std@@QAEAAV01@XZ 10024cd0 f i InformationManager.obj
 0001:00023cd0       ??E?$_Tree_unchecked_const_iterator@V?$_Tree_val@U?$_Tree_simple_types@U?$pair@QAVUnitInterface@BWAPI@@_N@std@@@std@@@std@@U_Iterator_base0@2@@std@@QAEAAV01@XZ 10024cd0 f i Squad.obj
 0001:00023cd0       ??E?$_Tree_unchecked_const_iterator@V?$_Tree_val@U?$_Tree_simple_types@U?$pair@$$CBV?$Point@H$0CA@@BWAPI@@VGridDistances@UAlbertaBot@@@std@@@std@@@std@@U_Iterator_base0@2@@std@@QAEAAV01@XZ 10024cd0 f i MapTools.obj
 0001:00023cd0       ??E?$_Tree_unchecked_const_iterator@V?$_Tree_val@U?$_Tree_simple_types@U?$pair@$$CBV?$basic_string@DU?$char_traits@D@std@@V?$allocator@D@2@@std@@UStrategy@UAlbertaBot@@@std@@@std@@@std@@U_Iterator_base0@2@@std@@QAEAAV01@XZ 10024cd0 f i StrategyManager.obj
 0001:00023cd0       ??E?$_Tree_unchecked_const_iterator@V?$_Tree_val@U?$_Tree_simple_types@U?$pair@QAVUnitInterface@BWAPI@@VMicroState@UAlbertaBot@@@std@@@std@@@std@@U_Iterator_base0@2@@std@@QAEAAV01@XZ 10024cd0 f i Micro.obj
 0001:00023cd0       ??E?$_Tree_unchecked_const_iterator@V?$_Tree_val@U?$_Tree_simple_types@W4OpeningPlan@UAlbertaBot@@@std@@@std@@U_Iterator_base0@2@@std@@QAEAAV01@XZ 10024cd0 f i OpponentModel.obj
 0001:00023cd0       ??E?$_Tree_unchecked_const_iterator@V?$_Tree_val@U?$_Tree_simple_types@U?$pair@QAVUnitInterface@BWAPI@@W4WorkerJob@WorkerData@UAlbertaBot@@@std@@@std@@@std@@U_Iterator_base0@2@@std@@QAEAAV01@XZ 10024cd0 f i WorkerData.obj
 0001:00023cd0       ??E?$_Tree_unchecked_const_iterator@V?$_Tree_val@U?$_Tree_simple_types@U?$pair@$$CBV?$basic_string@DU?$char_traits@D@std@@V?$allocator@D@2@@std@@VSquad@UAlbertaBot@@@std@@@std@@@std@@U_Iterator_base0@2@@std@@QAEAAV01@XZ 10024cd0 f i CombatCommander.obj
 0001:00023cd0       ??E?$_Tree_unchecked_const_iterator@V?$_Tree_val@U?$_Tree_simple_types@U?$pair@QAVPlayerInterface@BWAPI@@VUnitData@UAlbertaBot@@@std@@@std@@@std@@U_Iterator_base0@2@@std@@QAEAAV01@XZ 10024cd0 f i InformationManager.obj
 0001:00023cd0       ??E?$_Tree_unchecked_const_iterator@V?$_Tree_val@U?$_Tree_simple_types@U?$pair@QAVBase@UAlbertaBot@@PAVUnitInterface@BWAPI@@@std@@@std@@@std@@U_Iterator_base0@2@@std@@QAEAAV01@XZ 10024cd0 f i MicroOverlords.obj
 0001:00023cd0       ??E?$_Tree_unchecked_const_iterator@V?$_Tree_val@U?$_Tree_simple_types@PBVZone@UAlbertaBot@@@std@@@std@@U_Iterator_base0@2@@std@@QAEAAV01@XZ 10024cd0 f i InformationManager.obj
 0001:00023cd0       ??E?$_Tree_unchecked_const_iterator@V?$_Tree_val@U?$_Tree_simple_types@U?$pair@QAVUnitInterface@BWAPI@@H@std@@@std@@@std@@U_Iterator_base0@2@@std@@QAEAAV01@XZ 10024cd0 f i WorkerData.obj
 0001:00023cd0       ??E?$_Tree_unchecked_const_iterator@V?$_Tree_val@U?$_Tree_simple_types@U?$pair@QAVUnitInterface@BWAPI@@PAVBase@UAlbertaBot@@@std@@@std@@@std@@U_Iterator_base0@2@@std@@QAEAAV01@XZ 10024cd0 f i Bases.obj
 0001:00023cd0       ??E?$_Tree_unchecked_const_iterator@V?$_Tree_val@U?$_Tree_simple_types@U?$pair@QAVUnitInterface@BWAPI@@VUnitType@2@@std@@@std@@@std@@U_Iterator_base0@2@@std@@QAEAAV01@XZ 10024cd0 f i WorkerData.obj
 0001:00023cd0       ??E?$_Tree_unchecked_const_iterator@V?$_Tree_val@U?$_Tree_simple_types@PAVZone@UAlbertaBot@@@std@@@std@@U_Iterator_base0@2@@std@@QAEAAV01@XZ 10024cd0 f i GridZone.obj
 0001:00023cd0       ??E?$_Tree_unchecked_const_iterator@V?$_Tree_val@U?$_Tree_simple_types@U?$pair@$$CBV?$basic_string@DU?$char_traits@D@std@@V?$allocator@D@2@@std@@VActionType@BOSS@@@std@@@std@@@std@@U_Iterator_base0@2@@std@@QAEAAV01@XZ 10024cd0 f i BOSS:ActionType.obj
 0001:00023cd0       ??E?$_Tree_unchecked_const_iterator@V?$_Tree_val@U?$_Tree_simple_types@PAVBase@UAlbertaBot@@@std@@@std@@U_Iterator_base0@2@@std@@QAEAAV01@XZ 10024cd0 f i MicroOverlords.obj
 0001:00023cd0       ??E?$_Tree_unchecked_const_iterator@V?$_Tree_val@U?$_Tree_simple_types@U?$pair@QAVUnitInterface@BWAPI@@UUnitInfo@UAlbertaBot@@@std@@@std@@@std@@U_Iterator_base0@2@@std@@QAEAAV01@XZ 10024cd0 f i Bases.obj
 0001:00023cd0       ??E?$_Tree_unchecked_const_iterator@V?$_Tree_val@U?$_Tree_simple_types@VUnitType@BWAPI@@@std@@@std@@U_Iterator_base0@2@@std@@QAEAAV01@XZ 10024cd0 f i MacroAct.obj
 0001:00023d20       ?_Reallocate@?$vector@PAVZone@UAlbertaBot@@V?$allocator@PAVZone@UAlbertaBot@@@std@@@std@@IAEXI@Z 10024d20 f i GridZone.obj
 0001:00023d20       ?_Reallocate@?$vector@IV?$allocator@_N@std@@@std@@IAEXI@Z 10024d20 f i MacroAct.obj
 0001:00023d20       ?_Reallocate@?$vector@PAUGameSnapshot@UAlbertaBot@@V?$allocator@PAUGameSnapshot@UAlbertaBot@@@std@@@std@@IAEXI@Z 10024d20 f i GameRecord.obj
 0001:00023d20       ?_Reallocate@?$vector@PAVGameRecord@UAlbertaBot@@V?$allocator@PAVGameRecord@UAlbertaBot@@@std@@@std@@IAEXI@Z 10024d20 f i OpponentModel.obj
 0001:00023d20       ?_Reallocate@?$vector@PAVUnitInterface@BWAPI@@V?$allocator@PAVUnitInterface@BWAPI@@@std@@@std@@IAEXI@Z 10024d20 f i Bases.obj
 0001:00023d20       ?_Reallocate@?$vector@PAVBase@UAlbertaBot@@V?$allocator@PAVBase@UAlbertaBot@@@std@@@std@@IAEXI@Z 10024d20 f i Bases.obj
 0001:00023d20       ?_Reallocate@?$vector@HV?$allocator@H@std@@@std@@IAEXI@Z 10024d20 f i ParseUtils.obj
 0001:00023da0       ?erase@?$_Tree@V?$_Tmap_traits@PAVUnitInterface@BWAPI@@HU?$less@PAVUnitInterface@BWAPI@@@std@@V?$allocator@U?$pair@QAVUnitInterface@BWAPI@@H@std@@@4@$0A@@std@@@std@@QAE?AV?$_Tree_iterator@V?$_Tree_val@U?$_Tree_simple_types@U?$pair@QAVUnitInterface@BWAPI@@H@std@@@std@@@std@@@2@V?$_Tree_const_iterator@V?$_Tree_val@U?$_Tree_simple_types@U?$pair@QAVUnitInterface@BWAPI@@H@std@@@std@@@std@@@2@0@Z 10024da0 f i WorkerData.obj
 0001:00023da0       ?erase@?$_Tree@V?$_Tmap_traits@PAVUnitInterface@BWAPI@@VMicroState@UAlbertaBot@@U?$less@PAVUnitInterface@BWAPI@@@std@@V?$allocator@U?$pair@QAVUnitInterface@BWAPI@@VMicroState@UAlbertaBot@@@std@@@6@$0A@@std@@@std@@QAE?AV?$_Tree_iterator@V?$_Tree_val@U?$_Tree_simple_types@U?$pair@QAVUnitInterface@BWAPI@@VMicroState@UAlbertaBot@@@std@@@std@@@std@@@2@V?$_Tree_const_iterator@V?$_Tree_val@U?$_Tree_simple_types@U?$pair@QAVUnitInterface@BWAPI@@VMicroState@UAlbertaBot@@@std@@@std@@@std@@@2@0@Z 10024da0 f i Micro.obj
 0001:00023da0       ?erase@?$_Tree@V?$_Tset_traits@VUnitType@BWAPI@@U?$less@VUnitType@BWAPI@@@std@@V?$allocator@VUnitType@BWAPI@@@4@$0A@@std@@@std@@QAE?AV?$_Tree_const_iterator@V?$_Tree_val@U?$_Tree_simple_types@VUnitType@BWAPI@@@std@@@std@@@2@V32@0@Z 10024da0 f i MacroAct.obj
 0001:00023da0       ?erase@?$_Tree@V?$_Tmap_traits@PAVUnitInterface@BWAPI@@W4WorkerJob@WorkerData@UAlbertaBot@@U?$less@PAVUnitInterface@BWAPI@@@std@@V?$allocator@U?$pair@QAVUnitInterface@BWAPI@@W4WorkerJob@WorkerData@UAlbertaBot@@@std@@@7@$0A@@std@@@std@@QAE?AV?$_Tree_iterator@V?$_Tree_val@U?$_Tree_simple_types@U?$pair@QAVUnitInterface@BWAPI@@W4WorkerJob@WorkerData@UAlbertaBot@@@std@@@std@@@std@@@2@V?$_Tree_const_iterator@V?$_Tree_val@U?$_Tree_simple_types@U?$pair@QAVUnitInterface@BWAPI@@W4WorkerJob@WorkerData@UAlbertaBot@@@std@@@std@@@std@@@2@0@Z 10024da0 f i WorkerData.obj
 0001:00023da0       ?erase@?$_Tree@V?$_Tset_traits@PAVBase@UAlbertaBot@@U?$less@PAVBase@UAlbertaBot@@@std@@V?$allocator@PAVBase@UAlbertaBot@@@4@$0A@@std@@@std@@QAE?AV?$_Tree_const_iterator@V?$_Tree_val@U?$_Tree_simple_types@PAVBase@UAlbertaBot@@@std@@@std@@@2@V32@0@Z 10024da0 f i MicroOverlords.obj
 0001:00023da0       ?erase@?$_Tree@V?$_Tset_traits@PAVZone@UAlbertaBot@@U?$less@PAVZone@UAlbertaBot@@@std@@V?$allocator@PAVZone@UAlbertaBot@@@4@$0A@@std@@@std@@QAE?AV?$_Tree_const_iterator@V?$_Tree_val@U?$_Tree_simple_types@PAVZone@UAlbertaBot@@@std@@@std@@@2@V32@0@Z 10024da0 f i GridZone.obj
 0001:00023da0       ?erase@?$_Tree@V?$_Tmap_traits@PAVUnitInterface@BWAPI@@_NU?$less@PAVUnitInterface@BWAPI@@@std@@V?$allocator@U?$pair@QAVUnitInterface@BWAPI@@_N@std@@@4@$0A@@std@@@std@@QAE?AV?$_Tree_iterator@V?$_Tree_val@U?$_Tree_simple_types@U?$pair@QAVUnitInterface@BWAPI@@_N@std@@@std@@@std@@@2@V?$_Tree_const_iterator@V?$_Tree_val@U?$_Tree_simple_types@U?$pair@QAVUnitInterface@BWAPI@@_N@std@@@std@@@std@@@2@0@Z 10024da0 f i Squad.obj
 0001:00023da0       ?erase@?$_Tree@V?$_Tmap_traits@PAVBase@UAlbertaBot@@PAVUnitInterface@BWAPI@@U?$less@PAVBase@UAlbertaBot@@@std@@V?$allocator@U?$pair@QAVBase@UAlbertaBot@@PAVUnitInterface@BWAPI@@@std@@@6@$0A@@std@@@std@@QAE?AV?$_Tree_iterator@V?$_Tree_val@U?$_Tree_simple_types@U?$pair@QAVBase@UAlbertaBot@@PAVUnitInterface@BWAPI@@@std@@@std@@@std@@@2@V?$_Tree_const_iterator@V?$_Tree_val@U?$_Tree_simple_types@U?$pair@QAVBase@UAlbertaBot@@PAVUnitInterface@BWAPI@@@std@@@std@@@std@@@2@0@Z 10024da0 f i MicroOverlords.obj
 0001:00023da0       ?erase@?$_Tree@V?$_Tset_traits@PBVZone@UAlbertaBot@@U?$less@PBVZone@UAlbertaBot@@@std@@V?$allocator@PBVZone@UAlbertaBot@@@4@$0A@@std@@@std@@QAE?AV?$_Tree_const_iterator@V?$_Tree_val@U?$_Tree_simple_types@PBVZone@UAlbertaBot@@@std@@@std@@@2@V32@0@Z 10024da0 f i InformationManager.obj
 0001:00023da0       ?erase@?$_Tree@V?$_Tmap_traits@PAVUnitInterface@BWAPI@@UUnitInfo@UAlbertaBot@@U?$less@PAVUnitInterface@BWAPI@@@std@@V?$allocator@U?$pair@QAVUnitInterface@BWAPI@@UUnitInfo@UAlbertaBot@@@std@@@6@$0A@@std@@@std@@QAE?AV?$_Tree_iterator@V?$_Tree_val@U?$_Tree_simple_types@U?$pair@QAVUnitInterface@BWAPI@@UUnitInfo@UAlbertaBot@@@std@@@std@@@std@@@2@V?$_Tree_const_iterator@V?$_Tree_val@U?$_Tree_simple_types@U?$pair@QAVUnitInterface@BWAPI@@UUnitInfo@UAlbertaBot@@@std@@@std@@@std@@@2@0@Z 10024da0 f i InformationManager.obj
 0001:00023da0       ?erase@?$_Tree@V?$_Tmap_traits@PAVUnitInterface@BWAPI@@PAVBase@UAlbertaBot@@U?$less@PAVUnitInterface@BWAPI@@@std@@V?$allocator@U?$pair@QAVUnitInterface@BWAPI@@PAVBase@UAlbertaBot@@@std@@@6@$0A@@std@@@std@@QAE?AV?$_Tree_iterator@V?$_Tree_val@U?$_Tree_simple_types@U?$pair@QAVUnitInterface@BWAPI@@PAVBase@UAlbertaBot@@@std@@@std@@@std@@@2@V?$_Tree_const_iterator@V?$_Tree_val@U?$_Tree_simple_types@U?$pair@QAVUnitInterface@BWAPI@@PAVBase@UAlbertaBot@@@std@@@std@@@std@@@2@0@Z 10024da0 f i Bases.obj
 0001:00023da0       ?erase@?$_Tree@V?$_Tmap_traits@PAVUnitInterface@BWAPI@@PAV12@U?$less@PAVUnitInterface@BWAPI@@@std@@V?$allocator@U?$pair@QAVUnitInterface@BWAPI@@PAV12@@std@@@4@$0A@@std@@@std@@QAE?AV?$_Tree_iterator@V?$_Tree_val@U?$_Tree_simple_types@U?$pair@QAVUnitInterface@BWAPI@@PAV12@@std@@@std@@@std@@@2@V?$_Tree_const_iterator@V?$_Tree_val@U?$_Tree_simple_types@U?$pair@QAVUnitInterface@BWAPI@@PAV12@@std@@@std@@@std@@@2@0@Z 10024da0 f i WorkerData.obj
 0001:00023da0       ?erase@?$_Tree@V?$_Tset_traits@PAVUnitInterface@BWAPI@@U?$less@PAVUnitInterface@BWAPI@@@std@@V?$allocator@PAVUnitInterface@BWAPI@@@4@$0A@@std@@@std@@QAE?AV?$_Tree_const_iterator@V?$_Tree_val@U?$_Tree_simple_types@PAVUnitInterface@BWAPI@@@std@@@std@@@2@V32@0@Z 10024da0 f i WorkerManager.obj
 0001:00023da0       ?erase@?$_Tree@V?$_Tset_traits@W4OpeningPlan@UAlbertaBot@@U?$less@W4OpeningPlan@UAlbertaBot@@@std@@V?$allocator@W4OpeningPlan@UAlbertaBot@@@4@$0A@@std@@@std@@QAE?AV?$_Tree_const_iterator@V?$_Tree_val@U?$_Tree_simple_types@W4OpeningPlan@UAlbertaBot@@@std@@@std@@@2@V32@0@Z 10024da0 f i OpponentModel.obj
 0001:00023da0       ?erase@?$_Tree@V?$_Tmap_traits@VUnitType@BWAPI@@HU?$less@VUnitType@BWAPI@@@std@@V?$allocator@U?$pair@$$CBVUnitType@BWAPI@@H@std@@@4@$0A@@std@@@std@@QAE?AV?$_Tree_iterator@V?$_Tree_val@U?$_Tree_simple_types@U?$pair@$$CBVUnitType@BWAPI@@H@std@@@std@@@std@@@2@V?$_Tree_const_iterator@V?$_Tree_val@U?$_Tree_simple_types@U?$pair@$$CBVUnitType@BWAPI@@H@std@@@std@@@std@@@2@0@Z 10024da0 f i GameRecord.obj
 0001:00023da0       ?erase@?$_Tree@V?$_Tmap_traits@PAVUnitInterface@BWAPI@@VUnitType@2@U?$less@PAVUnitInterface@BWAPI@@@std@@V?$allocator@U?$pair@QAVUnitInterface@BWAPI@@VUnitType@2@@std@@@5@$0A@@std@@@std@@QAE?AV?$_Tree_iterator@V?$_Tree_val@U?$_Tree_simple_types@U?$pair@QAVUnitInterface@BWAPI@@VUnitType@2@@std@@@std@@@std@@@2@V?$_Tree_const_iterator@V?$_Tree_val@U?$_Tree_simple_types@U?$pair@QAVUnitInterface@BWAPI@@VUnitType@2@@std@@@std@@@std@@@2@0@Z 10024da0 f i WorkerData.obj
 0001:00023e60       ?_Reallocate@?$vector@VUnitset@BWAPI@@V?$allocator@VUnitset@BWAPI@@@std@@@std@@IAEXI@Z 10024e60 f i Bases.obj
 0001:00023f40       ?_Reallocate@?$vector@VPotentialBase@UAlbertaBot@@V?$allocator@VPotentialBase@UAlbertaBot@@@std@@@std@@IAEXI@Z 10024f40 f i Bases.obj
 0001:00023fd0       ?_Copy@?$_Hash@V?$_Uset_traits@PAVUnitInterface@BWAPI@@V?$_Uhash_compare@PAVUnitInterface@BWAPI@@U?$hash@PAX@std@@U?$equal_to@PAVUnitInterface@BWAPI@@@4@@std@@V?$allocator@PAVUnitInterface@BWAPI@@@4@$0A@@std@@@std@@IAEXABV12@@Z 10024fd0 f i Bases.obj
 0001:000240a0       ?_Erase@?$_Tree@V?$_Tmap_traits@PAVUnitInterface@BWAPI@@VUnitType@2@U?$less@PAVUnitInterface@BWAPI@@@std@@V?$allocator@U?$pair@QAVUnitInterface@BWAPI@@VUnitType@2@@std@@@5@$0A@@std@@@std@@IAEXPAU?$_Tree_node@U?$pair@QAVUnitInterface@BWAPI@@VUnitType@2@@std@@PAX@2@@Z 100250a0 f i WorkerData.obj
 0001:000240a0       ?_Erase@?$_Tree@V?$_Tmap_traits@PAVUnitInterface@BWAPI@@PAVBase@UAlbertaBot@@U?$less@PAVUnitInterface@BWAPI@@@std@@V?$allocator@U?$pair@QAVUnitInterface@BWAPI@@PAVBase@UAlbertaBot@@@std@@@6@$0A@@std@@@std@@IAEXPAU?$_Tree_node@U?$pair@QAVUnitInterface@BWAPI@@PAVBase@UAlbertaBot@@@std@@PAX@2@@Z 100250a0 f i Bases.obj
 0001:000240a0       ?_Erase@?$_Tree@V?$_Tset_traits@PAVZone@UAlbertaBot@@U?$less@PAVZone@UAlbertaBot@@@std@@V?$allocator@PAVZone@UAlbertaBot@@@4@$0A@@std@@@std@@IAEXPAU?$_Tree_node@PAVZone@UAlbertaBot@@PAX@2@@Z 100250a0 f i GridZone.obj
 0001:000240a0       ?_Erase@?$_Tree@V?$_Tmap_traits@PAVUnitInterface@BWAPI@@VMicroState@UAlbertaBot@@U?$less@PAVUnitInterface@BWAPI@@@std@@V?$allocator@U?$pair@QAVUnitInterface@BWAPI@@VMicroState@UAlbertaBot@@@std@@@6@$0A@@std@@@std@@IAEXPAU?$_Tree_node@U?$pair@QAVUnitInterface@BWAPI@@VMicroState@UAlbertaBot@@@std@@PAX@2@@Z 100250a0 f i Micro.obj
 0001:000240a0       ?_Erase@?$_Tree@V?$_Tset_traits@PAVBase@UAlbertaBot@@U?$less@PAVBase@UAlbertaBot@@@std@@V?$allocator@PAVBase@UAlbertaBot@@@4@$0A@@std@@@std@@IAEXPAU?$_Tree_node@PAVBase@UAlbertaBot@@PAX@2@@Z 100250a0 f i MicroOverlords.obj
 0001:000240a0       ?_Erase@?$_Tree@V?$_Tset_traits@PBVZone@UAlbertaBot@@U?$less@PBVZone@UAlbertaBot@@@std@@V?$allocator@PBVZone@UAlbertaBot@@@4@$0A@@std@@@std@@IAEXPAU?$_Tree_node@PBVZone@UAlbertaBot@@PAX@2@@Z 100250a0 f i InformationManager.obj
 0001:000240a0       ?_Erase@?$_Tree@V?$_Tset_traits@VUnitType@BWAPI@@U?$less@VUnitType@BWAPI@@@std@@V?$allocator@VUnitType@BWAPI@@@4@$0A@@std@@@std@@IAEXPAU?$_Tree_node@VUnitType@BWAPI@@PAX@2@@Z 100250a0 f i MacroAct.obj
 0001:000240a0       ?_Erase@?$_Tree@V?$_Tmap_traits@PAVBase@UAlbertaBot@@PAVUnitInterface@BWAPI@@U?$less@PAVBase@UAlbertaBot@@@std@@V?$allocator@U?$pair@QAVBase@UAlbertaBot@@PAVUnitInterface@BWAPI@@@std@@@6@$0A@@std@@@std@@IAEXPAU?$_Tree_node@U?$pair@QAVBase@UAlbertaBot@@PAVUnitInterface@BWAPI@@@std@@PAX@2@@Z 100250a0 f i MicroOverlords.obj
 0001:000240a0       ?_Erase@?$_Tree@V?$_Tmap_traits@VUnitType@BWAPI@@HU?$less@VUnitType@BWAPI@@@std@@V?$allocator@U?$pair@$$CBVUnitType@BWAPI@@H@std@@@4@$0A@@std@@@std@@IAEXPAU?$_Tree_node@U?$pair@$$CBVUnitType@BWAPI@@H@std@@PAX@2@@Z 100250a0 f i GameRecord.obj
 0001:000240a0       ?_Erase@?$_Tree@V?$_Tset_traits@PAVUnitInterface@BWAPI@@U?$less@PAVUnitInterface@BWAPI@@@std@@V?$allocator@PAVUnitInterface@BWAPI@@@4@$0A@@std@@@std@@IAEXPAU?$_Tree_node@PAVUnitInterface@BWAPI@@PAX@2@@Z 100250a0 f i WorkerManager.obj
 0001:000240a0       ?_Erase@?$_Tree@V?$_Tmap_traits@PAVUnitInterface@BWAPI@@PAV12@U?$less@PAVUnitInterface@BWAPI@@@std@@V?$allocator@U?$pair@QAVUnitInterface@BWAPI@@PAV12@@std@@@4@$0A@@std@@@std@@IAEXPAU?$_Tree_node@U?$pair@QAVUnitInterface@BWAPI@@PAV12@@std@@PAX@2@@Z 100250a0 f i WorkerData.obj
 0001:000240a0       ?_Erase@?$_Tree@V?$_Tmap_traits@PAVUnitInterface@BWAPI@@HU?$less@PAVUnitInterface@BWAPI@@@std@@V?$allocator@U?$pair@QAVUnitInterface@BWAPI@@H@std@@@4@$0A@@std@@@std@@IAEXPAU?$_Tree_node@U?$pair@QAVUnitInterface@BWAPI@@H@std@@PAX@2@@Z 100250a0 f i WorkerData.obj
 0001:000240a0       ?_Erase@?$_Tree@V?$_Tmap_traits@PAVUnitInterface@BWAPI@@W4WorkerJob@WorkerData@UAlbertaBot@@U?$less@PAVUnitInterface@BWAPI@@@std@@V?$allocator@U?$pair@QAVUnitInterface@BWAPI@@W4WorkerJob@WorkerData@UAlbertaBot@@@std@@@7@$0A@@std@@@std@@IAEXPAU?$_Tree_node@U?$pair@QAVUnitInterface@BWAPI@@W4WorkerJob@WorkerData@UAlbertaBot@@@std@@PAX@2@@Z 100250a0 f i WorkerData.obj
 0001:000240a0       ?_Erase@?$_Tree@V?$_Tset_traits@W4OpeningPlan@UAlbertaBot@@U?$less@W4OpeningPlan@UAlbertaBot@@@std@@V?$allocator@W4OpeningPlan@UAlbertaBot@@@4@$0A@@std@@@std@@IAEXPAU?$_Tree_node@W4OpeningPlan@UAlbertaBot@@PAX@2@@Z 100250a0 f i OpponentModel.obj
 0001:000240a0       ?_Erase@?$_Tree@V?$_Tmap_traits@PAVUnitInterface@BWAPI@@UUnitInfo@UAlbertaBot@@U?$less@PAVUnitInterface@BWAPI@@@std@@V?$allocator@U?$pair@QAVUnitInterface@BWAPI@@UUnitInfo@UAlbertaBot@@@std@@@6@$0A@@std@@@std@@IAEXPAU?$_Tree_node@U?$pair@QAVUnitInterface@BWAPI@@UUnitInfo@UAlbertaBot@@@std@@PAX@2@@Z 100250a0 f i InformationManager.obj
 0001:000240a0       ?_Erase@?$_Tree@V?$_Tmap_traits@PAVUnitInterface@BWAPI@@_NU?$less@PAVUnitInterface@BWAPI@@@std@@V?$allocator@U?$pair@QAVUnitInterface@BWAPI@@_N@std@@@4@$0A@@std@@@std@@IAEXPAU?$_Tree_node@U?$pair@QAVUnitInterface@BWAPI@@_N@std@@PAX@2@@Z 100250a0 f i Squad.obj
 0001:000240f0       ?_Buyheadnode@?$_Tree_alloc@$0A@U?$_Tree_base_types@U?$pair@QAVUnitInterface@BWAPI@@PAVBase@UAlbertaBot@@@std@@V?$allocator@U?$pair@QAVUnitInterface@BWAPI@@PAVBase@UAlbertaBot@@@std@@@2@@std@@@std@@QAEPAU?$_Tree_node@U?$pair@QAVUnitInterface@BWAPI@@PAVBase@UAlbertaBot@@@std@@PAX@2@XZ 100250f0 f i Bases.obj
 0001:000240f0       ?_Buyheadnode@?$_Tree_alloc@$0A@U?$_Tree_base_types@U?$pair@QAVUnitInterface@BWAPI@@H@std@@V?$allocator@U?$pair@QAVUnitInterface@BWAPI@@H@std@@@2@@std@@@std@@QAEPAU?$_Tree_node@U?$pair@QAVUnitInterface@BWAPI@@H@std@@PAX@2@XZ 100250f0 f i WorkerData.obj
 0001:000240f0       ?_Buyheadnode@?$_Tree_alloc@$0A@U?$_Tree_base_types@U?$pair@QAVUnitInterface@BWAPI@@W4WorkerJob@WorkerData@UAlbertaBot@@@std@@V?$allocator@U?$pair@QAVUnitInterface@BWAPI@@W4WorkerJob@WorkerData@UAlbertaBot@@@std@@@2@@std@@@std@@QAEPAU?$_Tree_node@U?$pair@QAVUnitInterface@BWAPI@@W4WorkerJob@WorkerData@UAlbertaBot@@@std@@PAX@2@XZ 100250f0 f i WorkerData.obj
 0001:000240f0       ?_Buyheadnode@?$_Tree_alloc@$0A@U?$_Tree_base_types@U?$pair@QAVBase@UAlbertaBot@@PAVUnitInterface@BWAPI@@@std@@V?$allocator@U?$pair@QAVBase@UAlbertaBot@@PAVUnitInterface@BWAPI@@@std@@@2@@std@@@std@@QAEPAU?$_Tree_node@U?$pair@QAVBase@UAlbertaBot@@PAVUnitInterface@BWAPI@@@std@@PAX@2@XZ 100250f0 f i MicroOverlords.obj
 0001:000240f0       ?_Buyheadnode@?$_Tree_alloc@$0A@U?$_Tree_base_types@U?$pair@QAVUnitInterface@BWAPI@@_N@std@@V?$allocator@U?$pair@QAVUnitInterface@BWAPI@@_N@std@@@2@@std@@@std@@QAEPAU?$_Tree_node@U?$pair@QAVUnitInterface@BWAPI@@_N@std@@PAX@2@XZ 100250f0 f i Squad.obj
 0001:000240f0       ?_Buyheadnode@?$_Tree_alloc@$0A@U?$_Tree_base_types@U?$pair@QAVUnitInterface@BWAPI@@PAV12@@std@@V?$allocator@U?$pair@QAVUnitInterface@BWAPI@@PAV12@@std@@@2@@std@@@std@@QAEPAU?$_Tree_node@U?$pair@QAVUnitInterface@BWAPI@@PAV12@@std@@PAX@2@XZ 100250f0 f i MicroMutas.obj
 0001:000240f0       ?_Buyheadnode@?$_Tree_alloc@$0A@U?$_Tree_base_types@U?$pair@QAVUnitInterface@BWAPI@@VUnitType@2@@std@@V?$allocator@U?$pair@QAVUnitInterface@BWAPI@@VUnitType@2@@std@@@2@@std@@@std@@QAEPAU?$_Tree_node@U?$pair@QAVUnitInterface@BWAPI@@VUnitType@2@@std@@PAX@2@XZ 100250f0 f i WorkerData.obj
 0001:000240f0       ?_Buyheadnode@?$_Tree_alloc@$0A@U?$_Tree_base_types@U?$pair@$$CBVUnitType@BWAPI@@H@std@@V?$allocator@U?$pair@$$CBVUnitType@BWAPI@@H@std@@@2@@std@@@std@@QAEPAU?$_Tree_node@U?$pair@$$CBVUnitType@BWAPI@@H@std@@PAX@2@XZ 100250f0 f i GameRecord.obj
 0001:00024120       ??$insert@V?$_List_const_iterator@V?$_List_val@U?$_List_simple_types@PAVUnitInterface@BWAPI@@@std@@@std@@@std@@@?$_Hash@V?$_Uset_traits@PAVUnitInterface@BWAPI@@V?$_Uhash_compare@PAVUnitInterface@BWAPI@@U?$hash@PAX@std@@U?$equal_to@PAVUnitInterface@BWAPI@@@4@@std@@V?$allocator@PAVUnitInterface@BWAPI@@@4@$0A@@std@@@std@@QAEXV?$_List_const_iterator@V?$_List_val@U?$_List_simple_types@PAVUnitInterface@BWAPI@@@std@@@std@@@1@0@Z 10025120 f i Bases.obj
 0001:000241a0       ??$_Buynode@ABUpiecewise_construct_t@std@@V?$tuple@ABQAVUnitInterface@BWAPI@@@2@V?$tuple@$$$V@2@@?$_Tree_buy@U?$pair@QAVUnitInterface@BWAPI@@PAV12@@std@@V?$allocator@U?$pair@QAVUnitInterface@BWAPI@@PAV12@@std@@@2@@std@@QAEPAU?$_Tree_node@U?$pair@QAVUnitInterface@BWAPI@@PAV12@@std@@PAX@1@ABUpiecewise_construct_t@1@$$QAV?$tuple@ABQAVUnitInterface@BWAPI@@@1@$$QAV?$tuple@$$$V@1@@Z 100251a0 f i WorkerData.obj
 0001:000241a0       ??$_Buynode@ABUpiecewise_construct_t@std@@V?$tuple@ABVUnitType@BWAPI@@@2@V?$tuple@$$$V@2@@?$_Tree_buy@U?$pair@$$CBVUnitType@BWAPI@@H@std@@V?$allocator@U?$pair@$$CBVUnitType@BWAPI@@H@std@@@2@@std@@QAEPAU?$_Tree_node@U?$pair@$$CBVUnitType@BWAPI@@H@std@@PAX@1@ABUpiecewise_construct_t@1@$$QAV?$tuple@ABVUnitType@BWAPI@@@1@$$QAV?$tuple@$$$V@1@@Z 100251a0 f i PlayerSnapshot.obj
 0001:000241a0       ??$_Buynode@ABUpiecewise_construct_t@std@@V?$tuple@ABQAVUnitInterface@BWAPI@@@2@V?$tuple@$$$V@2@@?$_Tree_buy@U?$pair@QAVUnitInterface@BWAPI@@H@std@@V?$allocator@U?$pair@QAVUnitInterface@BWAPI@@H@std@@@2@@std@@QAEPAU?$_Tree_node@U?$pair@QAVUnitInterface@BWAPI@@H@std@@PAX@1@ABUpiecewise_construct_t@1@$$QAV?$tuple@ABQAVUnitInterface@BWAPI@@@1@$$QAV?$tuple@$$$V@1@@Z 100251a0 f i WorkerData.obj
 0001:000241a0       ??$_Buynode@ABUpiecewise_construct_t@std@@V?$tuple@ABQAVUnitInterface@BWAPI@@@2@V?$tuple@$$$V@2@@?$_Tree_buy@U?$pair@QAVUnitInterface@BWAPI@@W4WorkerJob@WorkerData@UAlbertaBot@@@std@@V?$allocator@U?$pair@QAVUnitInterface@BWAPI@@W4WorkerJob@WorkerData@UAlbertaBot@@@std@@@2@@std@@QAEPAU?$_Tree_node@U?$pair@QAVUnitInterface@BWAPI@@W4WorkerJob@WorkerData@UAlbertaBot@@@std@@PAX@1@ABUpiecewise_construct_t@1@$$QAV?$tuple@ABQAVUnitInterface@BWAPI@@@1@$$QAV?$tuple@$$$V@1@@Z 100251a0 f i WorkerData.obj
 0001:000241a0       ??$_Buynode@ABUpiecewise_construct_t@std@@V?$tuple@ABQAVUnitInterface@BWAPI@@@2@V?$tuple@$$$V@2@@?$_Tree_buy@U?$pair@QAVUnitInterface@BWAPI@@PAVBase@UAlbertaBot@@@std@@V?$allocator@U?$pair@QAVUnitInterface@BWAPI@@PAVBase@UAlbertaBot@@@std@@@2@@std@@QAEPAU?$_Tree_node@U?$pair@QAVUnitInterface@BWAPI@@PAVBase@UAlbertaBot@@@std@@PAX@1@ABUpiecewise_construct_t@1@$$QAV?$tuple@ABQAVUnitInterface@BWAPI@@@1@$$QAV?$tuple@$$$V@1@@Z 100251a0 f i Bases.obj
 0001:000241a0       ??$_Buynode@ABUpiecewise_construct_t@std@@V?$tuple@$$QAVUnitType@BWAPI@@@2@V?$tuple@$$$V@2@@?$_Tree_buy@U?$pair@$$CBVUnitType@BWAPI@@H@std@@V?$allocator@U?$pair@$$CBVUnitType@BWAPI@@H@std@@@2@@std@@QAEPAU?$_Tree_node@U?$pair@$$CBVUnitType@BWAPI@@H@std@@PAX@1@ABUpiecewise_construct_t@1@$$QAV?$tuple@$$QAVUnitType@BWAPI@@@1@$$QAV?$tuple@$$$V@1@@Z 100251a0 f i GameRecord.obj
 0001:000241a0       ??$_Buynode@ABUpiecewise_construct_t@std@@V?$tuple@ABQAVBase@UAlbertaBot@@@2@V?$tuple@$$$V@2@@?$_Tree_buy@U?$pair@QAVBase@UAlbertaBot@@PAVUnitInterface@BWAPI@@@std@@V?$allocator@U?$pair@QAVBase@UAlbertaBot@@PAVUnitInterface@BWAPI@@@std@@@2@@std@@QAEPAU?$_Tree_node@U?$pair@QAVBase@UAlbertaBot@@PAVUnitInterface@BWAPI@@@std@@PAX@1@ABUpiecewise_construct_t@1@$$QAV?$tuple@ABQAVBase@UAlbertaBot@@@1@$$QAV?$tuple@$$$V@1@@Z 100251a0 f i MicroOverlords.obj
 0001:000241d0       ??$_Insert_hint@AAU?$pair@QAVUnitInterface@BWAPI@@_N@std@@PAU?$_Tree_node@U?$pair@QAVUnitInterface@BWAPI@@_N@std@@PAX@2@@?$_Tree@V?$_Tmap_traits@PAVUnitInterface@BWAPI@@_NU?$less@PAVUnitInterface@BWAPI@@@std@@V?$allocator@U?$pair@QAVUnitInterface@BWAPI@@_N@std@@@4@$0A@@std@@@std@@IAE?AV?$_Tree_iterator@V?$_Tree_val@U?$_Tree_simple_types@U?$pair@QAVUnitInterface@BWAPI@@_N@std@@@std@@@std@@@1@V?$_Tree_const_iterator@V?$_Tree_val@U?$_Tree_simple_types@U?$pair@QAVUnitInterface@BWAPI@@_N@std@@@std@@@std@@@1@AAU?$pair@QAVUnitInterface@BWAPI@@_N@1@PAU?$_Tree_node@U?$pair@QAVUnitInterface@BWAPI@@_N@std@@PAX@1@@Z 100251d0 f i Squad.obj
 0001:000241d0       ??$_Insert_hint@AAU?$pair@QAVUnitInterface@BWAPI@@VUnitType@2@@std@@PAU?$_Tree_node@U?$pair@QAVUnitInterface@BWAPI@@VUnitType@2@@std@@PAX@2@@?$_Tree@V?$_Tmap_traits@PAVUnitInterface@BWAPI@@VUnitType@2@U?$less@PAVUnitInterface@BWAPI@@@std@@V?$allocator@U?$pair@QAVUnitInterface@BWAPI@@VUnitType@2@@std@@@5@$0A@@std@@@std@@IAE?AV?$_Tree_iterator@V?$_Tree_val@U?$_Tree_simple_types@U?$pair@QAVUnitInterface@BWAPI@@VUnitType@2@@std@@@std@@@std@@@1@V?$_Tree_const_iterator@V?$_Tree_val@U?$_Tree_simple_types@U?$pair@QAVUnitInterface@BWAPI@@VUnitType@2@@std@@@std@@@std@@@1@AAU?$pair@QAVUnitInterface@BWAPI@@VUnitType@2@@1@PAU?$_Tree_node@U?$pair@QAVUnitInterface@BWAPI@@VUnitType@2@@std@@PAX@1@@Z 100251d0 f i WorkerData.obj
 0001:000241d0       ??$_Insert_hint@AAU?$pair@QAVBase@UAlbertaBot@@PAVUnitInterface@BWAPI@@@std@@PAU?$_Tree_node@U?$pair@QAVBase@UAlbertaBot@@PAVUnitInterface@BWAPI@@@std@@PAX@2@@?$_Tree@V?$_Tmap_traits@PAVBase@UAlbertaBot@@PAVUnitInterface@BWAPI@@U?$less@PAVBase@UAlbertaBot@@@std@@V?$allocator@U?$pair@QAVBase@UAlbertaBot@@PAVUnitInterface@BWAPI@@@std@@@6@$0A@@std@@@std@@IAE?AV?$_Tree_iterator@V?$_Tree_val@U?$_Tree_simple_types@U?$pair@QAVBase@UAlbertaBot@@PAVUnitInterface@BWAPI@@@std@@@std@@@std@@@1@V?$_Tree_const_iterator@V?$_Tree_val@U?$_Tree_simple_types@U?$pair@QAVBase@UAlbertaBot@@PAVUnitInterface@BWAPI@@@std@@@std@@@std@@@1@AAU?$pair@QAVBase@UAlbertaBot@@PAVUnitInterface@BWAPI@@@1@PAU?$_Tree_node@U?$pair@QAVBase@UAlbertaBot@@PAVUnitInterface@BWAPI@@@std@@PAX@1@@Z 100251d0 f i MicroOverlords.obj
 0001:000241d0       ??$_Insert_hint@AAU?$pair@QAVUnitInterface@BWAPI@@PAV12@@std@@PAU?$_Tree_node@U?$pair@QAVUnitInterface@BWAPI@@PAV12@@std@@PAX@2@@?$_Tree@V?$_Tmap_traits@PAVUnitInterface@BWAPI@@PAV12@U?$less@PAVUnitInterface@BWAPI@@@std@@V?$allocator@U?$pair@QAVUnitInterface@BWAPI@@PAV12@@std@@@4@$0A@@std@@@std@@IAE?AV?$_Tree_iterator@V?$_Tree_val@U?$_Tree_simple_types@U?$pair@QAVUnitInterface@BWAPI@@PAV12@@std@@@std@@@std@@@1@V?$_Tree_const_iterator@V?$_Tree_val@U?$_Tree_simple_types@U?$pair@QAVUnitInterface@BWAPI@@PAV12@@std@@@std@@@std@@@1@AAU?$pair@QAVUnitInterface@BWAPI@@PAV12@@1@PAU?$_Tree_node@U?$pair@QAVUnitInterface@BWAPI@@PAV12@@std@@PAX@1@@Z 100251d0 f i WorkerData.obj
 0001:000241d0       ??$_Insert_hint@AAU?$pair@QAVUnitInterface@BWAPI@@H@std@@PAU?$_Tree_node@U?$pair@QAVUnitInterface@BWAPI@@H@std@@PAX@2@@?$_Tree@V?$_Tmap_traits@PAVUnitInterface@BWAPI@@HU?$less@PAVUnitInterface@BWAPI@@@std@@V?$allocator@U?$pair@QAVUnitInterface@BWAPI@@H@std@@@4@$0A@@std@@@std@@IAE?AV?$_Tree_iterator@V?$_Tree_val@U?$_Tree_simple_types@U?$pair@QAVUnitInterface@BWAPI@@H@std@@@std@@@std@@@1@V?$_Tree_const_iterator@V?$_Tree_val@U?$_Tree_simple_types@U?$pair@QAVUnitInterface@BWAPI@@H@std@@@std@@@std@@@1@AAU?$pair@QAVUnitInterface@BWAPI@@H@1@PAU?$_Tree_node@U?$pair@QAVUnitInterface@BWAPI@@H@std@@PAX@1@@Z 100251d0 f i WorkerData.obj
 0001:000241d0       ??$_Insert_hint@AAU?$pair@QAVUnitInterface@BWAPI@@PAVBase@UAlbertaBot@@@std@@PAU?$_Tree_node@U?$pair@QAVUnitInterface@BWAPI@@PAVBase@UAlbertaBot@@@std@@PAX@2@@?$_Tree@V?$_Tmap_traits@PAVUnitInterface@BWAPI@@PAVBase@UAlbertaBot@@U?$less@PAVUnitInterface@BWAPI@@@std@@V?$allocator@U?$pair@QAVUnitInterface@BWAPI@@PAVBase@UAlbertaBot@@@std@@@6@$0A@@std@@@std@@IAE?AV?$_Tree_iterator@V?$_Tree_val@U?$_Tree_simple_types@U?$pair@QAVUnitInterface@BWAPI@@PAVBase@UAlbertaBot@@@std@@@std@@@std@@@1@V?$_Tree_const_iterator@V?$_Tree_val@U?$_Tree_simple_types@U?$pair@QAVUnitInterface@BWAPI@@PAVBase@UAlbertaBot@@@std@@@std@@@std@@@1@AAU?$pair@QAVUnitInterface@BWAPI@@PAVBase@UAlbertaBot@@@1@PAU?$_Tree_node@U?$pair@QAVUnitInterface@BWAPI@@PAVBase@UAlbertaBot@@@std@@PAX@1@@Z 100251d0 f i Bases.obj
 0001:000241d0       ??$_Insert_hint@AAU?$pair@QAVUnitInterface@BWAPI@@W4WorkerJob@WorkerData@UAlbertaBot@@@std@@PAU?$_Tree_node@U?$pair@QAVUnitInterface@BWAPI@@W4WorkerJob@WorkerData@UAlbertaBot@@@std@@PAX@2@@?$_Tree@V?$_Tmap_traits@PAVUnitInterface@BWAPI@@W4WorkerJob@WorkerData@UAlbertaBot@@U?$less@PAVUnitInterface@BWAPI@@@std@@V?$allocator@U?$pair@QAVUnitInterface@BWAPI@@W4WorkerJob@WorkerData@UAlbertaBot@@@std@@@7@$0A@@std@@@std@@IAE?AV?$_Tree_iterator@V?$_Tree_val@U?$_Tree_simple_types@U?$pair@QAVUnitInterface@BWAPI@@W4WorkerJob@WorkerData@UAlbertaBot@@@std@@@std@@@std@@@1@V?$_Tree_const_iterator@V?$_Tree_val@U?$_Tree_simple_types@U?$pair@QAVUnitInterface@BWAPI@@W4WorkerJob@WorkerData@UAlbertaBot@@@std@@@std@@@std@@@1@AAU?$pair@QAVUnitInterface@BWAPI@@W4WorkerJob@WorkerData@UAlbertaBot@@@1@PAU?$_Tree_node@U?$pair@QAVUnitInterface@BWAPI@@W4WorkerJob@WorkerData@UAlbertaBot@@@std@@PAX@1@@Z 100251d0 f i WorkerData.obj
 0001:000243f0       ??$_Destroy_range@U?$_Wrap_alloc@V?$allocator@VUnitset@BWAPI@@@std@@@std@@@std@@YAXPAVUnitset@BWAPI@@0AAU?$_Wrap_alloc@V?$allocator@VUnitset@BWAPI@@@std@@@0@U_Nonscalar_ptr_iterator_tag@0@@Z 100253f0 f i Bases.obj
 0001:00024470       ?_Buynode0@?$_Tree_buy@U?$pair@QAVUnitInterface@BWAPI@@W4WorkerJob@WorkerData@UAlbertaBot@@@std@@V?$allocator@U?$pair@QAVUnitInterface@BWAPI@@W4WorkerJob@WorkerData@UAlbertaBot@@@std@@@2@@std@@QAEPAU?$_Tree_node@U?$pair@QAVUnitInterface@BWAPI@@W4WorkerJob@WorkerData@UAlbertaBot@@@std@@PAX@2@XZ 10025470 f i WorkerData.obj
 0001:00024470       ?_Buynode0@?$_Tree_buy@U?$pair@QAVUnitInterface@BWAPI@@PAV12@@std@@V?$allocator@U?$pair@QAVUnitInterface@BWAPI@@PAV12@@std@@@2@@std@@QAEPAU?$_Tree_node@U?$pair@QAVUnitInterface@BWAPI@@PAV12@@std@@PAX@2@XZ 10025470 f i MicroMutas.obj
 0001:00024470       ?_Buynode0@?$_Tree_buy@U?$pair@QAVUnitInterface@BWAPI@@_N@std@@V?$allocator@U?$pair@QAVUnitInterface@BWAPI@@_N@std@@@2@@std@@QAEPAU?$_Tree_node@U?$pair@QAVUnitInterface@BWAPI@@_N@std@@PAX@2@XZ 10025470 f i Squad.obj
 0001:00024470       ?_Buynode0@?$_Tree_buy@U?$pair@QAVUnitInterface@BWAPI@@H@std@@V?$allocator@U?$pair@QAVUnitInterface@BWAPI@@H@std@@@2@@std@@QAEPAU?$_Tree_node@U?$pair@QAVUnitInterface@BWAPI@@H@std@@PAX@2@XZ 10025470 f i WorkerData.obj
 0001:00024470       ?_Buynode0@?$_Tree_buy@U?$pair@$$CBVUnitType@BWAPI@@H@std@@V?$allocator@U?$pair@$$CBVUnitType@BWAPI@@H@std@@@2@@std@@QAEPAU?$_Tree_node@U?$pair@$$CBVUnitType@BWAPI@@H@std@@PAX@2@XZ 10025470 f i GameRecord.obj
 0001:00024470       ?_Buynode0@?$_Tree_buy@U?$pair@QAVUnitInterface@BWAPI@@PAVBase@UAlbertaBot@@@std@@V?$allocator@U?$pair@QAVUnitInterface@BWAPI@@PAVBase@UAlbertaBot@@@std@@@2@@std@@QAEPAU?$_Tree_node@U?$pair@QAVUnitInterface@BWAPI@@PAVBase@UAlbertaBot@@@std@@PAX@2@XZ 10025470 f i Bases.obj
 0001:00024470       ?_Buynode0@?$_Tree_buy@U?$pair@QAVUnitInterface@BWAPI@@VUnitType@2@@std@@V?$allocator@U?$pair@QAVUnitInterface@BWAPI@@VUnitType@2@@std@@@2@@std@@QAEPAU?$_Tree_node@U?$pair@QAVUnitInterface@BWAPI@@VUnitType@2@@std@@PAX@2@XZ 10025470 f i WorkerData.obj
 0001:00024470       ?_Buynode0@?$_Tree_buy@U?$pair@QAVBase@UAlbertaBot@@PAVUnitInterface@BWAPI@@@std@@V?$allocator@U?$pair@QAVBase@UAlbertaBot@@PAVUnitInterface@BWAPI@@@std@@@2@@std@@QAEPAU?$_Tree_node@U?$pair@QAVBase@UAlbertaBot@@PAVUnitInterface@BWAPI@@@std@@PAX@2@XZ 10025470 f i MicroOverlords.obj
 0001:000244b0       ??F?$_Tree_unchecked_const_iterator@V?$_Tree_val@U?$_Tree_simple_types@U?$pair@$$CBVUnitType@BWAPI@@H@std@@@std@@@std@@U_Iterator_base0@2@@std@@QAEAAV01@XZ 100254b0 f i GameRecord.obj
 0001:000244b0       ??F?$_Tree_unchecked_const_iterator@V?$_Tree_val@U?$_Tree_simple_types@U?$pair@QAVUnitInterface@BWAPI@@UUnitInfo@UAlbertaBot@@@std@@@std@@@std@@U_Iterator_base0@2@@std@@QAEAAV01@XZ 100254b0 f i UnitData.obj
 0001:000244b0       ??F?$_Tree_unchecked_const_iterator@V?$_Tree_val@U?$_Tree_simple_types@U?$pair@QAVUnitInterface@BWAPI@@_N@std@@@std@@@std@@U_Iterator_base0@2@@std@@QAEAAV01@XZ 100254b0 f i Squad.obj
 0001:000244b0       ??F?$_Tree_unchecked_const_iterator@V?$_Tree_val@U?$_Tree_simple_types@U?$pair@QAVUnitInterface@BWAPI@@PAV12@@std@@@std@@@std@@U_Iterator_base0@2@@std@@QAEAAV01@XZ 100254b0 f i MicroMutas.obj
 0001:000244b0       ??F?$_Tree_unchecked_const_iterator@V?$_Tree_val@U?$_Tree_simple_types@U?$pair@QAVUnitInterface@BWAPI@@H@std@@@std@@@std@@U_Iterator_base0@2@@std@@QAEAAV01@XZ 100254b0 f i WorkerData.obj
 0001:000244b0       ??F?$_Tree_unchecked_const_iterator@V?$_Tree_val@U?$_Tree_simple_types@PBVZone@UAlbertaBot@@@std@@@std@@U_Iterator_base0@2@@std@@QAEAAV01@XZ 100254b0 f i InformationManager.obj
 0001:000244b0       ??F?$_Tree_unchecked_const_iterator@V?$_Tree_val@U?$_Tree_simple_types@PAVZone@UAlbertaBot@@@std@@@std@@U_Iterator_base0@2@@std@@QAEAAV01@XZ 100254b0 f i GridZone.obj
 0001:000244b0       ??F?$_Tree_unchecked_const_iterator@V?$_Tree_val@U?$_Tree_simple_types@W4OpeningPlan@UAlbertaBot@@@std@@@std@@U_Iterator_base0@2@@std@@QAEAAV01@XZ 100254b0 f i OpponentModel.obj
 0001:000244b0       ??F?$_Tree_unchecked_const_iterator@V?$_Tree_val@U?$_Tree_simple_types@U?$pair@QAVUnitInterface@BWAPI@@VUnitType@2@@std@@@std@@@std@@U_Iterator_base0@2@@std@@QAEAAV01@XZ 100254b0 f i WorkerData.obj
 0001:000244b0       ??F?$_Tree_unchecked_const_iterator@V?$_Tree_val@U?$_Tree_simple_types@VUnitType@BWAPI@@@std@@@std@@U_Iterator_base0@2@@std@@QAEAAV01@XZ 100254b0 f i MacroAct.obj
 0001:000244b0       ??F?$_Tree_unchecked_const_iterator@V?$_Tree_val@U?$_Tree_simple_types@U?$pair@QAVUnitInterface@BWAPI@@VUnitset@2@@std@@@std@@@std@@U_Iterator_base0@2@@std@@QAEAAV01@XZ 100254b0 f i InformationManager.obj
 0001:000244b0       ??F?$_Tree_unchecked_const_iterator@V?$_Tree_val@U?$_Tree_simple_types@U?$pair@QAVPlayerInterface@BWAPI@@VUnitData@UAlbertaBot@@@std@@@std@@@std@@U_Iterator_base0@2@@std@@QAEAAV01@XZ 100254b0 f i InformationManager.obj
 0001:000244b0       ??F?$_Tree_unchecked_const_iterator@V?$_Tree_val@U?$_Tree_simple_types@U?$pair@$$CBV?$basic_string@DU?$char_traits@D@std@@V?$allocator@D@2@@std@@VSquad@UAlbertaBot@@@std@@@std@@@std@@U_Iterator_base0@2@@std@@QAEAAV01@XZ 100254b0 f i SquadData.obj
 0001:000244b0       ??F?$_Tree_unchecked_const_iterator@V?$_Tree_val@U?$_Tree_simple_types@U?$pair@QAVBase@UAlbertaBot@@PAVUnitInterface@BWAPI@@@std@@@std@@@std@@U_Iterator_base0@2@@std@@QAEAAV01@XZ 100254b0 f i MicroOverlords.obj
 0001:000244b0       ??F?$_Tree_unchecked_const_iterator@V?$_Tree_val@U?$_Tree_simple_types@U?$pair@$$CBV?$basic_string@DU?$char_traits@D@std@@V?$allocator@D@2@@std@@UOpeningInfoType@OpponentModel@UAlbertaBot@@@std@@@std@@@std@@U_Iterator_base0@2@@std@@QAEAAV01@XZ 100254b0 f i OpponentModel.obj
 0001:000244b0       ??F?$_Tree_unchecked_const_iterator@V?$_Tree_val@U?$_Tree_simple_types@U?$pair@QAVPlayerInterface@BWAPI@@V?$set@PBVZone@UAlbertaBot@@U?$less@PBVZone@UAlbertaBot@@@std@@V?$allocator@PBVZone@UAlbertaBot@@@4@@std@@@std@@@std@@@std@@U_Iterator_base0@2@@std@@QAEAAV01@XZ 100254b0 f i InformationManager.obj
 0001:000244b0       ??F?$_Tree_unchecked_const_iterator@V?$_Tree_val@U?$_Tree_simple_types@U?$pair@QAVUnitInterface@BWAPI@@W4WorkerJob@WorkerData@UAlbertaBot@@@std@@@std@@@std@@U_Iterator_base0@2@@std@@QAEAAV01@XZ 100254b0 f i WorkerData.obj
 0001:000244b0       ??F?$_Tree_unchecked_const_iterator@V?$_Tree_val@U?$_Tree_simple_types@PAVBase@UAlbertaBot@@@std@@@std@@U_Iterator_base0@2@@std@@QAEAAV01@XZ 100254b0 f i MicroOverlords.obj
 0001:000244b0       ??F?$_Tree_unchecked_const_iterator@V?$_Tree_val@U?$_Tree_simple_types@U?$pair@$$CBV?$basic_string@DU?$char_traits@D@std@@V?$allocator@D@2@@std@@VActionType@BOSS@@@std@@@std@@@std@@U_Iterator_base0@2@@std@@QAEAAV01@XZ 100254b0 f i BOSS:ActionType.obj
 0001:000244b0       ??F?$_Tree_unchecked_const_iterator@V?$_Tree_val@U?$_Tree_simple_types@U?$pair@$$CBV?$Point@H$0CA@@BWAPI@@VGridDistances@UAlbertaBot@@@std@@@std@@@std@@U_Iterator_base0@2@@std@@QAEAAV01@XZ 100254b0 f i MapTools.obj
 0001:000244b0       ??F?$_Tree_unchecked_const_iterator@V?$_Tree_val@U?$_Tree_simple_types@U?$pair@QAVUnitInterface@BWAPI@@VMicroState@UAlbertaBot@@@std@@@std@@@std@@U_Iterator_base0@2@@std@@QAEAAV01@XZ 100254b0 f i Micro.obj
 0001:000244b0       ??F?$_Tree_unchecked_const_iterator@V?$_Tree_val@U?$_Tree_simple_types@U?$pair@$$CBV?$basic_string@DU?$char_traits@D@std@@V?$allocator@D@2@@std@@UStrategy@UAlbertaBot@@@std@@@std@@@std@@U_Iterator_base0@2@@std@@QAEAAV01@XZ 100254b0 f i StrategyManager.obj
 0001:000244b0       ??F?$_Tree_unchecked_const_iterator@V?$_Tree_val@U?$_Tree_simple_types@PAVUnitInterface@BWAPI@@@std@@@std@@U_Iterator_base0@2@@std@@QAEAAV01@XZ 100254b0 f i WorkerData.obj
 0001:000244b0       ??F?$_Tree_unchecked_const_iterator@V?$_Tree_val@U?$_Tree_simple_types@U?$pair@QAVUnitInterface@BWAPI@@PAVBase@UAlbertaBot@@@std@@@std@@@std@@U_Iterator_base0@2@@std@@QAEAAV01@XZ 100254b0 f i Bases.obj
 0001:00024510       ??$_Insert_at@AAU?$pair@QAVUnitInterface@BWAPI@@PAVBase@UAlbertaBot@@@std@@PAU?$_Tree_node@U?$pair@QAVUnitInterface@BWAPI@@PAVBase@UAlbertaBot@@@std@@PAX@2@@?$_Tree@V?$_Tmap_traits@PAVUnitInterface@BWAPI@@PAVBase@UAlbertaBot@@U?$less@PAVUnitInterface@BWAPI@@@std@@V?$allocator@U?$pair@QAVUnitInterface@BWAPI@@PAVBase@UAlbertaBot@@@std@@@6@$0A@@std@@@std@@IAE?AV?$_Tree_iterator@V?$_Tree_val@U?$_Tree_simple_types@U?$pair@QAVUnitInterface@BWAPI@@PAVBase@UAlbertaBot@@@std@@@std@@@std@@@1@_NPAU?$_Tree_node@U?$pair@QAVUnitInterface@BWAPI@@PAVBase@UAlbertaBot@@@std@@PAX@1@AAU?$pair@QAVUnitInterface@BWAPI@@PAVBase@UAlbertaBot@@@1@1@Z 10025510 f i Bases.obj
 0001:00024510       ??$_Insert_at@AAU?$pair@QAVUnitInterface@BWAPI@@W4WorkerJob@WorkerData@UAlbertaBot@@@std@@PAU?$_Tree_node@U?$pair@QAVUnitInterface@BWAPI@@W4WorkerJob@WorkerData@UAlbertaBot@@@std@@PAX@2@@?$_Tree@V?$_Tmap_traits@PAVUnitInterface@BWAPI@@W4WorkerJob@WorkerData@UAlbertaBot@@U?$less@PAVUnitInterface@BWAPI@@@std@@V?$allocator@U?$pair@QAVUnitInterface@BWAPI@@W4WorkerJob@WorkerData@UAlbertaBot@@@std@@@7@$0A@@std@@@std@@IAE?AV?$_Tree_iterator@V?$_Tree_val@U?$_Tree_simple_types@U?$pair@QAVUnitInterface@BWAPI@@W4WorkerJob@WorkerData@UAlbertaBot@@@std@@@std@@@std@@@1@_NPAU?$_Tree_node@U?$pair@QAVUnitInterface@BWAPI@@W4WorkerJob@WorkerData@UAlbertaBot@@@std@@PAX@1@AAU?$pair@QAVUnitInterface@BWAPI@@W4WorkerJob@WorkerData@UAlbertaBot@@@1@1@Z 10025510 f i WorkerData.obj
 0001:00024510       ??$_Insert_at@AAU?$pair@QAVUnitInterface@BWAPI@@_N@std@@PAU?$_Tree_node@U?$pair@QAVUnitInterface@BWAPI@@_N@std@@PAX@2@@?$_Tree@V?$_Tmap_traits@PAVUnitInterface@BWAPI@@_NU?$less@PAVUnitInterface@BWAPI@@@std@@V?$allocator@U?$pair@QAVUnitInterface@BWAPI@@_N@std@@@4@$0A@@std@@@std@@IAE?AV?$_Tree_iterator@V?$_Tree_val@U?$_Tree_simple_types@U?$pair@QAVUnitInterface@BWAPI@@_N@std@@@std@@@std@@@1@_NPAU?$_Tree_node@U?$pair@QAVUnitInterface@BWAPI@@_N@std@@PAX@1@AAU?$pair@QAVUnitInterface@BWAPI@@_N@1@1@Z 10025510 f i Squad.obj
 0001:00024510       ??$_Insert_at@AAU?$pair@QAVUnitInterface@BWAPI@@PAV12@@std@@PAU?$_Tree_node@U?$pair@QAVUnitInterface@BWAPI@@PAV12@@std@@PAX@2@@?$_Tree@V?$_Tmap_traits@PAVUnitInterface@BWAPI@@PAV12@U?$less@PAVUnitInterface@BWAPI@@@std@@V?$allocator@U?$pair@QAVUnitInterface@BWAPI@@PAV12@@std@@@4@$0A@@std@@@std@@IAE?AV?$_Tree_iterator@V?$_Tree_val@U?$_Tree_simple_types@U?$pair@QAVUnitInterface@BWAPI@@PAV12@@std@@@std@@@std@@@1@_NPAU?$_Tree_node@U?$pair@QAVUnitInterface@BWAPI@@PAV12@@std@@PAX@1@AAU?$pair@QAVUnitInterface@BWAPI@@PAV12@@1@1@Z 10025510 f i WorkerData.obj
 0001:00024510       ??$_Insert_at@AAU?$pair@QAVUnitInterface@BWAPI@@H@std@@PAU?$_Tree_node@U?$pair@QAVUnitInterface@BWAPI@@H@std@@PAX@2@@?$_Tree@V?$_Tmap_traits@PAVUnitInterface@BWAPI@@HU?$less@PAVUnitInterface@BWAPI@@@std@@V?$allocator@U?$pair@QAVUnitInterface@BWAPI@@H@std@@@4@$0A@@std@@@std@@IAE?AV?$_Tree_iterator@V?$_Tree_val@U?$_Tree_simple_types@U?$pair@QAVUnitInterface@BWAPI@@H@std@@@std@@@std@@@1@_NPAU?$_Tree_node@U?$pair@QAVUnitInterface@BWAPI@@H@std@@PAX@1@AAU?$pair@QAVUnitInterface@BWAPI@@H@1@1@Z 10025510 f i WorkerData.obj
 0001:00024510       ??$_Insert_at@AAU?$pair@QAVBase@UAlbertaBot@@PAVUnitInterface@BWAPI@@@std@@PAU?$_Tree_node@U?$pair@QAVBase@UAlbertaBot@@PAVUnitInterface@BWAPI@@@std@@PAX@2@@?$_Tree@V?$_Tmap_traits@PAVBase@UAlbertaBot@@PAVUnitInterface@BWAPI@@U?$less@PAVBase@UAlbertaBot@@@std@@V?$allocator@U?$pair@QAVBase@UAlbertaBot@@PAVUnitInterface@BWAPI@@@std@@@6@$0A@@std@@@std@@IAE?AV?$_Tree_iterator@V?$_Tree_val@U?$_Tree_simple_types@U?$pair@QAVBase@UAlbertaBot@@PAVUnitInterface@BWAPI@@@std@@@std@@@std@@@1@_NPAU?$_Tree_node@U?$pair@QAVBase@UAlbertaBot@@PAVUnitInterface@BWAPI@@@std@@PAX@1@AAU?$pair@QAVBase@UAlbertaBot@@PAVUnitInterface@BWAPI@@@1@1@Z 10025510 f i MicroOverlords.obj
 0001:00024510       ??$_Insert_at@AAU?$pair@$$CBVUnitType@BWAPI@@H@std@@PAU?$_Tree_node@U?$pair@$$CBVUnitType@BWAPI@@H@std@@PAX@2@@?$_Tree@V?$_Tmap_traits@VUnitType@BWAPI@@HU?$less@VUnitType@BWAPI@@@std@@V?$allocator@U?$pair@$$CBVUnitType@BWAPI@@H@std@@@4@$0A@@std@@@std@@IAE?AV?$_Tree_iterator@V?$_Tree_val@U?$_Tree_simple_types@U?$pair@$$CBVUnitType@BWAPI@@H@std@@@std@@@std@@@1@_NPAU?$_Tree_node@U?$pair@$$CBVUnitType@BWAPI@@H@std@@PAX@1@AAU?$pair@$$CBVUnitType@BWAPI@@H@1@1@Z 10025510 f i GameRecord.obj
 0001:00024510       ??$_Insert_at@AAU?$pair@QAVUnitInterface@BWAPI@@VUnitType@2@@std@@PAU?$_Tree_node@U?$pair@QAVUnitInterface@BWAPI@@VUnitType@2@@std@@PAX@2@@?$_Tree@V?$_Tmap_traits@PAVUnitInterface@BWAPI@@VUnitType@2@U?$less@PAVUnitInterface@BWAPI@@@std@@V?$allocator@U?$pair@QAVUnitInterface@BWAPI@@VUnitType@2@@std@@@5@$0A@@std@@@std@@IAE?AV?$_Tree_iterator@V?$_Tree_val@U?$_Tree_simple_types@U?$pair@QAVUnitInterface@BWAPI@@VUnitType@2@@std@@@std@@@std@@@1@_NPAU?$_Tree_node@U?$pair@QAVUnitInterface@BWAPI@@VUnitType@2@@std@@PAX@1@AAU?$pair@QAVUnitInterface@BWAPI@@VUnitType@2@@1@1@Z 10025510 f i WorkerData.obj
 0001:000246e0       ??$_Insert_nohint@AAU?$pair@QAVUnitInterface@BWAPI@@_N@std@@PAU?$_Tree_node@U?$pair@QAVUnitInterface@BWAPI@@_N@std@@PAX@2@@?$_Tree@V?$_Tmap_traits@PAVUnitInterface@BWAPI@@_NU?$less@PAVUnitInterface@BWAPI@@@std@@V?$allocator@U?$pair@QAVUnitInterface@BWAPI@@_N@std@@@4@$0A@@std@@@std@@IAE?AU?$pair@V?$_Tree_iterator@V?$_Tree_val@U?$_Tree_simple_types@U?$pair@QAVUnitInterface@BWAPI@@_N@std@@@std@@@std@@@std@@_N@1@_NAAU?$pair@QAVUnitInterface@BWAPI@@_N@1@PAU?$_Tree_node@U?$pair@QAVUnitInterface@BWAPI@@_N@std@@PAX@1@@Z 100256e0 f i Squad.obj
 0001:000246e0       ??$_Insert_nohint@AAU?$pair@QAVUnitInterface@BWAPI@@VUnitType@2@@std@@PAU?$_Tree_node@U?$pair@QAVUnitInterface@BWAPI@@VUnitType@2@@std@@PAX@2@@?$_Tree@V?$_Tmap_traits@PAVUnitInterface@BWAPI@@VUnitType@2@U?$less@PAVUnitInterface@BWAPI@@@std@@V?$allocator@U?$pair@QAVUnitInterface@BWAPI@@VUnitType@2@@std@@@5@$0A@@std@@@std@@IAE?AU?$pair@V?$_Tree_iterator@V?$_Tree_val@U?$_Tree_simple_types@U?$pair@QAVUnitInterface@BWAPI@@VUnitType@2@@std@@@std@@@std@@@std@@_N@1@_NAAU?$pair@QAVUnitInterface@BWAPI@@VUnitType@2@@1@PAU?$_Tree_node@U?$pair@QAVUnitInterface@BWAPI@@VUnitType@2@@std@@PAX@1@@Z 100256e0 f i WorkerData.obj
 0001:000246e0       ??$_Insert_nohint@AAU?$pair@QAVUnitInterface@BWAPI@@W4WorkerJob@WorkerData@UAlbertaBot@@@std@@PAU?$_Tree_node@U?$pair@QAVUnitInterface@BWAPI@@W4WorkerJob@WorkerData@UAlbertaBot@@@std@@PAX@2@@?$_Tree@V?$_Tmap_traits@PAVUnitInterface@BWAPI@@W4WorkerJob@WorkerData@UAlbertaBot@@U?$less@PAVUnitInterface@BWAPI@@@std@@V?$allocator@U?$pair@QAVUnitInterface@BWAPI@@W4WorkerJob@WorkerData@UAlbertaBot@@@std@@@7@$0A@@std@@@std@@IAE?AU?$pair@V?$_Tree_iterator@V?$_Tree_val@U?$_Tree_simple_types@U?$pair@QAVUnitInterface@BWAPI@@W4WorkerJob@WorkerData@UAlbertaBot@@@std@@@std@@@std@@@std@@_N@1@_NAAU?$pair@QAVUnitInterface@BWAPI@@W4WorkerJob@WorkerData@UAlbertaBot@@@1@PAU?$_Tree_node@U?$pair@QAVUnitInterface@BWAPI@@W4WorkerJob@WorkerData@UAlbertaBot@@@std@@PAX@1@@Z 100256e0 f i WorkerData.obj
 0001:000246e0       ??$_Insert_nohint@AAU?$pair@QAVUnitInterface@BWAPI@@H@std@@PAU?$_Tree_node@U?$pair@QAVUnitInterface@BWAPI@@H@std@@PAX@2@@?$_Tree@V?$_Tmap_traits@PAVUnitInterface@BWAPI@@HU?$less@PAVUnitInterface@BWAPI@@@std@@V?$allocator@U?$pair@QAVUnitInterface@BWAPI@@H@std@@@4@$0A@@std@@@std@@IAE?AU?$pair@V?$_Tree_iterator@V?$_Tree_val@U?$_Tree_simple_types@U?$pair@QAVUnitInterface@BWAPI@@H@std@@@std@@@std@@@std@@_N@1@_NAAU?$pair@QAVUnitInterface@BWAPI@@H@1@PAU?$_Tree_node@U?$pair@QAVUnitInterface@BWAPI@@H@std@@PAX@1@@Z 100256e0 f i WorkerData.obj
 0001:000246e0       ??$_Insert_nohint@AAU?$pair@QAVBase@UAlbertaBot@@PAVUnitInterface@BWAPI@@@std@@PAU?$_Tree_node@U?$pair@QAVBase@UAlbertaBot@@PAVUnitInterface@BWAPI@@@std@@PAX@2@@?$_Tree@V?$_Tmap_traits@PAVBase@UAlbertaBot@@PAVUnitInterface@BWAPI@@U?$less@PAVBase@UAlbertaBot@@@std@@V?$allocator@U?$pair@QAVBase@UAlbertaBot@@PAVUnitInterface@BWAPI@@@std@@@6@$0A@@std@@@std@@IAE?AU?$pair@V?$_Tree_iterator@V?$_Tree_val@U?$_Tree_simple_types@U?$pair@QAVBase@UAlbertaBot@@PAVUnitInterface@BWAPI@@@std@@@std@@@std@@@std@@_N@1@_NAAU?$pair@QAVBase@UAlbertaBot@@PAVUnitInterface@BWAPI@@@1@PAU?$_Tree_node@U?$pair@QAVBase@UAlbertaBot@@PAVUnitInterface@BWAPI@@@std@@PAX@1@@Z 100256e0 f i MicroOverlords.obj
 0001:000246e0       ??$_Insert_nohint@AAU?$pair@QAVUnitInterface@BWAPI@@PAVBase@UAlbertaBot@@@std@@PAU?$_Tree_node@U?$pair@QAVUnitInterface@BWAPI@@PAVBase@UAlbertaBot@@@std@@PAX@2@@?$_Tree@V?$_Tmap_traits@PAVUnitInterface@BWAPI@@PAVBase@UAlbertaBot@@U?$less@PAVUnitInterface@BWAPI@@@std@@V?$allocator@U?$pair@QAVUnitInterface@BWAPI@@PAVBase@UAlbertaBot@@@std@@@6@$0A@@std@@@std@@IAE?AU?$pair@V?$_Tree_iterator@V?$_Tree_val@U?$_Tree_simple_types@U?$pair@QAVUnitInterface@BWAPI@@PAVBase@UAlbertaBot@@@std@@@std@@@std@@@std@@_N@1@_NAAU?$pair@QAVUnitInterface@BWAPI@@PAVBase@UAlbertaBot@@@1@PAU?$_Tree_node@U?$pair@QAVUnitInterface@BWAPI@@PAVBase@UAlbertaBot@@@std@@PAX@1@@Z 100256e0 f i Bases.obj
 0001:000246e0       ??$_Insert_nohint@AAU?$pair@QAVUnitInterface@BWAPI@@PAV12@@std@@PAU?$_Tree_node@U?$pair@QAVUnitInterface@BWAPI@@PAV12@@std@@PAX@2@@?$_Tree@V?$_Tmap_traits@PAVUnitInterface@BWAPI@@PAV12@U?$less@PAVUnitInterface@BWAPI@@@std@@V?$allocator@U?$pair@QAVUnitInterface@BWAPI@@PAV12@@std@@@4@$0A@@std@@@std@@IAE?AU?$pair@V?$_Tree_iterator@V?$_Tree_val@U?$_Tree_simple_types@U?$pair@QAVUnitInterface@BWAPI@@PAV12@@std@@@std@@@std@@@std@@_N@1@_NAAU?$pair@QAVUnitInterface@BWAPI@@PAV12@@1@PAU?$_Tree_node@U?$pair@QAVUnitInterface@BWAPI@@PAV12@@std@@PAX@1@@Z 100256e0 f i WorkerData.obj
 0001:000247f0       ??$_Insert@AAPAVUnitInterface@BWAPI@@V?$_List_unchecked_const_iterator@V?$_List_val@U?$_List_simple_types@PAVUnitInterface@BWAPI@@@std@@@std@@U_Iterator_base0@2@@std@@@?$_Hash@V?$_Uset_traits@PAVUnitInterface@BWAPI@@V?$_Uhash_compare@PAVUnitInterface@BWAPI@@U?$hash@PAX@std@@U?$equal_to@PAVUnitInterface@BWAPI@@@4@@std@@V?$allocator@PAVUnitInterface@BWAPI@@@4@$0A@@std@@@std@@IAE?AU?$pair@V?$_List_const_iterator@V?$_List_val@U?$_List_simple_types@PAVUnitInterface@BWAPI@@@std@@@std@@@std@@_N@1@AAPAVUnitInterface@BWAPI@@V?$_List_unchecked_const_iterator@V?$_List_val@U?$_List_simple_types@PAVUnitInterface@BWAPI@@@std@@@std@@U_Iterator_base0@2@@1@@Z 100257f0 f i Bases.obj
 0001:000248e0       ??$_Uninit_move@PAVUnitset@BWAPI@@PAV12@V?$allocator@VUnitset@BWAPI@@@std@@V12@@std@@YAPAVUnitset@BWAPI@@PAV12@00AAU?$_Wrap_alloc@V?$allocator@VUnitset@BWAPI@@@std@@@0@0U_Nonscalar_ptr_iterator_tag@0@@Z 100258e0 f i Bases.obj
 0001:000249c0       ??$_Uninit_move@PAVPotentialBase@UAlbertaBot@@PAV12@V?$allocator@VPotentialBase@UAlbertaBot@@@std@@V12@@std@@YAPAVPotentialBase@UAlbertaBot@@PAV12@00AAU?$_Wrap_alloc@V?$allocator@VPotentialBase@UAlbertaBot@@@std@@@0@0U_Nonscalar_ptr_iterator_tag@0@@Z 100259c0 f i Bases.obj
 0001:00024a00       ??1GameState@BOSS@@QAE@XZ  10025a00 f i BOSSManager.obj
 0001:00024a40       ??1BuildOrderSearchGoal@BOSS@@QAE@XZ 10025a40 f i BOSSManager.obj
 0001:00024a40       ??1BuildOrder@BOSS@@QAE@XZ 10025a40 f i BOSSManager.obj
 0001:00024a90       ??1BuildOrder@UAlbertaBot@@QAE@XZ 10025a90 f i BOSSManager.obj
 0001:00024ac0       ?_Get_deleter@_Ref_count_base@std@@UBEPAXABVtype_info@@@Z 10025ac0 f i BOSSManager.obj
 0001:00024ad0       ??_E?$_Ref_count@VDFBB_BuildOrderSmartSearch@BOSS@@@std@@UAEPAXI@Z 10025ad0 f i * CIL library *:* CIL module *
 0001:00024ad0       ??_G_Ref_count_base@std@@UAEPAXI@Z 10025ad0 f i BOSSManager.obj
 0001:00024ad0       ??_G?$_Ref_count@VDFBB_BuildOrderSmartSearch@BOSS@@@std@@UAEPAXI@Z 10025ad0 f i BOSSManager.obj
 0001:00024ad0       ??_E_Ref_count_base@std@@UAEPAXI@Z 10025ad0 f i * CIL library *:* CIL module *
 0001:00024b00       ?Instance@BOSSManager@UAlbertaBot@@SAAAV12@XZ 10025b00 f   BOSSManager.obj
 0001:00024b60       ??1BOSSManager@UAlbertaBot@@QAE@XZ 10025b60 f i BOSSManager.obj
 0001:00024cb0       ??1DFBB_BuildOrderSearchResults@BOSS@@QAE@XZ 10025cb0 f i BOSSManager.obj
 0001:00024d30       ??0BOSSManager@UAlbertaBot@@AAE@XZ 10025d30 f   BOSSManager.obj
 0001:00024e90       ?reset@BOSSManager@UAlbertaBot@@QAEXXZ 10025e90 f   BOSSManager.obj
 0001:00024f70       ??4DFBB_BuildOrderSearchResults@BOSS@@QAEAAV01@ABV01@@Z 10025f70 f i BOSSManager.obj
 0001:00024fe0       ??4BuildOrder@BOSS@@QAEAAV01@ABV01@@Z 10025fe0 f i BOSSManager.obj
 0001:00025010       ??4GameState@BOSS@@QAEAAV01@ABV01@@Z 10026010 f i BOSSManager.obj
 0001:000250b0       ??4UnitData@BOSS@@QAEAAV01@ABV01@@Z 100260b0 f i BOSSManager.obj
 0001:00025170       ??4?$Vec@VActionInProgress@BOSS@@$0DC@@BOSS@@QAEAAV01@ABV01@@Z 10026170 f i BOSSManager.obj
 0001:000251c0       ??4?$Vec@VBuildingStatus@BOSS@@$0EG@@BOSS@@QAEAAV01@ABV01@@Z 100261c0 f i BOSSManager.obj
 0001:00025250       ??4BuildingStatus@BOSS@@QAEAAV01@ABV01@@Z 10026250 f i BOSSManager.obj
 0001:000252b0       ?startNewSearch@BOSSManager@UAlbertaBot@@QAEXABV?$vector@U?$pair@VMacroAct@UAlbertaBot@@I@std@@V?$allocator@U?$pair@VMacroAct@UAlbertaBot@@I@std@@@2@@std@@@Z 100262b0 f   BOSSManager.obj
 0001:00025600       ?drawSearchInformation@BOSSManager@UAlbertaBot@@QAEXHH@Z 10026600 f   BOSSManager.obj
 0001:00025800       ?drawStateInformation@BOSSManager@UAlbertaBot@@QAEXHH@Z 10026800 f   BOSSManager.obj
 0001:00025980       ?update@BOSSManager@UAlbertaBot@@QAEXN@Z 10026980 f   BOSSManager.obj
 0001:00025df0       ??1NaiveBuildOrderSearch@BOSS@@QAE@XZ 10026df0 f i BOSSManager.obj
 0001:00025ef0       ?GetGoal@BOSSManager@UAlbertaBot@@SA?AVBuildOrderSearchGoal@BOSS@@ABV?$vector@U?$pair@VMacroAct@UAlbertaBot@@I@std@@V?$allocator@U?$pair@VMacroAct@UAlbertaBot@@I@std@@@2@@std@@@Z 10026ef0 f   BOSSManager.obj
 0001:00026100       ??0GameState@BOSS@@QAE@ABV01@@Z 10027100 f i BOSSManager.obj
 0001:00026190       ??0UnitData@BOSS@@QAE@ABV01@@Z 10027190 f i BOSSManager.obj
 0001:00026250       ??0?$Vec@VActionInProgress@BOSS@@$0DC@@BOSS@@QAE@ABV01@@Z 10027250 f i BOSSManager.obj
 0001:000262a0       ??0?$Vec@VBuildingStatus@BOSS@@$0EG@@BOSS@@QAE@ABV01@@Z 100272a0 f i BOSSManager.obj
 0001:00026310       ?GetMetaVector@BOSSManager@UAlbertaBot@@SA?AV?$vector@VMacroAct@UAlbertaBot@@V?$allocator@VMacroAct@UAlbertaBot@@@std@@@std@@ABVBuildOrder@BOSS@@@Z 10027310 f   BOSSManager.obj
 0001:00026400       ?getBuildOrder@BOSSManager@UAlbertaBot@@QAE?AVBuildOrder@2@XZ 10027400 f   BOSSManager.obj
 0001:000264a0       ?GetMacroAct@BOSSManager@UAlbertaBot@@SA?AVMacroAct@2@ABVActionType@BOSS@@@Z 100274a0 f   BOSSManager.obj
 0001:000265e0       ??0?$basic_string@DU?$char_traits@D@std@@V?$allocator@D@2@@std@@QAE@$$QAV01@@Z 100275e0 f i BOSSManager.obj
 0001:00026650       ??4?$basic_string@DU?$char_traits@D@std@@V?$allocator@D@2@@std@@QAEAAV01@$$QAV01@@Z 10027650 f i BOSSManager.obj
 0001:00026690       ??Y?$basic_string@DU?$char_traits@D@std@@V?$allocator@D@2@@std@@QAEAAV01@PBD@Z 10027690 f i BOSSManager.obj
 0001:000266d0       ??0?$vector@VActionPerformed@BOSS@@V?$allocator@VActionPerformed@BOSS@@@std@@@std@@QAE@ABV01@@Z 100276d0 f i BOSSManager.obj
 0001:00026720       ??4?$vector@VActionPerformed@BOSS@@V?$allocator@VActionPerformed@BOSS@@@std@@@std@@QAEAAV01@ABV01@@Z 10027720 f i BOSSManager.obj
 0001:00026800       ??4?$vector@VActionType@BOSS@@V?$allocator@VActionType@BOSS@@@std@@@std@@QAEAAV01@ABV01@@Z 10027800 f i BOSSManager.obj
 0001:000268d0       ??4?$vector@IV?$allocator@I@std@@@std@@QAEAAV01@ABV01@@Z 100278d0 f i BOSSManager.obj
 0001:000268d0       ??4?$vector@IV?$allocator@_N@std@@@std@@QAEAAV01@ABV01@@Z 100278d0 f i MacroAct.obj
 0001:000269f0       ??0?$vector@FV?$allocator@F@std@@@std@@QAE@ABV01@@Z 100279f0 f i Grid.obj
 0001:000269f0       ??0?$vector@GV?$allocator@G@std@@@std@@QAE@ABV01@@Z 100279f0 f i BOSSManager.obj
 0001:00026a50       ??4?$vector@U?$pair@VMacroAct@UAlbertaBot@@I@std@@V?$allocator@U?$pair@VMacroAct@UAlbertaBot@@I@std@@@2@@std@@QAEAAV01@ABV01@@Z 10027a50 f i BOSSManager.obj
 0001:00026b80       ??4?$shared_ptr@VDFBB_BuildOrderSmartSearch@BOSS@@@std@@QAEAAV01@$$QAV01@@Z 10027b80 f i BOSSManager.obj
 0001:00026bf0       ??1?$shared_ptr@VDFBB_BuildOrderSmartSearch@BOSS@@@std@@QAE@XZ 10027bf0 f i BOSSManager.obj
 0001:00026c30       ?_Assign_rv@?$basic_string@DU?$char_traits@D@std@@V?$allocator@D@2@@std@@QAEX$$QAV12@@Z 10027c30 f i BOSSManager.obj
 0001:00026c90       ?append@?$basic_string@DU?$char_traits@D@std@@V?$allocator@D@2@@std@@QAEAAV12@ABV12@II@Z 10027c90 f i BOSSManager.obj
 0001:00026d50       ?append@?$basic_string@DU?$char_traits@D@std@@V?$allocator@D@2@@std@@QAEAAV12@PBDI@Z 10027d50 f i BOSSManager.obj
 0001:00026e40       ?_Buy@?$vector@V?$vector@_NV?$allocator@_N@std@@@std@@V?$allocator@V?$vector@_NV?$allocator@_N@std@@@std@@@2@@std@@IAE_NI@Z 10027e40 f i BuildingPlacer.obj
 0001:00026e40       ?_Buy@?$vector@VActionPerformed@BOSS@@V?$allocator@VActionPerformed@BOSS@@@std@@@std@@IAE_NI@Z 10027e40 f i BOSSManager.obj
 0001:00026eb0       ?_Buy@?$vector@GV?$allocator@G@std@@@std@@IAE_NI@Z 10027eb0 f i BOSSManager.obj
 0001:00026eb0       ?_Buy@?$vector@VActionType@BOSS@@V?$allocator@VActionType@BOSS@@@std@@@std@@IAE_NI@Z 10027eb0 f i BOSSManager.obj
 0001:00026eb0       ?_Buy@?$vector@FV?$allocator@F@std@@@std@@IAE_NI@Z 10027eb0 f i Grid.obj
 0001:00026f20       ?_Buy@?$vector@IV?$allocator@_N@std@@@std@@IAE_NI@Z 10027f20 f i BuildingPlacer.obj
 0001:00026f20       ?_Buy@?$vector@HV?$allocator@H@std@@@std@@IAE_NI@Z 10027f20 f i UnitData.obj
 0001:00026f20       ?_Buy@?$vector@IV?$allocator@I@std@@@std@@IAE_NI@Z 10027f20 f i BOSSManager.obj
 0001:00026f90       ?_Reserve@?$vector@VMacroAct@UAlbertaBot@@V?$allocator@VMacroAct@UAlbertaBot@@@std@@@std@@IAEXI@Z 10027f90 f i BOSSManager.obj
 0001:00027000       ?_Buy@?$vector@U?$pair@VMacroAct@UAlbertaBot@@I@std@@V?$allocator@U?$pair@VMacroAct@UAlbertaBot@@I@std@@@2@@std@@IAE_NI@Z 10028000 f i BOSSManager.obj
 0001:00027070       ?_Reallocate@?$vector@VMacroAct@UAlbertaBot@@V?$allocator@VMacroAct@UAlbertaBot@@@std@@@std@@IAEXI@Z 10028070 f i BOSSManager.obj
 0001:000270f0       ??$?HDU?$char_traits@D@std@@V?$allocator@D@1@@std@@YA?AV?$basic_string@DU?$char_traits@D@std@@V?$allocator@D@2@@0@$$QAV10@PBD@Z 100280f0 f i BOSSManager.obj
 0001:00027140       ??$_Copy_impl@PAVActionType@BOSS@@PAV12@@std@@YAPAVActionType@BOSS@@PAV12@00@Z 10028140 f i BOSSManager.obj
 0001:00027180       ??$_Copy_impl@PAU?$pair@VMacroAct@UAlbertaBot@@I@std@@PAU12@@std@@YAPAU?$pair@VMacroAct@UAlbertaBot@@I@0@PAU10@00@Z 10028180 f i BOSSManager.obj
 0001:000271c0       ??$_Resetp@VDFBB_BuildOrderSmartSearch@BOSS@@@?$shared_ptr@VDFBB_BuildOrderSmartSearch@BOSS@@@std@@AAEXPAVDFBB_BuildOrderSmartSearch@BOSS@@@Z 100281c0 f i BOSSManager.obj
 0001:00027290       ??$_Copy_impl@PAVActionPerformed@BOSS@@PAV12@@std@@YAPAVActionPerformed@BOSS@@PAV12@00U_Nonscalar_ptr_iterator_tag@0@@Z 10028290 f i BOSSManager.obj
 0001:000272e0       ??1DFBB_BuildOrderSmartSearch@BOSS@@QAE@XZ 100282e0 f i BOSSManager.obj
 0001:000273a0       ??1DFBB_BuildOrderSearchParameters@BOSS@@QAE@XZ 100283a0 f i BOSSManager.obj
 0001:00027440       ??1DFBB_BuildOrderStackSearch@BOSS@@QAE@XZ 10028440 f i BOSSManager.obj
 0001:00027510       ?_Destroy@?$_Ref_count@VDFBB_BuildOrderSmartSearch@BOSS@@@std@@EAEXXZ 10028510 f i BOSSManager.obj
 0001:00027530       ?_Delete_this@?$_Ref_count@VDFBB_BuildOrderSmartSearch@BOSS@@@std@@EAEXXZ 10028530 f i BOSSManager.obj
 0001:00027540       ?_Tidy@?$vector@VStackData@BOSS@@V?$allocator@VStackData@BOSS@@@std@@@std@@IAEXXZ 10028540 f i BOSSManager.obj
 0001:00027580       ??$_Uninit_copy@PAVActionPerformed@BOSS@@PAV12@V?$allocator@VActionPerformed@BOSS@@@std@@@std@@YAPAVActionPerformed@BOSS@@PAV12@00AAU?$_Wrap_alloc@V?$allocator@VActionPerformed@BOSS@@@std@@@0@U_Nonscalar_ptr_iterator_tag@0@@Z 10028580 f i BOSSManager.obj
 0001:00027580       ??$_Uninit_copy@PBVActionPerformed@BOSS@@PAV12@V?$allocator@VActionPerformed@BOSS@@@std@@@std@@YAPAVActionPerformed@BOSS@@PBV12@0PAV12@AAU?$_Wrap_alloc@V?$allocator@VActionPerformed@BOSS@@@std@@@0@U_Nonscalar_ptr_iterator_tag@0@@Z 10028580 f i BOSSManager.obj
 0001:00027580       ??$_Uninit_move@PAVActionPerformed@BOSS@@PAV12@V?$allocator@VActionPerformed@BOSS@@@std@@V12@@std@@YAPAVActionPerformed@BOSS@@PAV12@00AAU?$_Wrap_alloc@V?$allocator@VActionPerformed@BOSS@@@std@@@0@0U_Nonscalar_ptr_iterator_tag@0@@Z 10028580 f i BOSS:GameState.obj
 0001:000275d0       ??$_Uninit_move@PAVActionType@BOSS@@PAV12@V?$allocator@VActionType@BOSS@@@std@@V12@@std@@YAPAVActionType@BOSS@@PAV12@00AAU?$_Wrap_alloc@V?$allocator@VActionType@BOSS@@@std@@@0@0U_Nonscalar_ptr_iterator_tag@0@@Z 100285d0 f i BOSS:GameState.obj
 0001:000275d0       ??$_Uninit_copy@PAVActionType@BOSS@@PAV12@V?$allocator@VActionType@BOSS@@@std@@@std@@YAPAVActionType@BOSS@@PAV12@00AAU?$_Wrap_alloc@V?$allocator@VActionType@BOSS@@@std@@@0@U_Nonscalar_ptr_iterator_tag@0@@Z 100285d0 f i BOSSManager.obj
 0001:00027600       ??$_Uninit_move@PAU?$pair@VMacroAct@UAlbertaBot@@I@std@@PAU12@V?$allocator@U?$pair@VMacroAct@UAlbertaBot@@I@std@@@2@U12@@std@@YAPAU?$pair@VMacroAct@UAlbertaBot@@I@0@PAU10@00AAU?$_Wrap_alloc@V?$allocator@U?$pair@VMacroAct@UAlbertaBot@@I@std@@@std@@@0@0U_Nonscalar_ptr_iterator_tag@0@@Z 10028600 f i StrategyManager.obj
 0001:00027600       ??$_Uninit_copy@PAU?$pair@VMacroAct@UAlbertaBot@@I@std@@PAU12@V?$allocator@U?$pair@VMacroAct@UAlbertaBot@@I@std@@@2@@std@@YAPAU?$pair@VMacroAct@UAlbertaBot@@I@0@PAU10@00AAU?$_Wrap_alloc@V?$allocator@U?$pair@VMacroAct@UAlbertaBot@@I@std@@@std@@@0@U_Nonscalar_ptr_iterator_tag@0@@Z 10028600 f i BOSSManager.obj
 0001:00027640       ??$_Uninit_copy@PAVMacroAct@UAlbertaBot@@PAV12@V?$allocator@VMacroAct@UAlbertaBot@@@std@@@std@@YAPAVMacroAct@UAlbertaBot@@PAV12@00AAU?$_Wrap_alloc@V?$allocator@VMacroAct@UAlbertaBot@@@std@@@0@U_Nonscalar_ptr_iterator_tag@0@@Z 10028640 f i StrategyManager.obj
 0001:00027640       ??$_Uninit_move@PAVMacroAct@UAlbertaBot@@PAV12@V?$allocator@VMacroAct@UAlbertaBot@@@std@@V12@@std@@YAPAVMacroAct@UAlbertaBot@@PAV12@00AAU?$_Wrap_alloc@V?$allocator@VMacroAct@UAlbertaBot@@@std@@@0@0U_Nonscalar_ptr_iterator_tag@0@@Z 10028640 f i BOSSManager.obj
 0001:00027640       ??$_Uninit_copy@PBVMacroAct@UAlbertaBot@@PAV12@V?$allocator@VMacroAct@UAlbertaBot@@@std@@@std@@YAPAVMacroAct@UAlbertaBot@@PBV12@0PAV12@AAU?$_Wrap_alloc@V?$allocator@VMacroAct@UAlbertaBot@@@std@@@0@U_Nonscalar_ptr_iterator_tag@0@@Z 10028640 f i BuildOrder.obj
 0001:00027680       ??$_Destroy_range@U?$_Wrap_alloc@V?$allocator@VStackData@BOSS@@@std@@@std@@@std@@YAXPAVStackData@BOSS@@0AAU?$_Wrap_alloc@V?$allocator@VStackData@BOSS@@@std@@@0@U_Nonscalar_ptr_iterator_tag@0@@Z 10028680 f i BOSSManager.obj
 0001:000276d0       ??$destroy@VStackData@BOSS@@@?$_Wrap_alloc@V?$allocator@VStackData@BOSS@@@std@@@std@@QAEXPAVStackData@BOSS@@@Z 100286d0 f i BOSSManager.obj
 0001:00027710       ??1StackData@BOSS@@QAE@XZ  10028710 f i BOSSManager.obj
 0001:00027750       ??0Building@UAlbertaBot@@QAE@VUnitType@BWAPI@@V?$Point@H$0CA@@3@@Z 10028750 f i BuildingManager.obj
 0001:000277c0       ??0BuildingManager@UAlbertaBot@@AAE@XZ 100287c0 f   BuildingManager.obj
 0001:00027870       ?validateBuildings@BuildingManager@UAlbertaBot@@AAEXXZ 10028870 f   BuildingManager.obj
 0001:00027a20       ?assignWorkersToUnassignedBuildings@BuildingManager@UAlbertaBot@@AAEXXZ 10028a20 f   BuildingManager.obj
 0001:00027c10       ?constructAssignedBuildings@BuildingManager@UAlbertaBot@@AAEXXZ 10028c10 f   BuildingManager.obj
 0001:00027e50       ?checkForStartedConstruction@BuildingManager@UAlbertaBot@@AAEXXZ 10028e50 f   BuildingManager.obj
 0001:00028070       ?checkForDeadTerranBuilders@BuildingManager@UAlbertaBot@@AAEXXZ 10029070 f   BuildingManager.obj
 0001:00028140       ?checkForCompletedBuildings@BuildingManager@UAlbertaBot@@AAEXXZ 10029140 f   BuildingManager.obj
 0001:00028300       ?checkReservedResources@BuildingManager@UAlbertaBot@@AAEXXZ 10029300 f   BuildingManager.obj
 0001:00028350       ?addTrackedBuildingTask@BuildingManager@UAlbertaBot@@QAEAAVBuilding@2@ABVMacroAct@2@V?$Point@H$0CA@@BWAPI@@PAVUnitInterface@6@_N@Z 10029350 f   BuildingManager.obj
 0001:00028450       ?isBuildingPositionExplored@BuildingManager@UAlbertaBot@@ABE_NABVBuilding@2@@Z 10029450 f   BuildingManager.obj
 0001:000284f0       ?setBuilderUnit@BuildingManager@UAlbertaBot@@AAEXAAVBuilding@2@@Z 100294f0 f   BuildingManager.obj
 0001:000285d0       ?releaseBuilderUnit@BuildingManager@UAlbertaBot@@AAEXAAVBuilding@2@@Z 100295d0 f   BuildingManager.obj
 0001:000286b0       ?isBeingBuilt@BuildingManager@UAlbertaBot@@QBE_NVUnitType@BWAPI@@@Z 100296b0 f   BuildingManager.obj
 0001:000286e0       ?getNumUnstarted@BuildingManager@UAlbertaBot@@QBEIVUnitType@BWAPI@@@Z 100296e0 f   BuildingManager.obj
 0001:00028710       ?drawBuildingInformation@BuildingManager@UAlbertaBot@@QAEXHH@Z 10029710 f   BuildingManager.obj
 0001:00028bd0       ?Instance@BuildingManager@UAlbertaBot@@SAAAV12@XZ 10029bd0 f   BuildingManager.obj
 0001:00028c30       ?buildingsQueued@BuildingManager@UAlbertaBot@@QAE?AV?$vector@VUnitType@BWAPI@@V?$allocator@VUnitType@BWAPI@@@std@@@std@@XZ 10029c30 f   BuildingManager.obj
 0001:00028d20       ?cancelBuilding@BuildingManager@UAlbertaBot@@QAEXAAVBuilding@2@@Z 10029d20 f   BuildingManager.obj
 0001:00028ec0       ?cancelQueuedBuildings@BuildingManager@UAlbertaBot@@QAEXXZ 10029ec0 f   BuildingManager.obj
 0001:00028fd0       ?cancelBuildingType@BuildingManager@UAlbertaBot@@QAEXVUnitType@BWAPI@@@Z 10029fd0 f   BuildingManager.obj
 0001:000290d0       ?getBuildingLocation@BuildingManager@UAlbertaBot@@QAE?AV?$Point@H$0CA@@BWAPI@@ABVBuilding@2@@Z 1002a0d0 f   BuildingManager.obj
 0001:000293a0       ?undoBuildings@BuildingManager@UAlbertaBot@@AAEXABV?$vector@V?$reference_wrapper@VBuilding@UAlbertaBot@@@std@@V?$allocator@V?$reference_wrapper@VBuilding@UAlbertaBot@@@std@@@2@@std@@@Z 1002a3a0 f   BuildingManager.obj
 0001:00029500       ?removeBuildings@BuildingManager@UAlbertaBot@@AAEXABV?$vector@V?$reference_wrapper@VBuilding@UAlbertaBot@@@std@@V?$allocator@V?$reference_wrapper@VBuilding@UAlbertaBot@@@std@@@2@@std@@@Z 1002a500 f   BuildingManager.obj
 0001:000295b0       ?push_back@?$vector@VBuilding@UAlbertaBot@@V?$allocator@VBuilding@UAlbertaBot@@@std@@@std@@QAEXABVBuilding@UAlbertaBot@@@Z 1002a5b0 f i BuildingManager.obj
 0001:00029660       ?push_back@?$vector@V?$reference_wrapper@VBuilding@UAlbertaBot@@@std@@V?$allocator@V?$reference_wrapper@VBuilding@UAlbertaBot@@@std@@@2@@std@@QAEX$$QAV?$reference_wrapper@VBuilding@UAlbertaBot@@@2@@Z 1002a660 f i BuildingManager.obj
 0001:000296d0       ?_Reserve@?$vector@VBuilding@UAlbertaBot@@V?$allocator@VBuilding@UAlbertaBot@@@std@@@std@@IAEXI@Z 1002a6d0 f i BuildingManager.obj
 0001:00029770       ?_Reserve@?$vector@V?$reference_wrapper@VBuilding@UAlbertaBot@@@std@@V?$allocator@V?$reference_wrapper@VBuilding@UAlbertaBot@@@std@@@2@@std@@IAEXI@Z 1002a770 f i BuildingManager.obj
 0001:000297e0       ?_Reserve@?$vector@VUnitType@BWAPI@@V?$allocator@VUnitType@BWAPI@@@std@@@std@@IAEXI@Z 1002a7e0 f i BuildingManager.obj
 0001:00029850       ?_Reallocate@?$vector@VBuilding@UAlbertaBot@@V?$allocator@VBuilding@UAlbertaBot@@@std@@@std@@IAEXI@Z 1002a850 f i BuildingManager.obj
 0001:000298e0       ?_Reallocate@?$vector@V?$reference_wrapper@VBuilding@UAlbertaBot@@@std@@V?$allocator@V?$reference_wrapper@VBuilding@UAlbertaBot@@@std@@@2@@std@@IAEXI@Z 1002a8e0 f i BuildingManager.obj
 0001:00029960       ?_Reallocate@?$vector@VUnitType@BWAPI@@V?$allocator@VUnitType@BWAPI@@@std@@@std@@IAEXI@Z 1002a960 f i BuildingManager.obj
 0001:000299e0       ??$_Uninit_move@PAVBuilding@UAlbertaBot@@PAV12@V?$allocator@VBuilding@UAlbertaBot@@@std@@V12@@std@@YAPAVBuilding@UAlbertaBot@@PAV12@00AAU?$_Wrap_alloc@V?$allocator@VBuilding@UAlbertaBot@@@std@@@0@0U_Nonscalar_ptr_iterator_tag@0@@Z 1002a9e0 f i BuildingManager.obj
 0001:00029a30       ??$_Uninit_move@PAV?$reference_wrapper@VBuilding@UAlbertaBot@@@std@@PAV12@V?$allocator@V?$reference_wrapper@VBuilding@UAlbertaBot@@@std@@@2@V12@@std@@YAPAV?$reference_wrapper@VBuilding@UAlbertaBot@@@0@PAV10@00AAU?$_Wrap_alloc@V?$allocator@V?$reference_wrapper@VBuilding@UAlbertaBot@@@std@@@std@@@0@0U_Nonscalar_ptr_iterator_tag@0@@Z 1002aa30 f i BuildingManager.obj
 0001:00029a60       ??0BuildingPlacer@UAlbertaBot@@AAE@XZ 1002aa60 f   BuildingPlacer.obj
 0001:00029bd0       ?reserveSpaceNearResources@BuildingPlacer@UAlbertaBot@@AAEXXZ 1002abd0 f   BuildingPlacer.obj
 0001:00029db0       ?setReserve@BuildingPlacer@UAlbertaBot@@AAEXV?$Point@H$0CA@@BWAPI@@HH_N@Z 1002adb0 f   BuildingPlacer.obj
 0001:00029ed0       ?boxOverlapsBase@BuildingPlacer@UAlbertaBot@@ABE_NHHHH@Z 1002aed0 f   BuildingPlacer.obj
 0001:00029f90       ?tileBlocksAddon@BuildingPlacer@UAlbertaBot@@ABE_NV?$Point@H$0CA@@BWAPI@@@Z 1002af90 f   BuildingPlacer.obj
 0001:0002a160       ?freeTile@BuildingPlacer@UAlbertaBot@@ABE_NHH@Z 1002b160 f   BuildingPlacer.obj
 0001:0002a260       ?freeOnTop@BuildingPlacer@UAlbertaBot@@ABE_NABV?$Point@H$0CA@@BWAPI@@VUnitType@4@@Z 1002b260 f   BuildingPlacer.obj
 0001:0002a2d0       ?freeOnRight@BuildingPlacer@UAlbertaBot@@ABE_NABV?$Point@H$0CA@@BWAPI@@VUnitType@4@@Z 1002b2d0 f   BuildingPlacer.obj
 0001:0002a350       ?freeOnLeft@BuildingPlacer@UAlbertaBot@@ABE_NABV?$Point@H$0CA@@BWAPI@@VUnitType@4@@Z 1002b350 f   BuildingPlacer.obj
 0001:0002a3c0       ?freeOnBottom@BuildingPlacer@UAlbertaBot@@ABE_NABV?$Point@H$0CA@@BWAPI@@VUnitType@4@@Z 1002b3c0 f   BuildingPlacer.obj
 0001:0002a450       ?freeOnAllSides@BuildingPlacer@UAlbertaBot@@ABE_NPAVUnitInterface@BWAPI@@@Z 1002b450 f   BuildingPlacer.obj
 0001:0002a570       ?canBuildHere@BuildingPlacer@UAlbertaBot@@ABE_NV?$Point@H$0CA@@BWAPI@@ABVBuilding@2@@Z 1002b570 f   BuildingPlacer.obj
 0001:0002a630       ?canBuildWithSpace@BuildingPlacer@UAlbertaBot@@ABE_NV?$Point@H$0CA@@BWAPI@@ABVBuilding@2@H@Z 1002b630 f   BuildingPlacer.obj
 0001:0002a740       ?groupTogether@BuildingPlacer@UAlbertaBot@@ABE_NVUnitType@BWAPI@@@Z 1002b740 f   BuildingPlacer.obj
 0001:0002a770       ?findEdgeLocation@BuildingPlacer@UAlbertaBot@@ABE?AV?$Point@H$0CA@@BWAPI@@ABVBuilding@2@@Z 1002b770 f   BuildingPlacer.obj
 0001:0002aaa0       ?findPylonlessBaseLocation@BuildingPlacer@UAlbertaBot@@ABE?AV?$Point@H$0CA@@BWAPI@@ABVBuilding@2@@Z 1002baa0 f   BuildingPlacer.obj
 0001:0002ac20       ?findGroupedLocation@BuildingPlacer@UAlbertaBot@@ABE?AV?$Point@H$0CA@@BWAPI@@ABVBuilding@2@@Z 1002bc20 f   BuildingPlacer.obj
 0001:0002b1b0       ?findSpecialLocation@BuildingPlacer@UAlbertaBot@@ABE?AV?$Point@H$0CA@@BWAPI@@ABVBuilding@2@@Z 1002c1b0 f   BuildingPlacer.obj
 0001:0002b270       ?findAnyLocation@BuildingPlacer@UAlbertaBot@@ABE?AV?$Point@H$0CA@@BWAPI@@ABVBuilding@2@H@Z 1002c270 f   BuildingPlacer.obj
 0001:0002b360       ?Instance@BuildingPlacer@UAlbertaBot@@SAAAV12@XZ 1002c360 f   BuildingPlacer.obj
 0001:0002b3c0       ?getBuildLocationNear@BuildingPlacer@UAlbertaBot@@QBE?AV?$Point@H$0CA@@BWAPI@@ABVBuilding@2@H@Z 1002c3c0 f   BuildingPlacer.obj
 0001:0002b4a0       ?isReserved@BuildingPlacer@UAlbertaBot@@QBE_NHH@Z 1002c4a0 f   BuildingPlacer.obj
 0001:0002b550       ?drawReservedTiles@BuildingPlacer@UAlbertaBot@@QAEXXZ 1002c550 f   BuildingPlacer.obj
 0001:0002b610       ?getRefineryPosition@BuildingPlacer@UAlbertaBot@@QAE?AV?$Point@H$0CA@@BWAPI@@XZ 1002c610 f   BuildingPlacer.obj
 0001:0002b790       ??4?$vector@V?$vector@_NV?$allocator@_N@std@@@std@@V?$allocator@V?$vector@_NV?$allocator@_N@std@@@std@@@2@@std@@QAEAAV01@$$QAV01@@Z 1002c790 f i BuildingPlacer.obj
 0001:0002b800       ?_Tidy@?$vector@V?$vector@_NV?$allocator@_N@std@@@std@@V?$allocator@V?$vector@_NV?$allocator@_N@std@@@std@@@2@@std@@IAEXXZ 1002c800 f i BuildingPlacer.obj
 0001:0002b800       ??1?$vector@V?$vector@_NV?$allocator@_N@std@@@std@@V?$allocator@V?$vector@_NV?$allocator@_N@std@@@std@@@2@@std@@QAE@XZ 1002c800 f i BuildingPlacer.obj
 0001:0002b840       ??1?$vector@_NV?$allocator@_N@std@@@std@@QAE@XZ 1002c840 f i BuildingPlacer.obj
 0001:0002b870       ?_Construct_n@?$vector@V?$vector@_NV?$allocator@_N@std@@@std@@V?$allocator@V?$vector@_NV?$allocator@_N@std@@@std@@@2@@std@@QAEXIPBV?$vector@_NV?$allocator@_N@std@@@2@@Z 1002c870 f i BuildingPlacer.obj
 0001:0002b900       ?_Getal@?$_Vector_alloc@$0A@U?$_Vec_base_types@V?$vector@_NV?$allocator@_N@std@@@std@@V?$allocator@V?$vector@_NV?$allocator@_N@std@@@std@@@2@@std@@@std@@QBE?AU?$_Wrap_alloc@V?$allocator@V?$vector@_NV?$allocator@_N@std@@@std@@@std@@@2@XZ 1002c900 f i BuildingPlacer.obj
 0001:0002b900       ?_Getal@?$_Vector_alloc@$0A@U?$_Vec_base_types@V?$vector@VActionTypeData@BOSS@@V?$allocator@VActionTypeData@BOSS@@@std@@@std@@V?$allocator@V?$vector@VActionTypeData@BOSS@@V?$allocator@VActionTypeData@BOSS@@@std@@@std@@@2@@std@@@std@@QBE?AU?$_Wrap_alloc@V?$allocator@V?$vector@VActionTypeData@BOSS@@V?$allocator@VActionTypeData@BOSS@@@std@@@std@@@std@@@2@XZ 1002c900 f i BOSS:ActionTypeData.obj
 0001:0002b900       ?_Getal@?$_Vector_alloc@$0A@U?$_Vec_base_types@U?$pair@W4OpeningPlan@UAlbertaBot@@V?$basic_string@DU?$char_traits@D@std@@V?$allocator@D@2@@std@@@std@@V?$allocator@U?$pair@W4OpeningPlan@UAlbertaBot@@V?$basic_string@DU?$char_traits@D@std@@V?$allocator@D@2@@std@@@std@@@2@@std@@@std@@QBE?AU?$_Wrap_alloc@V?$allocator@U?$pair@W4OpeningPlan@UAlbertaBot@@V?$basic_string@DU?$char_traits@D@std@@V?$allocator@D@2@@std@@@std@@@std@@@2@XZ 1002c900 f i Dll.obj
 0001:0002b900       ?_Getal@?$_Vector_alloc@$0A@U?$_Vec_base_types@VGridCell@UAlbertaBot@@V?$allocator@VGridCell@UAlbertaBot@@@std@@@std@@@std@@QBE?AU?$_Wrap_alloc@V?$allocator@VGridCell@UAlbertaBot@@@std@@@2@XZ 1002c900 f i MapGrid.obj
 0001:0002b910       ?_Trim@?$vector@_NV?$allocator@_N@std@@@std@@QAEXI@Z 1002c910 f i BuildingPlacer.obj
 0001:0002b980       ?erase@?$vector@IV?$allocator@_N@std@@@std@@QAE?AV?$_Vector_iterator@V?$_Vector_val@U?$_Simple_types@I@std@@@std@@@2@V?$_Vector_const_iterator@V?$_Vector_val@U?$_Simple_types@I@std@@@std@@@2@0@Z 1002c980 f i BuildingPlacer.obj
 0001:0002b9e0       ?_Construct_n@?$vector@IV?$allocator@_N@std@@@std@@QAEXIPBI@Z 1002c9e0 f i BuildingPlacer.obj
 0001:0002b9e0       ?_Construct_n@?$vector@HV?$allocator@H@std@@@std@@QAEXIPBH@Z 1002c9e0 f i UnitData.obj
 0001:0002b9e0       ?_Construct_n@?$vector@IV?$allocator@I@std@@@std@@QAEXIPBI@Z 1002c9e0 f i BOSS:BuildOrder.obj
 0001:0002ba20       ??$_Destroy_range@U?$_Wrap_alloc@V?$allocator@V?$vector@_NV?$allocator@_N@std@@@std@@@std@@@std@@@std@@YAXPAV?$vector@_NV?$allocator@_N@std@@@0@0AAU?$_Wrap_alloc@V?$allocator@V?$vector@_NV?$allocator@_N@std@@@std@@@std@@@0@U_Nonscalar_ptr_iterator_tag@0@@Z 1002ca20 f i BuildingPlacer.obj
 0001:0002ba70       ??$_Uninit_fill_n@PAV?$vector@_NV?$allocator@_N@std@@@std@@IV12@V?$allocator@V?$vector@_NV?$allocator@_N@std@@@std@@@2@V12@@std@@YAXPAV?$vector@_NV?$allocator@_N@std@@@0@IPBV10@AAU?$_Wrap_alloc@V?$allocator@V?$vector@_NV?$allocator@_N@std@@@std@@@std@@@0@0U_Nonscalar_ptr_iterator_tag@0@@Z 1002ca70 f i BuildingPlacer.obj
 0001:0002bb10       ??$destroy@V?$vector@_NV?$allocator@_N@std@@@std@@@?$_Wrap_alloc@V?$allocator@V?$vector@_NV?$allocator@_N@std@@@std@@@std@@@std@@QAEXPAV?$vector@_NV?$allocator@_N@std@@@1@@Z 1002cb10 f i BuildingPlacer.obj
 0001:0002bb50       ??0?$vector@IV?$allocator@_N@std@@@std@@QAE@ABV01@@Z 1002cb50 f i BuildingPlacer.obj
 0001:0002bbb0       ?add@BuildOrder@UAlbertaBot@@QAEXABVMacroAct@2@@Z 1002cbb0 f   BuildOrder.obj
 0001:0002bc40       ??0?$vector@VMacroAct@UAlbertaBot@@V?$allocator@VMacroAct@UAlbertaBot@@@std@@@std@@QAE@ABV01@@Z 1002cc40 f i BuildOrder.obj
 0001:0002bc90       ?_Buy@?$vector@VMacroAct@UAlbertaBot@@V?$allocator@VMacroAct@UAlbertaBot@@@std@@@std@@IAE_NI@Z 1002cc90 f i BuildOrder.obj
 0001:0002bd00       ??_D?$basic_stringstream@DU?$char_traits@D@std@@V?$allocator@D@2@@std@@QAEXXZ 1002cd00 f i BuildOrderQueue.obj
 0001:0002bd50       ??0BuildOrderQueue@UAlbertaBot@@QAE@XZ 1002cd50 f   BuildOrderQueue.obj
 0001:0002bdb0       ?dropStaticDefenses@BuildOrderQueue@UAlbertaBot@@QAEXXZ 1002cdb0 f   BuildOrderQueue.obj
 0001:0002beb0       ?queueAsLowestPriority@BuildOrderQueue@UAlbertaBot@@QAEXVMacroAct@2@@Z 1002ceb0 f   BuildOrderQueue.obj
 0001:0002bee0       ?pullToTop@BuildOrderQueue@UAlbertaBot@@QAEXI@Z 1002cee0 f   BuildOrderQueue.obj
 0001:0002bfd0       ?getHighestPriorityItem@BuildOrderQueue@UAlbertaBot@@QBEABUBuildOrderItem@2@XZ 1002cfd0 f   BuildOrderQueue.obj
 0001:0002c040       ?getNextUnit@BuildOrderQueue@UAlbertaBot@@QBE?AVUnitType@BWAPI@@XZ 1002d040 f   BuildOrderQueue.obj
 0001:0002c0b0       ?getNextGasCost@BuildOrderQueue@UAlbertaBot@@QBEHH@Z 1002d0b0 f   BuildOrderQueue.obj
 0001:0002c140       ?anyInQueue@BuildOrderQueue@UAlbertaBot@@QBE_NVUpgradeType@BWAPI@@@Z 1002d140 f   BuildOrderQueue.obj
 0001:0002c1b0       ?anyInQueue@BuildOrderQueue@UAlbertaBot@@QBE_NVUnitType@BWAPI@@@Z 1002d1b0 f   BuildOrderQueue.obj
 0001:0002c220       ?anyInNextN@BuildOrderQueue@UAlbertaBot@@QBE_NVUnitType@BWAPI@@H@Z 1002d220 f   BuildOrderQueue.obj
 0001:0002c2c0       ?anyInNextN@BuildOrderQueue@UAlbertaBot@@QBE_NVTechType@BWAPI@@H@Z 1002d2c0 f   BuildOrderQueue.obj
 0001:0002c360       ?numInQueue@BuildOrderQueue@UAlbertaBot@@QBEIVUnitType@BWAPI@@@Z 1002d360 f   BuildOrderQueue.obj
 0001:0002c3d0       ?totalCosts@BuildOrderQueue@UAlbertaBot@@QBEXAAH0@Z 1002d3d0 f   BuildOrderQueue.obj
 0001:0002c450       ?isGasStealInQueue@BuildOrderQueue@UAlbertaBot@@QBE_NXZ 1002d450 f   BuildOrderQueue.obj
 0001:0002c4c0       ?drawQueueInformation@BuildOrderQueue@UAlbertaBot@@QAEXHH_N@Z 1002d4c0 f   BuildOrderQueue.obj
 0001:0002c840       ??ABuildOrderQueue@UAlbertaBot@@QAE?AUBuildOrderItem@1@H@Z 1002d840 f   BuildOrderQueue.obj
 0001:0002c8a0       ??0?$basic_string@DU?$char_traits@D@std@@V?$allocator@D@2@@std@@QAE@XZ 1002d8a0 f i BuildOrderQueue.obj
 0001:0002c8c0       ?overflow@?$basic_stringbuf@DU?$char_traits@D@std@@V?$allocator@D@2@@std@@MAEHH@Z 1002d8c0 f i BuildOrderQueue.obj
 0001:0002ca90       ?pbackfail@?$basic_stringbuf@DU?$char_traits@D@std@@V?$allocator@D@2@@std@@MAEHH@Z 1002da90 f i BuildOrderQueue.obj
 0001:0002caf0       ?underflow@?$basic_stringbuf@DU?$char_traits@D@std@@V?$allocator@D@2@@std@@MAEHXZ 1002daf0 f i BuildOrderQueue.obj
 0001:0002cb50       ?seekoff@?$basic_stringbuf@DU?$char_traits@D@std@@V?$allocator@D@2@@std@@MAE?AV?$fpos@H@2@_JHH@Z 1002db50 f i BuildOrderQueue.obj
 0001:0002cd20       ?seekpos@?$basic_stringbuf@DU?$char_traits@D@std@@V?$allocator@D@2@@std@@MAE?AV?$fpos@H@2@V32@H@Z 1002dd20 f i BuildOrderQueue.obj
 0001:0002ce50       ??0?$basic_stringstream@DU?$char_traits@D@std@@V?$allocator@D@2@@std@@QAE@H@Z 1002de50 f i BuildOrderQueue.obj
 0001:0002cf10       ?str@?$basic_stringstream@DU?$char_traits@D@std@@V?$allocator@D@2@@std@@QBE?AV?$basic_string@DU?$char_traits@D@std@@V?$allocator@D@2@@2@XZ 1002df10 f i BuildOrderQueue.obj
 0001:0002cf30       ?push_front@?$deque@UBuildOrderItem@UAlbertaBot@@V?$allocator@UBuildOrderItem@UAlbertaBot@@@std@@@std@@QAEX$$QAUBuildOrderItem@UAlbertaBot@@@Z 1002df30 f i BuildOrderQueue.obj
 0001:0002cfc0       ?push_back@?$deque@UBuildOrderItem@UAlbertaBot@@V?$allocator@UBuildOrderItem@UAlbertaBot@@@std@@@std@@QAEX$$QAUBuildOrderItem@UAlbertaBot@@@Z 1002dfc0 f i BuildOrderQueue.obj
 0001:0002d040       ?erase@?$deque@UBuildOrderItem@UAlbertaBot@@V?$allocator@UBuildOrderItem@UAlbertaBot@@@std@@@std@@QAE?AV?$_Deque_iterator@V?$_Deque_val@U?$_Deque_simple_types@UBuildOrderItem@UAlbertaBot@@@std@@@std@@@2@V?$_Deque_const_iterator@V?$_Deque_val@U?$_Deque_simple_types@UBuildOrderItem@UAlbertaBot@@@std@@@std@@@2@@Z 1002e040 f i BuildOrderQueue.obj
 0001:0002d0a0       ??H?$_Deque_iterator@V?$_Deque_val@U?$_Deque_simple_types@UBuildOrderItem@UAlbertaBot@@@std@@@std@@@std@@QBE?AV01@H@Z 1002e0a0 f i BuildOrderQueue.obj
 0001:0002d0a0       ??H?$_Deque_const_iterator@V?$_Deque_val@U?$_Deque_simple_types@UBuildOrderItem@UAlbertaBot@@@std@@@std@@@std@@QBE?AV01@H@Z 1002e0a0 f i BuildOrderQueue.obj
 0001:0002d0e0       ??_E?$basic_stringbuf@DU?$char_traits@D@std@@V?$allocator@D@2@@std@@UAEPAXI@Z 1002e0e0 f i * CIL library *:* CIL module *
 0001:0002d0e0       ??_G?$basic_stringbuf@DU?$char_traits@D@std@@V?$allocator@D@2@@std@@UAEPAXI@Z 1002e0e0 f i BuildOrderQueue.obj
 0001:0002d110       ??_G?$basic_stringstream@DU?$char_traits@D@std@@V?$allocator@D@2@@std@@UAEPAXI@Z 1002e110 f i BuildOrderQueue.obj
 0001:0002d110       ??_E?$basic_stringstream@DU?$char_traits@D@std@@V?$allocator@D@2@@std@@UAEPAXI@Z 1002e110 f i * CIL library *:* CIL module *
 0001:0002d180       ?str@?$basic_stringbuf@DU?$char_traits@D@std@@V?$allocator@D@2@@std@@QBE?AV?$basic_string@DU?$char_traits@D@std@@V?$allocator@D@2@@2@XZ 1002e180 f i BuildOrderQueue.obj
 0001:0002d260       ?_Tidy@?$basic_stringbuf@DU?$char_traits@D@std@@V?$allocator@D@2@@std@@IAEXXZ 1002e260 f i BuildOrderQueue.obj
 0001:0002d2c0       ?erase@?$deque@UBuildOrderItem@UAlbertaBot@@V?$allocator@UBuildOrderItem@UAlbertaBot@@@std@@@std@@QAE?AV?$_Deque_iterator@V?$_Deque_val@U?$_Deque_simple_types@UBuildOrderItem@UAlbertaBot@@@std@@@std@@@2@V?$_Deque_const_iterator@V?$_Deque_val@U?$_Deque_simple_types@UBuildOrderItem@UAlbertaBot@@@std@@@std@@@2@0@Z 1002e2c0 f i BuildOrderQueue.obj
 0001:0002d480       ?_Growmap@?$deque@UBuildOrderItem@UAlbertaBot@@V?$allocator@UBuildOrderItem@UAlbertaBot@@@std@@@std@@IAEXI@Z 1002e480 f i BuildOrderQueue.obj
 0001:0002d600       ?_Tidy@?$deque@UBuildOrderItem@UAlbertaBot@@V?$allocator@UBuildOrderItem@UAlbertaBot@@@std@@@std@@IAEXXZ 1002e600 f i BuildOrderQueue.obj
 0001:0002d600       ?_Tidy@?$deque@VUnitType@BWAPI@@V?$allocator@VUnitType@BWAPI@@@std@@@std@@IAEXXZ 1002e600 f i GameCommander.obj
 0001:0002d670       ??G?$_Deque_const_iterator@V?$_Deque_val@U?$_Deque_simple_types@UBuildOrderItem@UAlbertaBot@@@std@@@std@@@std@@QBE?AV01@H@Z 1002e670 f i BuildOrderQueue.obj
 0001:0002d6b0       ??1sentry@?$basic_ostream@DU?$char_traits@D@std@@@std@@QAE@XZ 1002e6b0 f i BuildOrderQueue.obj
 0001:0002d6e0       ?_Init@?$basic_stringbuf@DU?$char_traits@D@std@@V?$allocator@D@2@@std@@IAEXPBDIH@Z 1002e6e0 f i BuildOrderQueue.obj
 0001:0002d790       ?_Make_iter@?$deque@UBuildOrderItem@UAlbertaBot@@V?$allocator@UBuildOrderItem@UAlbertaBot@@@std@@@std@@QBE?AV?$_Deque_iterator@V?$_Deque_val@U?$_Deque_simple_types@UBuildOrderItem@UAlbertaBot@@@std@@@std@@@2@V?$_Deque_const_iterator@V?$_Deque_val@U?$_Deque_simple_types@UBuildOrderItem@UAlbertaBot@@@std@@@std@@@2@@Z 1002e790 f i BuildOrderQueue.obj
 0001:0002d7d0       ??1_Sentry_base@?$basic_ostream@DU?$char_traits@D@std@@@std@@QAE@XZ 1002e7d0 f i BuildOrderQueue.obj
 0001:0002d7d0       ??1_Sentry_base@?$basic_istream@DU?$char_traits@D@std@@@std@@QAE@XZ 1002e7d0 f i GameRecord.obj
 0001:0002d7d0       ??1sentry@?$basic_istream@DU?$char_traits@D@std@@@std@@QAE@XZ 1002e7d0 f i GameRecord.obj
 0001:0002d7f0       ??$?6U?$char_traits@D@std@@@std@@YAAAV?$basic_ostream@DU?$char_traits@D@std@@@0@AAV10@PBD@Z 1002e7f0 f i BuildOrderQueue.obj
 0001:0002da30       ??$?6U?$char_traits@D@std@@@std@@YAAAV?$basic_ostream@DU?$char_traits@D@std@@@0@AAV10@D@Z 1002ea30 f i BuildOrderQueue.obj
 0001:0002dc40       ??$_Move_backward@V?$_Deque_iterator@V?$_Deque_val@U?$_Deque_simple_types@UBuildOrderItem@UAlbertaBot@@@std@@@std@@@std@@V12@@std@@YA?AV?$_Deque_iterator@V?$_Deque_val@U?$_Deque_simple_types@UBuildOrderItem@UAlbertaBot@@@std@@@std@@@0@V10@00@Z 1002ec40 f i BuildOrderQueue.obj
 0001:0002dce0       ??$_Move@V?$_Deque_iterator@V?$_Deque_val@U?$_Deque_simple_types@UBuildOrderItem@UAlbertaBot@@@std@@@std@@@std@@V12@@std@@YA?AV?$_Deque_iterator@V?$_Deque_val@U?$_Deque_simple_types@UBuildOrderItem@UAlbertaBot@@@std@@@std@@@0@V10@00@Z 1002ece0 f i BuildOrderQueue.obj
 0001:0002dd80       ??$_Move_backward@V?$_Deque_iterator@V?$_Deque_val@U?$_Deque_simple_types@UBuildOrderItem@UAlbertaBot@@@std@@@std@@@std@@V12@@std@@YA?AV?$_Deque_iterator@V?$_Deque_val@U?$_Deque_simple_types@UBuildOrderItem@UAlbertaBot@@@std@@@std@@@0@V10@00U_Nonscalar_ptr_iterator_tag@0@@Z 1002ed80 f i BuildOrderQueue.obj
 0001:0002de10       ??$_Move@V?$_Deque_iterator@V?$_Deque_val@U?$_Deque_simple_types@UBuildOrderItem@UAlbertaBot@@@std@@@std@@@std@@V12@@std@@YA?AV?$_Deque_iterator@V?$_Deque_val@U?$_Deque_simple_types@UBuildOrderItem@UAlbertaBot@@@std@@@std@@@0@V10@00U_Nonscalar_ptr_iterator_tag@0@@Z 1002ee10 f i BuildOrderQueue.obj
 0001:0002dea4       ??_E?$basic_stringstream@DU?$char_traits@D@std@@V?$allocator@D@2@@std@@$4PPPPPPPM@A@AEPAXI@Z 1002eea4 f i BuildOrderQueue.obj
 0001:0002deb0       ?analyzeForEnemies@CombatSimulation@UAlbertaBot@@ABE?AW4CombatSimEnemies@2@VUnitset@BWAPI@@@Z 1002eeb0 f   CombatSimulation.obj
 0001:0002e0e0       ?drawWhichEnemies@CombatSimulation@UAlbertaBot@@ABEXV?$Point@H$00@BWAPI@@@Z 1002f0e0 f   CombatSimulation.obj
 0001:0002e1f0       ?includeEnemy@CombatSimulation@UAlbertaBot@@ABE_NW4CombatSimEnemies@2@VUnitType@BWAPI@@@Z 1002f1f0 f   CombatSimulation.obj
 0001:0002e2c0       ?getClosestEnemyCombatUnit@CombatSimulation@UAlbertaBot@@ABE?AV?$Point@H$00@BWAPI@@ABV34@@Z 1002f2c0 f   CombatSimulation.obj
 0001:0002e4d0       ?setCombatUnits@CombatSimulation@UAlbertaBot@@QAEXABVUnitset@BWAPI@@ABV?$Point@H$00@4@H_N@Z 1002f4d0 f   CombatSimulation.obj
 0001:0002ed50       ?simulateCombat@CombatSimulation@UAlbertaBot@@QAEN_N@Z 1002fd50 f   CombatSimulation.obj
 0001:0002edd0       ??0SquadOrder@UAlbertaBot@@QAE@HV?$Point@H$00@BWAPI@@HV?$basic_string@DU?$char_traits@D@std@@V?$allocator@D@2@@std@@@Z 1002fdd0 f i CombatCommander.obj
 0001:0002ee60       ??1SquadOrder@UAlbertaBot@@QAE@XZ 1002fe60 f i CombatCommander.obj
 0001:0002ee90       ??0CombatCommander@UAlbertaBot@@QAE@XZ 1002fe90 f   CombatCommander.obj
 0001:0002ef80       ??1SquadData@UAlbertaBot@@QAE@XZ 1002ff80 f i CombatCommander.obj
 0001:0002efb0       ?initializeSquads@CombatCommander@UAlbertaBot@@AAEXXZ 1002ffb0 f   CombatCommander.obj
 0001:0002f680       ?update@CombatCommander@UAlbertaBot@@QAEXABVUnitset@BWAPI@@@Z 10030680 f   CombatCommander.obj
 0001:0002f760       ?updateIdleSquad@CombatCommander@UAlbertaBot@@AAEXXZ 10030760 f   CombatCommander.obj
 0001:0002f8b0       ?updateOverlordSquad@CombatCommander@UAlbertaBot@@AAEXXZ 100308b0 f   CombatCommander.obj
 0001:0002fad0       ?chooseScourgeTarget@CombatCommander@UAlbertaBot@@AAEXABVSquad@2@@Z 10030ad0 f   CombatCommander.obj
 0001:0002fd20       ?updateScourgeSquad@CombatCommander@UAlbertaBot@@AAEXXZ 10030d20 f   CombatCommander.obj
 0001:00030070       ?updateReconSquad@CombatCommander@UAlbertaBot@@AAEXXZ 10031070 f   CombatCommander.obj
 0001:00030790       ?weighReconUnit@CombatCommander@UAlbertaBot@@ABEHVUnitType@BWAPI@@@Z 10031790 f   CombatCommander.obj
 0001:00030820       ?chooseReconTarget@CombatCommander@UAlbertaBot@@AAEXXZ 10031820 f   CombatCommander.obj
 0001:000309a0       ?getReconLocation@CombatCommander@UAlbertaBot@@ABE?AV?$Point@H$00@BWAPI@@XZ 100319a0 f   CombatCommander.obj
 0001:00030c60       ?updateAttackSquads@CombatCommander@UAlbertaBot@@AAEXXZ 10031c60 f   CombatCommander.obj
 0001:00031280       ?updateDropSquads@CombatCommander@UAlbertaBot@@AAEXXZ 10032280 f   CombatCommander.obj
 0001:00031780       ??0SquadOrder@UAlbertaBot@@QAE@ABV01@@Z 10032780 f i CombatCommander.obj
 0001:000317d0       ?updateScoutDefenseSquad@CombatCommander@UAlbertaBot@@AAEXXZ 100327d0 f   CombatCommander.obj
 0001:00031a10       ?updateBaseDefenseSquads@CombatCommander@UAlbertaBot@@AAEXXZ 10032a10 f   CombatCommander.obj
 0001:00032c70       ?updateDefenseSquadUnits@CombatCommander@UAlbertaBot@@AAEXAAVSquad@2@ABI1_N2@Z 10033c70 f   CombatCommander.obj
 0001:00033030       ?findClosestDefender@CombatCommander@UAlbertaBot@@AAEPAVUnitInterface@BWAPI@@ABVSquad@2@V?$Point@H$00@4@_N22@Z 10034030 f   CombatCommander.obj
 0001:000331a0       ?loadOrUnloadBunkers@CombatCommander@UAlbertaBot@@AAEXXZ 100341a0 f   CombatCommander.obj
 0001:00033550       ?wantSquadDetectors@CombatCommander@UAlbertaBot@@ABE_NXZ 10034550 f   CombatCommander.obj
 0001:00033780       ?maybeAssignDetector@CombatCommander@UAlbertaBot@@AAEXAAVSquad@2@_N@Z 10034780 f   CombatCommander.obj
 0001:00033870       ?doComsatScan@CombatCommander@UAlbertaBot@@AAEXXZ 10034870 f   CombatCommander.obj
 0001:000339c0       ?doLarvaTrick@CombatCommander@UAlbertaBot@@AAEXXZ 100349c0 f   CombatCommander.obj
 0001:00033ad0       ?cancelDyingItems@CombatCommander@UAlbertaBot@@AAEXXZ 10034ad0 f   CombatCommander.obj
 0001:00033be0       ?workerPullScore@CombatCommander@UAlbertaBot@@CAHPAVUnitInterface@BWAPI@@@Z 10034be0 f   CombatCommander.obj
 0001:00033c80       ?pullWorkers@CombatCommander@UAlbertaBot@@QAEXH@Z 10034c80 f   CombatCommander.obj
 0001:00033f20       ?releaseWorkers@CombatCommander@UAlbertaBot@@QAEXXZ 10034f20 f   CombatCommander.obj
 0001:00033fd0       ?getAttackOrder@CombatCommander@UAlbertaBot@@AAE?AVSquadOrder@2@PBVSquad@2@@Z 10034fd0 f   CombatCommander.obj
 0001:00034220       ?getAttackLocation@CombatCommander@UAlbertaBot@@AAE?AV?$Point@H$00@BWAPI@@PBVSquad@2@@Z 10035220 f   CombatCommander.obj
 0001:00034c10       ?getDropLocation@CombatCommander@UAlbertaBot@@AAE?AV?$Point@H$00@BWAPI@@ABVSquad@2@@Z 10035c10 f   CombatCommander.obj
 0001:00034e30       ?getDefenseLocation@CombatCommander@UAlbertaBot@@AAE?AV?$Point@H$00@BWAPI@@XZ 10035e30 f   CombatCommander.obj
 0001:00034f20       ?findClosestWorkerToTarget@CombatCommander@UAlbertaBot@@AAEPAVUnitInterface@BWAPI@@AAVUnitset@4@PAV34@@Z 10035f20 f   CombatCommander.obj
 0001:00035060       ?numZerglingsInOurBase@CombatCommander@UAlbertaBot@@ABEHXZ 10036060 f   CombatCommander.obj
 0001:00035150       ?buildingRush@CombatCommander@UAlbertaBot@@ABE_NXZ 10036150 f   CombatCommander.obj
 0001:00035290       ?Instance@CombatCommander@UAlbertaBot@@SAAAV12@XZ 10036290 f   CombatCommander.obj
 0001:000352f0       ?erase@?$_Tree@V?$_Tmap_traits@V?$basic_string@DU?$char_traits@D@std@@V?$allocator@D@2@@std@@VSquad@UAlbertaBot@@U?$less@V?$basic_string@DU?$char_traits@D@std@@V?$allocator@D@2@@std@@@2@V?$allocator@U?$pair@$$CBV?$basic_string@DU?$char_traits@D@std@@V?$allocator@D@2@@std@@VSquad@UAlbertaBot@@@std@@@2@$0A@@std@@@std@@QAE?AV?$_Tree_iterator@V?$_Tree_val@U?$_Tree_simple_types@U?$pair@$$CBV?$basic_string@DU?$char_traits@D@std@@V?$allocator@D@2@@std@@VSquad@UAlbertaBot@@@std@@@std@@@std@@@2@V?$_Tree_const_iterator@V?$_Tree_val@U?$_Tree_simple_types@U?$pair@$$CBV?$basic_string@DU?$char_traits@D@std@@V?$allocator@D@2@@std@@VSquad@UAlbertaBot@@@std@@@std@@@std@@@2@0@Z 100362f0 f i CombatCommander.obj
 0001:000353b0       ?erase@?$_Tree@V?$_Tmap_traits@V?$basic_string@DU?$char_traits@D@std@@V?$allocator@D@2@@std@@VSquad@UAlbertaBot@@U?$less@V?$basic_string@DU?$char_traits@D@std@@V?$allocator@D@2@@std@@@2@V?$allocator@U?$pair@$$CBV?$basic_string@DU?$char_traits@D@std@@V?$allocator@D@2@@std@@VSquad@UAlbertaBot@@@std@@@2@$0A@@std@@@std@@QAE?AV?$_Tree_iterator@V?$_Tree_val@U?$_Tree_simple_types@U?$pair@$$CBV?$basic_string@DU?$char_traits@D@std@@V?$allocator@D@2@@std@@VSquad@UAlbertaBot@@@std@@@std@@@std@@@2@V?$_Tree_const_iterator@V?$_Tree_val@U?$_Tree_simple_types@U?$pair@$$CBV?$basic_string@DU?$char_traits@D@std@@V?$allocator@D@2@@std@@VSquad@UAlbertaBot@@@std@@@std@@@std@@@2@@Z 100363b0 f i CombatCommander.obj
 0001:00035660       ?_Erase@?$_Tree@V?$_Tmap_traits@V?$basic_string@DU?$char_traits@D@std@@V?$allocator@D@2@@std@@VSquad@UAlbertaBot@@U?$less@V?$basic_string@DU?$char_traits@D@std@@V?$allocator@D@2@@std@@@2@V?$allocator@U?$pair@$$CBV?$basic_string@DU?$char_traits@D@std@@V?$allocator@D@2@@std@@VSquad@UAlbertaBot@@@std@@@2@$0A@@std@@@std@@IAEXPAU?$_Tree_node@U?$pair@$$CBV?$basic_string@DU?$char_traits@D@std@@V?$allocator@D@2@@std@@VSquad@UAlbertaBot@@@std@@PAX@2@@Z 10036660 f i CombatCommander.obj
 0001:00035720       ??$?WV?$UnaryFilter@PAVUnitInterface@BWAPI@@V?$function@$$A6A_NPAVUnitInterface@BWAPI@@@Z@std@@@BWAPI@@@?$UnaryFilter@PAVUnitInterface@BWAPI@@V?$function@$$A6A_NPAVUnitInterface@BWAPI@@@Z@std@@@BWAPI@@QBE?AV01@ABV01@@Z 10036720 f i CombatCommander.obj
 0001:00035870       ??$_Push_heap@PAPAVUnitInterface@BWAPI@@HPAV12@V<lambda_b38aadced49978d3b08af6a022435c25>@@@std@@YAXPAPAVUnitInterface@BWAPI@@HH$$QAPAV12@V<lambda_b38aadced49978d3b08af6a022435c25>@@@Z 10036870 f i CombatCommander.obj
 0001:000358f0       ??$_Adjust_heap@PAPAVUnitInterface@BWAPI@@HPAV12@V<lambda_b38aadced49978d3b08af6a022435c25>@@@std@@YAXPAPAVUnitInterface@BWAPI@@HH$$QAPAV12@V<lambda_b38aadced49978d3b08af6a022435c25>@@@Z 100368f0 f i CombatCommander.obj
 0001:00035970       ?_Copy@?$_Func_impl@U?$_Callable_obj@V?$UnaryFilter@PAVUnitInterface@BWAPI@@P6A_NPAV12@@Z@BWAPI@@$0A@@std@@V?$allocator@V?$_Func_class@_NPAVUnitInterface@BWAPI@@@std@@@2@_NPAVUnitInterface@BWAPI@@@std@@UAEPAV?$_Func_base@_NPAVUnitInterface@BWAPI@@@2@PAX@Z 10036970 f i CombatCommander.obj
 0001:00035970       ?_Move@?$_Func_impl@U?$_Callable_obj@V?$UnaryFilter@PAVUnitInterface@BWAPI@@P6A_NPAV12@@Z@BWAPI@@$0A@@std@@V?$allocator@V?$_Func_class@_NPAVUnitInterface@BWAPI@@@std@@@2@_NPAVUnitInterface@BWAPI@@@std@@UAEPAV?$_Func_base@_NPAVUnitInterface@BWAPI@@@2@PAX@Z 10036970 f i CombatCommander.obj
 0001:000359b0       ?_Do_call@?$_Func_impl@U?$_Callable_obj@V?$UnaryFilter@PAVUnitInterface@BWAPI@@P6A_NPAV12@@Z@BWAPI@@$0A@@std@@V?$allocator@V?$_Func_class@_NPAVUnitInterface@BWAPI@@@std@@@2@_NPAVUnitInterface@BWAPI@@@std@@UAE_N$$QAPAVUnitInterface@BWAPI@@@Z 100369b0 f i CombatCommander.obj
 0001:000359d0       ?_Target_type@?$_Func_impl@U?$_Callable_obj@V?$UnaryFilter@PAVUnitInterface@BWAPI@@P6A_NPAV12@@Z@BWAPI@@$0A@@std@@V?$allocator@V?$_Func_class@_NPAVUnitInterface@BWAPI@@@std@@@2@_NPAVUnitInterface@BWAPI@@@std@@UBEABVtype_info@@XZ 100369d0 f i CombatCommander.obj
 0001:000359e0       ?_Copy@?$_Func_impl@U?$_Callable_obj@V<lambda_aba4f7dd9ba17059b8de52b74f35f28e>@@$0A@@std@@V?$allocator@V?$_Func_class@_NPAVUnitInterface@BWAPI@@@std@@@2@_NPAVUnitInterface@BWAPI@@@std@@UAEPAV?$_Func_base@_NPAVUnitInterface@BWAPI@@@2@PAX@Z 100369e0 f i CombatCommander.obj
 0001:000359e0       ?_Move@?$_Func_impl@U?$_Callable_obj@V<lambda_aba4f7dd9ba17059b8de52b74f35f28e>@@$0A@@std@@V?$allocator@V?$_Func_class@_NPAVUnitInterface@BWAPI@@@std@@@2@_NPAVUnitInterface@BWAPI@@@std@@UAEPAV?$_Func_base@_NPAVUnitInterface@BWAPI@@@2@PAX@Z 100369e0 f i CombatCommander.obj
 0001:00035a90       ?_Do_call@?$_Func_impl@U?$_Callable_obj@V<lambda_aba4f7dd9ba17059b8de52b74f35f28e>@@$0A@@std@@V?$allocator@V?$_Func_class@_NPAVUnitInterface@BWAPI@@@std@@@2@_NPAVUnitInterface@BWAPI@@@std@@UAE_N$$QAPAVUnitInterface@BWAPI@@@Z 10036a90 f i CombatCommander.obj
 0001:00035ab0       ?_Target_type@?$_Func_impl@U?$_Callable_obj@V<lambda_aba4f7dd9ba17059b8de52b74f35f28e>@@$0A@@std@@V?$allocator@V?$_Func_class@_NPAVUnitInterface@BWAPI@@@std@@@2@_NPAVUnitInterface@BWAPI@@@std@@UBEABVtype_info@@XZ 10036ab0 f i CombatCommander.obj
 0001:00035ac0       ??_G?$_Func_impl@U?$_Callable_obj@V<lambda_aba4f7dd9ba17059b8de52b74f35f28e>@@$0A@@std@@V?$allocator@V?$_Func_class@_NPAVUnitInterface@BWAPI@@@std@@@2@_NPAVUnitInterface@BWAPI@@@std@@UAEPAXI@Z 10036ac0 f i CombatCommander.obj
 0001:00035ac0       ??_E?$_Func_impl@U?$_Callable_obj@V<lambda_aba4f7dd9ba17059b8de52b74f35f28e>@@$0A@@std@@V?$allocator@V?$_Func_class@_NPAVUnitInterface@BWAPI@@@std@@@2@_NPAVUnitInterface@BWAPI@@@std@@UAEPAXI@Z 10036ac0 f i * CIL library *:* CIL module *
 0001:00035b30       ??$?0ABV<lambda_aba4f7dd9ba17059b8de52b74f35f28e>@@@?$_Func_impl@U?$_Callable_obj@V<lambda_aba4f7dd9ba17059b8de52b74f35f28e>@@$0A@@std@@V?$allocator@V?$_Func_class@_NPAVUnitInterface@BWAPI@@@std@@@2@_NPAVUnitInterface@BWAPI@@@std@@QAE@ABV<lambda_aba4f7dd9ba17059b8de52b74f35f28e>@@ABV?$allocator@V?$_Func_impl@U?$_Callable_obj@V<lambda_aba4f7dd9ba17059b8de52b74f35f28e>@@$0A@@std@@V?$allocator@V?$_Func_class@_NPAVUnitInterface@BWAPI@@@std@@@2@_NPAVUnitInterface@BWAPI@@@std@@@1@@Z 10036b30 f i CombatCommander.obj
 0001:00035bc0       ?Intersection@@YA?AVUnitset@BWAPI@@ABV12@0@Z 10036bc0 f   Common.obj
 0001:00035c80       ?GetIntFromString@@YAHABV?$basic_string@DU?$char_traits@D@std@@V?$allocator@D@2@@std@@@Z 10036c80 f   Common.obj
 0001:00035d50       ?TrimRaceName@@YA?AV?$basic_string@DU?$char_traits@D@std@@V?$allocator@D@2@@std@@ABV12@@Z 10036d50 f   Common.obj
 0001:00035f30       ?RaceChar@@YADVRace@BWAPI@@@Z 10036f30 f   Common.obj
 0001:00035f60       ?NiceMacroActName@@YA?AV?$basic_string@DU?$char_traits@D@std@@V?$allocator@D@2@@std@@ABV12@@Z 10036f60 f   Common.obj
 0001:00035fe0       ?UnitTypeName@@YA?AV?$basic_string@DU?$char_traits@D@std@@V?$allocator@D@2@@std@@VUnitType@BWAPI@@@Z 10036fe0 f   Common.obj
 0001:00036060       ?GameMessage@@YAXPBD@Z     10037060 f   Common.obj
 0001:000361a0       ?DistanceAndDirection@@YA?AV?$Point@H$00@BWAPI@@ABV12@0H@Z 100371a0 f   Common.obj
 0001:00036250       ?PredictMovement@@YA?AV?$Point@H$00@BWAPI@@PAVUnitInterface@2@H@Z 10037250 f   Common.obj
 0001:00036360       ?substr@?$basic_string@DU?$char_traits@D@std@@V?$allocator@D@2@@std@@QBE?AV12@II@Z 10037360 f i Common.obj
 0001:000363a0       ??8?$Point@H$00@BWAPI@@QBE_NABV01@@Z 100373a0 f i Common.obj
 0001:000363c0       ??0?$basic_stringstream@DU?$char_traits@D@std@@V?$allocator@D@2@@std@@QAE@ABV?$basic_string@DU?$char_traits@D@std@@V?$allocator@D@2@@1@H@Z 100373c0 f i Common.obj
 0001:00036470       ?compare@?$basic_string@DU?$char_traits@D@std@@V?$allocator@D@2@@std@@QBEHIIPBDI@Z 10037470 f i Common.obj
 0001:000364e0       ??0?$basic_stringbuf@DU?$char_traits@D@std@@V?$allocator@D@2@@std@@QAE@ABV?$basic_string@DU?$char_traits@D@std@@V?$allocator@D@2@@1@H@Z 100374e0 f i Common.obj
 0001:00036580       ??$?8DU?$char_traits@D@std@@V?$allocator@D@1@@std@@YA_NABV?$basic_string@DU?$char_traits@D@std@@V?$allocator@D@2@@0@PBD@Z 10037580 f i Common.obj
 0001:000365c0       ??1?$pair@W4OpeningPlan@UAlbertaBot@@V?$basic_string@DU?$char_traits@D@std@@V?$allocator@D@2@@std@@@std@@QAE@XZ 100375c0 f i Dll.obj
 0001:000365f0       _gameInit                  100375f0 f   Dll.obj
 0001:00036600       _DllMain@12                10037600 f   Dll.obj
 0001:00036610       _newAIModule               10037610 f   Dll.obj
 0001:00036660       ??$_Insert@PBU?$pair@W4OpeningPlan@UAlbertaBot@@V?$basic_string@DU?$char_traits@D@std@@V?$allocator@D@2@@std@@@std@@@?$vector@U?$pair@W4OpeningPlan@UAlbertaBot@@V?$basic_string@DU?$char_traits@D@std@@V?$allocator@D@2@@std@@@std@@V?$allocator@U?$pair@W4OpeningPlan@UAlbertaBot@@V?$basic_string@DU?$char_traits@D@std@@V?$allocator@D@2@@std@@@std@@@2@@std@@QAEXV?$_Vector_const_iterator@V?$_Vector_val@U?$_Simple_types@U?$pair@W4OpeningPlan@UAlbertaBot@@V?$basic_string@DU?$char_traits@D@std@@V?$allocator@D@2@@std@@@std@@@std@@@std@@@1@PBU?$pair@W4OpeningPlan@UAlbertaBot@@V?$basic_string@DU?$char_traits@D@std@@V?$allocator@D@2@@std@@@1@1Uforward_iterator_tag@1@@Z 10037660 f i Dll.obj
 0001:00036850       ??$_Destroy_range@U?$_Wrap_alloc@V?$allocator@U?$pair@W4OpeningPlan@UAlbertaBot@@V?$basic_string@DU?$char_traits@D@std@@V?$allocator@D@2@@std@@@std@@@std@@@std@@@std@@YAXPAU?$pair@W4OpeningPlan@UAlbertaBot@@V?$basic_string@DU?$char_traits@D@std@@V?$allocator@D@2@@std@@@0@0AAU?$_Wrap_alloc@V?$allocator@U?$pair@W4OpeningPlan@UAlbertaBot@@V?$basic_string@DU?$char_traits@D@std@@V?$allocator@D@2@@std@@@std@@@std@@@0@U_Nonscalar_ptr_iterator_tag@0@@Z 10037850 f i Dll.obj
 0001:00036890       ?_Grow_to@?$vector@U?$pair@W4OpeningPlan@UAlbertaBot@@V?$basic_string@DU?$char_traits@D@std@@V?$allocator@D@2@@std@@@std@@V?$allocator@U?$pair@W4OpeningPlan@UAlbertaBot@@V?$basic_string@DU?$char_traits@D@std@@V?$allocator@D@2@@std@@@std@@@2@@std@@IBEII@Z 10037890 f i Dll.obj
 0001:000368e0       ?allocate@?$_Wrap_alloc@V?$allocator@U?$pair@W4OpeningPlan@UAlbertaBot@@V?$basic_string@DU?$char_traits@D@std@@V?$allocator@D@2@@std@@@std@@@std@@@std@@QAEPAU?$pair@W4OpeningPlan@UAlbertaBot@@V?$basic_string@DU?$char_traits@D@std@@V?$allocator@D@2@@std@@@2@I@Z 100378e0 f i Dll.obj
 0001:00036920       ??$destroy@U?$pair@W4OpeningPlan@UAlbertaBot@@V?$basic_string@DU?$char_traits@D@std@@V?$allocator@D@2@@std@@@std@@@?$_Wrap_alloc@V?$allocator@U?$pair@W4OpeningPlan@UAlbertaBot@@V?$basic_string@DU?$char_traits@D@std@@V?$allocator@D@2@@std@@@std@@@std@@@std@@QAEXPAU?$pair@W4OpeningPlan@UAlbertaBot@@V?$basic_string@DU?$char_traits@D@std@@V?$allocator@D@2@@std@@@1@@Z 10037920 f i Dll.obj
 0001:00036950       ??$_Rotate@PAU?$pair@W4OpeningPlan@UAlbertaBot@@V?$basic_string@DU?$char_traits@D@std@@V?$allocator@D@2@@std@@@std@@HU12@@std@@YAXPAU?$pair@W4OpeningPlan@UAlbertaBot@@V?$basic_string@DU?$char_traits@D@std@@V?$allocator@D@2@@std@@@0@00PAH0@Z 10037950 f i Dll.obj
 0001:00036b40       ??$_Uninit_move@PAU?$pair@W4OpeningPlan@UAlbertaBot@@V?$basic_string@DU?$char_traits@D@std@@V?$allocator@D@2@@std@@@std@@PAU12@V?$allocator@U?$pair@W4OpeningPlan@UAlbertaBot@@V?$basic_string@DU?$char_traits@D@std@@V?$allocator@D@2@@std@@@std@@@2@U12@@std@@YAPAU?$pair@W4OpeningPlan@UAlbertaBot@@V?$basic_string@DU?$char_traits@D@std@@V?$allocator@D@2@@std@@@0@PAU10@00AAU?$_Wrap_alloc@V?$allocator@U?$pair@W4OpeningPlan@UAlbertaBot@@V?$basic_string@DU?$char_traits@D@std@@V?$allocator@D@2@@std@@@std@@@std@@@0@0U_Nonscalar_ptr_iterator_tag@0@@Z 10037b40 f i Dll.obj
 0001:00036bf0       ??$_Uninit_copy@PBU?$pair@W4OpeningPlan@UAlbertaBot@@V?$basic_string@DU?$char_traits@D@std@@V?$allocator@D@2@@std@@@std@@PAU12@V?$allocator@U?$pair@W4OpeningPlan@UAlbertaBot@@V?$basic_string@DU?$char_traits@D@std@@V?$allocator@D@2@@std@@@std@@@2@@std@@YAPAU?$pair@W4OpeningPlan@UAlbertaBot@@V?$basic_string@DU?$char_traits@D@std@@V?$allocator@D@2@@std@@@0@PBU10@0PAU10@AAU?$_Wrap_alloc@V?$allocator@U?$pair@W4OpeningPlan@UAlbertaBot@@V?$basic_string@DU?$char_traits@D@std@@V?$allocator@D@2@@std@@@std@@@std@@@0@U_Nonscalar_ptr_iterator_tag@0@@Z 10037bf0 f i Dll.obj
 0001:00036cb0       ??0UnitInfo@UAlbertaBot@@QAE@XZ 10037cb0 f i FAP.obj
 0001:00036d00       ??0UnitInfo@UAlbertaBot@@QAE@PAVUnitInterface@BWAPI@@@Z 10037d00 f i FAP.obj
 0001:00036d80       ??1FastAPproximation@UAlbertaBot@@QAE@XZ 10037d80 f i FAP.obj
 0001:00036df0       ?addUnitPlayer2@FastAPproximation@UAlbertaBot@@QAEXUFAPUnit@12@@Z 10037df0 f   FAP.obj
 0001:00036e80       ?simulate@FastAPproximation@UAlbertaBot@@QAEXH@Z 10037e80 f   FAP.obj
 0001:000370a0       ?playerScores@FastAPproximation@UAlbertaBot@@QBE?AU?$pair@HH@std@@XZ 100380a0 f   FAP.obj
 0001:00037130       ?dealDamage@FastAPproximation@UAlbertaBot@@ABEXABUFAPUnit@12@HVDamageType@BWAPI@@@Z 10038130 f   FAP.obj
 0001:000371e0       ?isSuicideUnit@FastAPproximation@UAlbertaBot@@AAE_NVUnitType@BWAPI@@@Z 100381e0 f   FAP.obj
 0001:00037220       ?unitsim@FastAPproximation@UAlbertaBot@@AAEXABUFAPUnit@12@AAV?$vector@UFAPUnit@FastAPproximation@UAlbertaBot@@V?$allocator@UFAPUnit@FastAPproximation@UAlbertaBot@@@std@@@std@@@Z 10038220 f   FAP.obj
 0001:00037480       ?medicsim@FastAPproximation@UAlbertaBot@@AAEXABUFAPUnit@12@AAV?$vector@UFAPUnit@FastAPproximation@UAlbertaBot@@V?$allocator@UFAPUnit@FastAPproximation@UAlbertaBot@@@std@@@std@@@Z 10038480 f   FAP.obj
 0001:00037540       ?suicideSim@FastAPproximation@UAlbertaBot@@AAE_NABUFAPUnit@12@AAV?$vector@UFAPUnit@FastAPproximation@UAlbertaBot@@V?$allocator@UFAPUnit@FastAPproximation@UAlbertaBot@@@std@@@std@@@Z 10038540 f   FAP.obj
 0001:000376f0       ?unitDeath@FastAPproximation@UAlbertaBot@@AAEXABUFAPUnit@12@AAV?$vector@UFAPUnit@FastAPproximation@UAlbertaBot@@V?$allocator@UFAPUnit@FastAPproximation@UAlbertaBot@@@std@@@std@@@Z 100386f0 f   FAP.obj
 0001:00037780       ?convertToUnitType@FastAPproximation@UAlbertaBot@@AAEXABUFAPUnit@12@VUnitType@BWAPI@@@Z 10038780 f   FAP.obj
 0001:00037810       ??0FAPUnit@FastAPproximation@UAlbertaBot@@QAE@UUnitInfo@2@@Z 10038810 f   FAP.obj
 0001:00037cb0       ??4FAPUnit@FastAPproximation@UAlbertaBot@@QBEABU012@ABU012@@Z 10038cb0 f   FAP.obj
 0001:00037d70       ?unitScore@FAPUnit@FastAPproximation@UAlbertaBot@@QBEHVUnitType@BWAPI@@@Z 10038d70 f   FAP.obj
 0001:00037e10       ?_Reserve@?$vector@UFAPUnit@FastAPproximation@UAlbertaBot@@V?$allocator@UFAPUnit@FastAPproximation@UAlbertaBot@@@std@@@std@@IAEXI@Z 10038e10 f i FAP.obj
 0001:00037e80       ?_Reallocate@?$vector@UFAPUnit@FastAPproximation@UAlbertaBot@@V?$allocator@UFAPUnit@FastAPproximation@UAlbertaBot@@@std@@@std@@IAEXI@Z 10038e80 f i FAP.obj
 0001:00037f00       ??$_Move@PAUFAPUnit@FastAPproximation@UAlbertaBot@@PAU123@@std@@YAPAUFAPUnit@FastAPproximation@UAlbertaBot@@PAU123@00U_Nonscalar_ptr_iterator_tag@0@@Z 10038f00 f i FAP.obj
 0001:00037ff0       ??$_Uninit_move@PAUFAPUnit@FastAPproximation@UAlbertaBot@@PAU123@V?$allocator@UFAPUnit@FastAPproximation@UAlbertaBot@@@std@@U123@@std@@YAPAUFAPUnit@FastAPproximation@UAlbertaBot@@PAU123@00AAU?$_Wrap_alloc@V?$allocator@UFAPUnit@FastAPproximation@UAlbertaBot@@@std@@@0@0U_Nonscalar_ptr_iterator_tag@0@@Z 10038ff0 f i FAP.obj
 0001:00038020       ??1TimerManager@UAlbertaBot@@QAE@XZ 10039020 f i GameCommander.obj
 0001:00038080       ??0GameCommander@UAlbertaBot@@QAE@XZ 10039080 f   GameCommander.obj
 0001:00038190       ?update@GameCommander@UAlbertaBot@@QAEXXZ 10039190 f   GameCommander.obj
 0001:000388c0       ?onEnd@GameCommander@UAlbertaBot@@QAEX_N@Z 100398c0 f   GameCommander.obj
 0001:00038990       ?drawDebugInterface@GameCommander@UAlbertaBot@@QAEXXZ 10039990 f   GameCommander.obj
 0001:00038ce0       ?drawGameInformation@GameCommander@UAlbertaBot@@QAEXHH@Z 10039ce0 f   GameCommander.obj
 0001:00039470       ?drawUnitOrders@GameCommander@UAlbertaBot@@QAEXXZ 1003a470 f   GameCommander.obj
 0001:000398b0       ?isAssigned@GameCommander@UAlbertaBot@@ABE_NPAVUnitInterface@BWAPI@@@Z 1003a8b0 f   GameCommander.obj
 0001:00039920       ?setValidUnits@GameCommander@UAlbertaBot@@QAEXXZ 1003a920 f   GameCommander.obj
 0001:00039990       ?setScoutUnits@GameCommander@UAlbertaBot@@QAEXXZ 1003a990 f   GameCommander.obj
 0001:00039b60       ?setCombatUnits@GameCommander@UAlbertaBot@@QAEXXZ 1003ab60 f   GameCommander.obj
 0001:00039c60       ?onUnitShow@GameCommander@UAlbertaBot@@QAEXPAVUnitInterface@BWAPI@@@Z 1003ac60 f   GameCommander.obj
 0001:00039d50       ?onUnitHide@GameCommander@UAlbertaBot@@QAEXPAVUnitInterface@BWAPI@@@Z 1003ad50 f   GameCommander.obj
 0001:00039d50       ?onUnitCreate@GameCommander@UAlbertaBot@@QAEXPAVUnitInterface@BWAPI@@@Z 1003ad50 f   GameCommander.obj
 0001:00039e00       ?onUnitComplete@GameCommander@UAlbertaBot@@QAEXPAVUnitInterface@BWAPI@@@Z 1003ae00 f   GameCommander.obj
 0001:00039ec0       ?onUnitRenegade@GameCommander@UAlbertaBot@@QAEXPAVUnitInterface@BWAPI@@@Z 1003aec0 f   GameCommander.obj
 0001:00039f70       ?onUnitDestroy@GameCommander@UAlbertaBot@@QAEXPAVUnitInterface@BWAPI@@@Z 1003af70 f   GameCommander.obj
 0001:0003a060       ?onUnitMorph@GameCommander@UAlbertaBot@@QAEXPAVUnitInterface@BWAPI@@@Z 1003b060 f   GameCommander.obj
 0001:0003a150       ?getAnyFreeWorker@GameCommander@UAlbertaBot@@AAEPAVUnitInterface@BWAPI@@XZ 1003b150 f   GameCommander.obj
 0001:0003a270       ?assignUnit@GameCommander@UAlbertaBot@@AAEXPAVUnitInterface@BWAPI@@AAVUnitset@4@@Z 1003b270 f   GameCommander.obj
 0001:0003a350       ?surrenderMonkey@GameCommander@UAlbertaBot@@AAE_NXZ 1003b350 f   GameCommander.obj
 0001:0003a450       ?Instance@GameCommander@UAlbertaBot@@SAAAV12@XZ 1003b450 f   GameCommander.obj
 0001:0003a4b0       ?getName@?$Type@VUpgradeType@BWAPI@@$0DO@@BWAPI@@QBEABV?$basic_string@DU?$char_traits@D@std@@V?$allocator@D@2@@std@@XZ 1003b4b0 f i GameCommander.obj
 0001:0003a4d0       ?getName@?$Type@VTechType@BWAPI@@$0CO@@BWAPI@@QBEABV?$basic_string@DU?$char_traits@D@std@@V?$allocator@D@2@@std@@XZ 1003b4d0 f i GameCommander.obj
 0001:0003a4f0       ?find@?$_Tree@V?$_Tmap_traits@V?$basic_string@DU?$char_traits@D@std@@V?$allocator@D@2@@std@@UOpeningInfoType@OpponentModel@UAlbertaBot@@U?$less@V?$basic_string@DU?$char_traits@D@std@@V?$allocator@D@2@@std@@@2@V?$allocator@U?$pair@$$CBV?$basic_string@DU?$char_traits@D@std@@V?$allocator@D@2@@std@@UOpeningInfoType@OpponentModel@UAlbertaBot@@@std@@@2@$0A@@std@@@std@@QBE?AV?$_Tree_const_iterator@V?$_Tree_val@U?$_Tree_simple_types@U?$pair@$$CBV?$basic_string@DU?$char_traits@D@std@@V?$allocator@D@2@@std@@UOpeningInfoType@OpponentModel@UAlbertaBot@@@std@@@std@@@std@@@2@ABV?$basic_string@DU?$char_traits@D@std@@V?$allocator@D@2@@2@@Z 1003b4f0 f i GameCommander.obj
 0001:0003a4f0       ?find@?$_Tree@V?$_Tmap_traits@V?$basic_string@DU?$char_traits@D@std@@V?$allocator@D@2@@std@@UStrategy@UAlbertaBot@@U?$less@V?$basic_string@DU?$char_traits@D@std@@V?$allocator@D@2@@std@@@2@V?$allocator@U?$pair@$$CBV?$basic_string@DU?$char_traits@D@std@@V?$allocator@D@2@@std@@UStrategy@UAlbertaBot@@@std@@@2@$0A@@std@@@std@@QBE?AV?$_Tree_const_iterator@V?$_Tree_val@U?$_Tree_simple_types@U?$pair@$$CBV?$basic_string@DU?$char_traits@D@std@@V?$allocator@D@2@@std@@UStrategy@UAlbertaBot@@@std@@@std@@@std@@@2@ABV?$basic_string@DU?$char_traits@D@std@@V?$allocator@D@2@@2@@Z 1003b4f0 f i StrategyManager.obj
 0001:0003a560       ??1?$vector@V?$basic_string@DU?$char_traits@D@std@@V?$allocator@D@2@@std@@V?$allocator@V?$basic_string@DU?$char_traits@D@std@@V?$allocator@D@2@@std@@@2@@std@@QAE@XZ 1003b560 f i GameCommander.obj
 0001:0003a560       ??1?$vector@$$CBV?$basic_string@DU?$char_traits@D@std@@V?$allocator@D@2@@std@@V?$allocator@$$CBV?$basic_string@DU?$char_traits@D@std@@V?$allocator@D@2@@std@@@2@@std@@QAE@XZ 1003b560 f i ParseUtils.obj
 0001:0003a5a0       ??1BuildOrderQueue@UAlbertaBot@@QAE@XZ 1003b5a0 f i ProductionManager.obj
 0001:0003a5a0       ??1?$deque@VUnitType@BWAPI@@V?$allocator@VUnitType@BWAPI@@@std@@@std@@QAE@XZ 1003b5a0 f i GameCommander.obj
 0001:0003a5c0       ??R?$less@V?$basic_string@DU?$char_traits@D@std@@V?$allocator@D@2@@std@@@std@@QBE_NABV?$basic_string@DU?$char_traits@D@std@@V?$allocator@D@2@@1@0@Z 1003b5c0 f i GameCommander.obj
 0001:0003a5f0       ??H?$_Deque_iterator@V?$_Deque_val@U?$_Deque_simple_types@VUnitType@BWAPI@@@std@@@std@@@std@@QBE?AV01@H@Z 1003b5f0 f i GameCommander.obj
 0001:0003a630       ?_Lbound@?$_Tree@V?$_Tmap_traits@V?$basic_string@DU?$char_traits@D@std@@V?$allocator@D@2@@std@@UStrategy@UAlbertaBot@@U?$less@V?$basic_string@DU?$char_traits@D@std@@V?$allocator@D@2@@std@@@2@V?$allocator@U?$pair@$$CBV?$basic_string@DU?$char_traits@D@std@@V?$allocator@D@2@@std@@UStrategy@UAlbertaBot@@@std@@@2@$0A@@std@@@std@@IBEPAU?$_Tree_node@U?$pair@$$CBV?$basic_string@DU?$char_traits@D@std@@V?$allocator@D@2@@std@@UStrategy@UAlbertaBot@@@std@@PAX@2@ABV?$basic_string@DU?$char_traits@D@std@@V?$allocator@D@2@@2@@Z 1003b630 f i StrategyManager.obj
 0001:0003a630       ?_Lbound@?$_Tree@V?$_Tmap_traits@V?$basic_string@DU?$char_traits@D@std@@V?$allocator@D@2@@std@@UOpeningInfoType@OpponentModel@UAlbertaBot@@U?$less@V?$basic_string@DU?$char_traits@D@std@@V?$allocator@D@2@@std@@@2@V?$allocator@U?$pair@$$CBV?$basic_string@DU?$char_traits@D@std@@V?$allocator@D@2@@std@@UOpeningInfoType@OpponentModel@UAlbertaBot@@@std@@@2@$0A@@std@@@std@@IBEPAU?$_Tree_node@U?$pair@$$CBV?$basic_string@DU?$char_traits@D@std@@V?$allocator@D@2@@std@@UOpeningInfoType@OpponentModel@UAlbertaBot@@@std@@PAX@2@ABV?$basic_string@DU?$char_traits@D@std@@V?$allocator@D@2@@2@@Z 1003b630 f i GameCommander.obj
 0001:0003a720       ?_Destroy@?$vector@V?$basic_string@DU?$char_traits@D@std@@V?$allocator@D@2@@std@@V?$allocator@V?$basic_string@DU?$char_traits@D@std@@V?$allocator@D@2@@std@@@2@@std@@IAEXPAV?$basic_string@DU?$char_traits@D@std@@V?$allocator@D@2@@2@0@Z 1003b720 f i GameCommander.obj
 0001:0003a720       ?_Destroy@?$vector@$$CBV?$basic_string@DU?$char_traits@D@std@@V?$allocator@D@2@@std@@V?$allocator@$$CBV?$basic_string@DU?$char_traits@D@std@@V?$allocator@D@2@@std@@@2@@std@@IAEXPAV?$basic_string@DU?$char_traits@D@std@@V?$allocator@D@2@@2@0@Z 1003b720 f i ParseUtils.obj
 0001:0003a770       ??$?9DU?$char_traits@D@std@@V?$allocator@D@1@@std@@YA_NABV?$basic_string@DU?$char_traits@D@std@@V?$allocator@D@2@@0@PBD@Z 1003b770 f i GameCommander.obj
 0001:0003a7b0       ??$?HDU?$char_traits@D@std@@V?$allocator@D@1@@std@@YA?AV?$basic_string@DU?$char_traits@D@std@@V?$allocator@D@2@@0@PBDABV10@@Z 1003b7b0 f i GameCommander.obj
 0001:0003aa20       ??1PlayerSnapshot@UAlbertaBot@@QAE@XZ 1003ba20 f i GameRecord.obj
 0001:0003aa20       ??1Micro@UAlbertaBot@@QAE@XZ 1003ba20 f i The.obj
 0001:0003aa50       ??1?$map@PAVUnitInterface@BWAPI@@HU?$less@PAVUnitInterface@BWAPI@@@std@@V?$allocator@U?$pair@QAVUnitInterface@BWAPI@@H@std@@@4@@std@@QAE@XZ 1003ba50 f i WorkerData.obj
 0001:0003aa50       ??1?$map@PAVUnitInterface@BWAPI@@_NU?$less@PAVUnitInterface@BWAPI@@@std@@V?$allocator@U?$pair@QAVUnitInterface@BWAPI@@_N@std@@@4@@std@@QAE@XZ 1003ba50 f i Squad.obj
 0001:0003aa50       ??1?$map@PAVUnitInterface@BWAPI@@PAV12@U?$less@PAVUnitInterface@BWAPI@@@std@@V?$allocator@U?$pair@QAVUnitInterface@BWAPI@@PAV12@@std@@@4@@std@@QAE@XZ 1003ba50 f i WorkerData.obj
 0001:0003aa50       ??1?$set@PAVBase@UAlbertaBot@@U?$less@PAVBase@UAlbertaBot@@@std@@V?$allocator@PAVBase@UAlbertaBot@@@4@@std@@QAE@XZ 1003ba50 f i MicroOverlords.obj
 0001:0003aa50       ??1?$map@PAVUnitInterface@BWAPI@@UUnitInfo@UAlbertaBot@@U?$less@PAVUnitInterface@BWAPI@@@std@@V?$allocator@U?$pair@QAVUnitInterface@BWAPI@@UUnitInfo@UAlbertaBot@@@std@@@6@@std@@QAE@XZ 1003ba50 f i InformationManager.obj
 0001:0003aa50       ??1?$set@VUnitType@BWAPI@@U?$less@VUnitType@BWAPI@@@std@@V?$allocator@VUnitType@BWAPI@@@4@@std@@QAE@XZ 1003ba50 f i MacroAct.obj
 0001:0003aa50       ??1?$map@PAVBase@UAlbertaBot@@PAVUnitInterface@BWAPI@@U?$less@PAVBase@UAlbertaBot@@@std@@V?$allocator@U?$pair@QAVBase@UAlbertaBot@@PAVUnitInterface@BWAPI@@@std@@@6@@std@@QAE@XZ 1003ba50 f i MicroOverlords.obj
 0001:0003aa50       ??1?$set@PAVUnitInterface@BWAPI@@U?$less@PAVUnitInterface@BWAPI@@@std@@V?$allocator@PAVUnitInterface@BWAPI@@@4@@std@@QAE@XZ 1003ba50 f i WorkerManager.obj
 0001:0003aa50       ??1?$map@PAVUnitInterface@BWAPI@@VUnitType@2@U?$less@PAVUnitInterface@BWAPI@@@std@@V?$allocator@U?$pair@QAVUnitInterface@BWAPI@@VUnitType@2@@std@@@5@@std@@QAE@XZ 1003ba50 f i WorkerData.obj
 0001:0003aa50       ??1?$set@W4OpeningPlan@UAlbertaBot@@U?$less@W4OpeningPlan@UAlbertaBot@@@std@@V?$allocator@W4OpeningPlan@UAlbertaBot@@@4@@std@@QAE@XZ 1003ba50 f i OpponentModel.obj
 0001:0003aa50       ??1?$map@VUnitType@BWAPI@@HU?$less@VUnitType@BWAPI@@@std@@V?$allocator@U?$pair@$$CBVUnitType@BWAPI@@H@std@@@4@@std@@QAE@XZ 1003ba50 f i GameRecord.obj
 0001:0003aa50       ??1?$map@PAVUnitInterface@BWAPI@@W4WorkerJob@WorkerData@UAlbertaBot@@U?$less@PAVUnitInterface@BWAPI@@@std@@V?$allocator@U?$pair@QAVUnitInterface@BWAPI@@W4WorkerJob@WorkerData@UAlbertaBot@@@std@@@7@@std@@QAE@XZ 1003ba50 f i WorkerData.obj
 0001:0003aa80       ?takeSnapshot@GameRecord@UAlbertaBot@@AAEXXZ 1003ba80 f   GameRecord.obj
 0001:0003abd0       ?charRace@GameRecord@UAlbertaBot@@AAE?AVRace@BWAPI@@D@Z 1003bbd0 f   GameRecord.obj
 0001:0003ac00       ?readNumber@GameRecord@UAlbertaBot@@AAEHAAV?$basic_istream@DU?$char_traits@D@std@@@std@@@Z 1003bc00 f   GameRecord.obj
 0001:0003acd0       ??1game_record_read_error@@UAE@XZ 1003bcd0 f i GameRecord.obj
 0001:0003ace0       ??0game_record_read_error@@QAE@ABV0@@Z 1003bce0 f i GameRecord.obj
 0001:0003ad00       ??_Egame_record_read_error@@UAEPAXI@Z 1003bd00 f i * CIL library *:* CIL module *
 0001:0003ad00       ??_Ggame_record_read_error@@UAEPAXI@Z 1003bd00 f i GameRecord.obj
 0001:0003ad30       ?readNumber@GameRecord@UAlbertaBot@@AAEHAAV?$basic_string@DU?$char_traits@D@std@@V?$allocator@D@2@@std@@@Z 1003bd30 f   GameRecord.obj
 0001:0003ae50       ??_D?$basic_istringstream@DU?$char_traits@D@std@@V?$allocator@D@2@@std@@QAEXXZ 1003be50 f i GameRecord.obj
 0001:0003aeb0       ?parseMatchup@GameRecord@UAlbertaBot@@AAEXABV?$basic_string@DU?$char_traits@D@std@@V?$allocator@D@2@@std@@@Z 1003beb0 f   GameRecord.obj
 0001:0003b030       ?readOpeningPlan@GameRecord@UAlbertaBot@@AAE?AW4OpeningPlan@2@AAV?$basic_istream@DU?$char_traits@D@std@@@std@@@Z 1003c030 f   GameRecord.obj
 0001:0003b100       ?readPlayerSnapshot@GameRecord@UAlbertaBot@@AAE_NAAV?$basic_istream@DU?$char_traits@D@std@@@std@@AAVPlayerSnapshot@2@@Z 1003c100 f   GameRecord.obj
 0001:0003b2f0       ?readGameSnapshot@GameRecord@UAlbertaBot@@AAEPAUGameSnapshot@2@AAV?$basic_istream@DU?$char_traits@D@std@@@std@@@Z 1003c2f0 f   GameRecord.obj
 0001:0003b4f0       ?skipToEnd@GameRecord@UAlbertaBot@@AAEXAAV?$basic_istream@DU?$char_traits@D@std@@@std@@@Z 1003c4f0 f   GameRecord.obj
 0001:0003b670       ?read@GameRecord@UAlbertaBot@@AAEXAAV?$basic_istream@DU?$char_traits@D@std@@@std@@@Z 1003c670 f   GameRecord.obj
 0001:0003b970       ?enemyScoutedUs@GameRecord@UAlbertaBot@@ABE_NXZ 1003c970 f   GameRecord.obj
 0001:0003bb30       ??0GameRecord@UAlbertaBot@@QAE@XZ 1003cb30 f   GameRecord.obj
 0001:0003bcf0       ??0GameRecord@UAlbertaBot@@QAE@AAV?$basic_istream@DU?$char_traits@D@std@@@std@@@Z 1003ccf0 f   GameRecord.obj
 0001:0003be70       ?write@GameRecord@UAlbertaBot@@QAEXAAV?$basic_ostream@DU?$char_traits@D@std@@@std@@@Z 1003ce70 f   GameRecord.obj
 0001:0003c180       ?update@GameRecord@UAlbertaBot@@QAEXXZ 1003d180 f   GameRecord.obj
 0001:0003c550       ??1GameRecord@UAlbertaBot@@QAE@XZ 1003d550 f i GameRecord.obj
 0001:0003c610       ??A?$map@VUnitType@BWAPI@@HU?$less@VUnitType@BWAPI@@@std@@V?$allocator@U?$pair@$$CBVUnitType@BWAPI@@H@std@@@4@@std@@QAEAAHABVUnitType@BWAPI@@@Z 1003d610 f i PlayerSnapshot.obj
 0001:0003c610       ??A?$map@VUnitType@BWAPI@@HU?$less@VUnitType@BWAPI@@@std@@V?$allocator@U?$pair@$$CBVUnitType@BWAPI@@H@std@@@4@@std@@QAEAAH$$QAVUnitType@BWAPI@@@Z 1003d610 f i GameRecord.obj
 0001:0003c690       ??0?$basic_istringstream@DU?$char_traits@D@std@@V?$allocator@D@2@@std@@QAE@ABV?$basic_string@DU?$char_traits@D@std@@V?$allocator@D@2@@1@H@Z 1003d690 f i GameRecord.obj
 0001:0003c730       ??1?$_Tree_comp@$0A@V?$_Tmap_traits@VUnitType@BWAPI@@HU?$less@VUnitType@BWAPI@@@std@@V?$allocator@U?$pair@$$CBVUnitType@BWAPI@@H@std@@@4@$0A@@std@@@std@@QAE@XZ 1003d730 f i GameRecord.obj
 0001:0003c730       ??1?$_Tree_comp@$0A@V?$_Tmap_traits@PAVUnitInterface@BWAPI@@_NU?$less@PAVUnitInterface@BWAPI@@@std@@V?$allocator@U?$pair@QAVUnitInterface@BWAPI@@_N@std@@@4@$0A@@std@@@std@@QAE@XZ 1003d730 f i Squad.obj
 0001:0003c730       ??1?$_List_buy@W4MacroCommandType@UAlbertaBot@@V?$allocator@W4MacroCommandType@UAlbertaBot@@@std@@@std@@QAE@XZ 1003d730 f i MacroAct.obj
 0001:0003c730       ??1?$_Tree_comp@$0A@V?$_Tmap_traits@PAVBase@UAlbertaBot@@PAVUnitInterface@BWAPI@@U?$less@PAVBase@UAlbertaBot@@@std@@V?$allocator@U?$pair@QAVBase@UAlbertaBot@@PAVUnitInterface@BWAPI@@@std@@@6@$0A@@std@@@std@@QAE@XZ 1003d730 f i MicroOverlords.obj
 0001:0003c740       ??_G?$basic_istringstream@DU?$char_traits@D@std@@V?$allocator@D@2@@std@@UAEPAXI@Z 1003d740 f i GameRecord.obj
 0001:0003c740       ??_E?$basic_istringstream@DU?$char_traits@D@std@@V?$allocator@D@2@@std@@UAEPAXI@Z 1003d740 f i * CIL library *:* CIL module *
 0001:0003c7b0       ?append@?$basic_string@DU?$char_traits@D@std@@V?$allocator@D@2@@std@@QAEAAV12@ID@Z 1003d7b0 f i GameRecord.obj
 0001:0003c860       ??0?$_Tree@V?$_Tmap_traits@VUnitType@BWAPI@@HU?$less@VUnitType@BWAPI@@@std@@V?$allocator@U?$pair@$$CBVUnitType@BWAPI@@H@std@@@4@$0A@@std@@@std@@QAE@ABV01@ABV?$allocator@U?$pair@$$CBVUnitType@BWAPI@@H@std@@@1@@Z 1003d860 f i GameRecord.obj
 0001:0003c860       ??0?$_Tree@V?$_Tmap_traits@PAVBase@UAlbertaBot@@PAVUnitInterface@BWAPI@@U?$less@PAVBase@UAlbertaBot@@@std@@V?$allocator@U?$pair@QAVBase@UAlbertaBot@@PAVUnitInterface@BWAPI@@@std@@@6@$0A@@std@@@std@@QAE@ABV01@ABV?$allocator@U?$pair@QAVBase@UAlbertaBot@@PAVUnitInterface@BWAPI@@@std@@@1@@Z 1003d860 f i SquadData.obj
 0001:0003c860       ??0?$_Tree@V?$_Tmap_traits@PAVUnitInterface@BWAPI@@_NU?$less@PAVUnitInterface@BWAPI@@@std@@V?$allocator@U?$pair@QAVUnitInterface@BWAPI@@_N@std@@@4@$0A@@std@@@std@@QAE@ABV01@ABV?$allocator@U?$pair@QAVUnitInterface@BWAPI@@_N@std@@@1@@Z 1003d860 f i SquadData.obj
 0001:0003c900       ?_Chassign@?$basic_string@DU?$char_traits@D@std@@V?$allocator@D@2@@std@@QAEXIID@Z 1003d900 f i GameRecord.obj
 0001:0003c950       ??$?6DU?$char_traits@D@std@@V?$allocator@D@1@@std@@YAAAV?$basic_ostream@DU?$char_traits@D@std@@@0@AAV10@ABV?$basic_string@DU?$char_traits@D@std@@V?$allocator@D@2@@0@@Z 1003d950 f i GameRecord.obj
 0001:0003cb40       ??$getline@DU?$char_traits@D@std@@V?$allocator@D@2@@std@@YAAAV?$basic_istream@DU?$char_traits@D@std@@@0@AAV10@AAV?$basic_string@DU?$char_traits@D@std@@V?$allocator@D@2@@0@@Z 1003db40 f i GameRecord.obj
 0001:0003cb70       ??$_Copy@U?$integral_constant@_N$0A@@std@@@?$_Tree@V?$_Tmap_traits@VUnitType@BWAPI@@HU?$less@VUnitType@BWAPI@@@std@@V?$allocator@U?$pair@$$CBVUnitType@BWAPI@@H@std@@@4@$0A@@std@@@std@@IAEXABV01@U?$integral_constant@_N$0A@@1@@Z 1003db70 f i GameRecord.obj
 0001:0003cb70       ??$_Copy@U?$integral_constant@_N$0A@@std@@@?$_Tree@V?$_Tmap_traits@PAVUnitInterface@BWAPI@@_NU?$less@PAVUnitInterface@BWAPI@@@std@@V?$allocator@U?$pair@QAVUnitInterface@BWAPI@@_N@std@@@4@$0A@@std@@@std@@IAEXABV01@U?$integral_constant@_N$0A@@1@@Z 1003db70 f i SquadData.obj
 0001:0003cb70       ??$_Copy@U?$integral_constant@_N$0A@@std@@@?$_Tree@V?$_Tmap_traits@PAVBase@UAlbertaBot@@PAVUnitInterface@BWAPI@@U?$less@PAVBase@UAlbertaBot@@@std@@V?$allocator@U?$pair@QAVBase@UAlbertaBot@@PAVUnitInterface@BWAPI@@@std@@@6@$0A@@std@@@std@@IAEXABV01@U?$integral_constant@_N$0A@@1@@Z 1003db70 f i SquadData.obj
 0001:0003cbf0       ??$getline@DU?$char_traits@D@std@@V?$allocator@D@2@@std@@YAAAV?$basic_istream@DU?$char_traits@D@std@@@0@$$QAV10@AAV?$basic_string@DU?$char_traits@D@std@@V?$allocator@D@2@@0@D@Z 1003dbf0 f i GameRecord.obj
 0001:0003cd60       ??$_Insert_hint@AAU?$pair@$$CBVUnitType@BWAPI@@H@std@@PAU?$_Tree_node@U?$pair@$$CBVUnitType@BWAPI@@H@std@@PAX@2@@?$_Tree@V?$_Tmap_traits@VUnitType@BWAPI@@HU?$less@VUnitType@BWAPI@@@std@@V?$allocator@U?$pair@$$CBVUnitType@BWAPI@@H@std@@@4@$0A@@std@@@std@@IAE?AV?$_Tree_iterator@V?$_Tree_val@U?$_Tree_simple_types@U?$pair@$$CBVUnitType@BWAPI@@H@std@@@std@@@std@@@1@V?$_Tree_const_iterator@V?$_Tree_val@U?$_Tree_simple_types@U?$pair@$$CBVUnitType@BWAPI@@H@std@@@std@@@std@@@1@AAU?$pair@$$CBVUnitType@BWAPI@@H@1@PAU?$_Tree_node@U?$pair@$$CBVUnitType@BWAPI@@H@std@@PAX@1@@Z 1003dd60 f i GameRecord.obj
 0001:0003cf80       ??$_Copy_nodes@U?$integral_constant@_N$0A@@std@@@?$_Tree@V?$_Tmap_traits@VUnitType@BWAPI@@HU?$less@VUnitType@BWAPI@@@std@@V?$allocator@U?$pair@$$CBVUnitType@BWAPI@@H@std@@@4@$0A@@std@@@std@@IAEPAU?$_Tree_node@U?$pair@$$CBVUnitType@BWAPI@@H@std@@PAX@1@PAU21@0U?$integral_constant@_N$0A@@1@@Z 1003df80 f i GameRecord.obj
 0001:0003cf80       ??$_Copy_nodes@U?$integral_constant@_N$0A@@std@@@?$_Tree@V?$_Tmap_traits@PAVUnitInterface@BWAPI@@_NU?$less@PAVUnitInterface@BWAPI@@@std@@V?$allocator@U?$pair@QAVUnitInterface@BWAPI@@_N@std@@@4@$0A@@std@@@std@@IAEPAU?$_Tree_node@U?$pair@QAVUnitInterface@BWAPI@@_N@std@@PAX@1@PAU21@0U?$integral_constant@_N$0A@@1@@Z 1003df80 f i SquadData.obj
 0001:0003cf80       ??$_Copy_nodes@U?$integral_constant@_N$0A@@std@@@?$_Tree@V?$_Tmap_traits@PAVBase@UAlbertaBot@@PAVUnitInterface@BWAPI@@U?$less@PAVBase@UAlbertaBot@@@std@@V?$allocator@U?$pair@QAVBase@UAlbertaBot@@PAVUnitInterface@BWAPI@@@std@@@6@$0A@@std@@@std@@IAEPAU?$_Tree_node@U?$pair@QAVBase@UAlbertaBot@@PAVUnitInterface@BWAPI@@@std@@PAX@1@PAU21@0U?$integral_constant@_N$0A@@1@@Z 1003df80 f i SquadData.obj
 0001:0003d040       ??$_Insert_nohint@AAU?$pair@$$CBVUnitType@BWAPI@@H@std@@PAU?$_Tree_node@U?$pair@$$CBVUnitType@BWAPI@@H@std@@PAX@2@@?$_Tree@V?$_Tmap_traits@VUnitType@BWAPI@@HU?$less@VUnitType@BWAPI@@@std@@V?$allocator@U?$pair@$$CBVUnitType@BWAPI@@H@std@@@4@$0A@@std@@@std@@IAE?AU?$pair@V?$_Tree_iterator@V?$_Tree_val@U?$_Tree_simple_types@U?$pair@$$CBVUnitType@BWAPI@@H@std@@@std@@@std@@@std@@_N@1@_NAAU?$pair@$$CBVUnitType@BWAPI@@H@1@PAU?$_Tree_node@U?$pair@$$CBVUnitType@BWAPI@@H@std@@PAX@1@@Z 1003e040 f i GameRecord.obj
 0001:0003d150       ??$_Buynode@AAU?$pair@QAVUnitInterface@BWAPI@@_N@std@@@?$_Tree_buy@U?$pair@QAVUnitInterface@BWAPI@@_N@std@@V?$allocator@U?$pair@QAVUnitInterface@BWAPI@@_N@std@@@2@@std@@QAEPAU?$_Tree_node@U?$pair@QAVUnitInterface@BWAPI@@_N@std@@PAX@1@AAU?$pair@QAVUnitInterface@BWAPI@@_N@1@@Z 1003e150 f i SquadData.obj
 0001:0003d150       ??$_Buynode@AAU?$pair@QAVBase@UAlbertaBot@@PAVUnitInterface@BWAPI@@@std@@@?$_Tree_buy@U?$pair@QAVBase@UAlbertaBot@@PAVUnitInterface@BWAPI@@@std@@V?$allocator@U?$pair@QAVBase@UAlbertaBot@@PAVUnitInterface@BWAPI@@@std@@@2@@std@@QAEPAU?$_Tree_node@U?$pair@QAVBase@UAlbertaBot@@PAVUnitInterface@BWAPI@@@std@@PAX@1@AAU?$pair@QAVBase@UAlbertaBot@@PAVUnitInterface@BWAPI@@@1@@Z 1003e150 f i SquadData.obj
 0001:0003d150       ??$_Buynode@AAU?$pair@$$CBVUnitType@BWAPI@@H@std@@@?$_Tree_buy@U?$pair@$$CBVUnitType@BWAPI@@H@std@@V?$allocator@U?$pair@$$CBVUnitType@BWAPI@@H@std@@@2@@std@@QAEPAU?$_Tree_node@U?$pair@$$CBVUnitType@BWAPI@@H@std@@PAX@1@AAU?$pair@$$CBVUnitType@BWAPI@@H@1@@Z 1003e150 f i GameRecord.obj
 0001:0003d17c       ??_E?$basic_istringstream@DU?$char_traits@D@std@@V?$allocator@D@2@@std@@$4PPPPPPPM@A@AEPAXI@Z 1003e17c f i GameRecord.obj
 0001:0003d190       ??0Grid@UAlbertaBot@@IAE@HHH@Z 1003e190 f   Grid.obj
 0001:0003d250       ?get@Grid@UAlbertaBot@@IBEHHH@Z 1003e250 f   Grid.obj
 0001:0003d2f0       ?at@Grid@UAlbertaBot@@UBEHHH@Z 1003e2f0 f   Grid.obj
 0001:0003d2f0       ?at@GridWalk@UAlbertaBot@@UBEHHH@Z 1003e2f0 f   GridWalk.obj
 0001:0003d300       ?at@Grid@UAlbertaBot@@UBEHABV?$Point@H$0CA@@BWAPI@@@Z 1003e300 f   Grid.obj
 0001:0003d300       ?at@GridWalk@UAlbertaBot@@UBEHABV?$Point@H$07@BWAPI@@@Z 1003e300 f   GridWalk.obj
 0001:0003d320       ?at@Grid@UAlbertaBot@@UBEHABV?$Point@H$07@BWAPI@@@Z 1003e320 f   Grid.obj
 0001:0003d360       ?at@Grid@UAlbertaBot@@UBEHABV?$Point@H$00@BWAPI@@@Z 1003e360 f   Grid.obj
 0001:0003d3a0       ?_Construct_n@?$vector@V?$vector@FV?$allocator@F@std@@@std@@V?$allocator@V?$vector@FV?$allocator@F@std@@@std@@@2@@std@@QAEXIPBV?$vector@FV?$allocator@F@std@@@2@@Z 1003e3a0 f i Grid.obj
 0001:0003d3a0       ?_Construct_n@?$vector@V?$vector@GV?$allocator@G@std@@@std@@V?$allocator@V?$vector@GV?$allocator@G@std@@@std@@@2@@std@@QAEXIPBV?$vector@GV?$allocator@G@std@@@2@@Z 1003e3a0 f i MapPartitions.obj
 0001:0003d430       ?_Construct_n@?$vector@GV?$allocator@G@std@@@std@@QAEXIPBG@Z 1003e430 f i MapPartitions.obj
 0001:0003d430       ?_Construct_n@?$vector@FV?$allocator@F@std@@@std@@QAEXIPBF@Z 1003e430 f i Grid.obj
 0001:0003d480       ?_Buy@?$vector@V?$vector@FV?$allocator@F@std@@@std@@V?$allocator@V?$vector@FV?$allocator@F@std@@@std@@@2@@std@@IAE_NI@Z 1003e480 f i Grid.obj
 0001:0003d480       ?_Buy@?$vector@V?$vector@GV?$allocator@G@std@@@std@@V?$allocator@V?$vector@GV?$allocator@G@std@@@std@@@2@@std@@IAE_NI@Z 1003e480 f i MapPartitions.obj
 0001:0003d4f0       ??$_Uninit_fill_n@PAV?$vector@GV?$allocator@G@std@@@std@@IV12@V?$allocator@V?$vector@GV?$allocator@G@std@@@std@@@2@V12@@std@@YAXPAV?$vector@GV?$allocator@G@std@@@0@IPBV10@AAU?$_Wrap_alloc@V?$allocator@V?$vector@GV?$allocator@G@std@@@std@@@std@@@0@0U_Nonscalar_ptr_iterator_tag@0@@Z 1003e4f0 f i MapPartitions.obj
 0001:0003d4f0       ??$_Uninit_fill_n@PAV?$vector@FV?$allocator@F@std@@@std@@IV12@V?$allocator@V?$vector@FV?$allocator@F@std@@@std@@@2@V12@@std@@YAXPAV?$vector@FV?$allocator@F@std@@@0@IPBV10@AAU?$_Wrap_alloc@V?$allocator@V?$vector@FV?$allocator@F@std@@@std@@@std@@@0@0U_Nonscalar_ptr_iterator_tag@0@@Z 1003e4f0 f i Grid.obj
 0001:0003d590       ??0GridDistances@UAlbertaBot@@QAE@ABV?$Point@H$0CA@@BWAPI@@_N@Z 1003e590 f   GridDistances.obj
 0001:0003d630       ?getStaticUnitDistance@GridDistances@UAlbertaBot@@QBEHQAVUnitInterface@BWAPI@@@Z 1003e630 f   GridDistances.obj
 0001:0003d6b0       ?compute@GridDistances@UAlbertaBot@@AAEXABV?$Point@H$0CA@@BWAPI@@H_N@Z 1003e6b0 f   GridDistances.obj
 0001:0003d960       ?push_back@?$vector@V?$Point@H$0CA@@BWAPI@@V?$allocator@V?$Point@H$0CA@@BWAPI@@@std@@@std@@QAEXABV?$Point@H$0CA@@BWAPI@@@Z 1003e960 f i GridDistances.obj
 0001:0003d960       ?push_back@?$vector@V?$Point@H$07@BWAPI@@V?$allocator@V?$Point@H$07@BWAPI@@@std@@@std@@QAEXABV?$Point@H$07@BWAPI@@@Z 1003e960 f i GridInset.obj
 0001:0003d960       ?push_back@?$vector@V?$Point@H$00@BWAPI@@V?$allocator@V?$Point@H$00@BWAPI@@@std@@@std@@QAEXABV?$Point@H$00@BWAPI@@@Z 1003e960 f i OpsBoss.obj
 0001:0003d9d0       ?_Reallocate@?$vector@U_Grp_t@?$_Tgt_state_t@V?$_String_const_iterator@V?$_String_val@U?$_Simple_types@D@std@@@std@@@std@@@std@@V?$allocator@U_Grp_t@?$_Tgt_state_t@V?$_String_const_iterator@V?$_String_val@U?$_Simple_types@D@std@@@std@@@std@@@std@@@3@@std@@IAEXI@Z 1003e9d0 f i MacroAct.obj
 0001:0003d9d0       ?_Reallocate@?$vector@V?$Point@H$0CA@@BWAPI@@V?$allocator@V?$Point@H$0CA@@BWAPI@@@std@@@std@@IAEXI@Z 1003e9d0 f i GridDistances.obj
 0001:0003d9d0       ?_Reallocate@?$vector@U_Loop_vals_t@std@@V?$allocator@U_Loop_vals_t@std@@@2@@std@@IAEXI@Z 1003e9d0 f i MacroAct.obj
 0001:0003d9d0       ?_Reallocate@?$vector@V?$Point@H$07@BWAPI@@V?$allocator@V?$Point@H$07@BWAPI@@@std@@@std@@IAEXI@Z 1003e9d0 f i GridInset.obj
 0001:0003d9d0       ?_Reallocate@?$vector@V?$Point@H$00@BWAPI@@V?$allocator@V?$Point@H$00@BWAPI@@@std@@@std@@IAEXI@Z 1003e9d0 f i MicroTransports.obj
 0001:0003da50       ?_Reserve@?$vector@V?$Point@H$0CA@@BWAPI@@V?$allocator@V?$Point@H$0CA@@BWAPI@@@std@@@std@@IAEXI@Z 1003ea50 f i GridDistances.obj
 0001:0003da50       ?_Reserve@?$vector@V?$Point@H$00@BWAPI@@V?$allocator@V?$Point@H$00@BWAPI@@@std@@@std@@IAEXI@Z 1003ea50 f i MicroTransports.obj
 0001:0003da50       ?_Reserve@?$vector@V?$Point@H$07@BWAPI@@V?$allocator@V?$Point@H$07@BWAPI@@@std@@@std@@IAEXI@Z 1003ea50 f i GridInset.obj
 0001:0003dac0       ??$_Uninit_copy@PBU_Grp_t@?$_Tgt_state_t@V?$_String_const_iterator@V?$_String_val@U?$_Simple_types@D@std@@@std@@@std@@@std@@PAU123@V?$allocator@U_Grp_t@?$_Tgt_state_t@V?$_String_const_iterator@V?$_String_val@U?$_Simple_types@D@std@@@std@@@std@@@std@@@3@@std@@YAPAU_Grp_t@?$_Tgt_state_t@V?$_String_const_iterator@V?$_String_val@U?$_Simple_types@D@std@@@std@@@std@@@0@PBU120@0PAU120@AAU?$_Wrap_alloc@V?$allocator@U_Grp_t@?$_Tgt_state_t@V?$_String_const_iterator@V?$_String_val@U?$_Simple_types@D@std@@@std@@@std@@@std@@@std@@@0@U_Nonscalar_ptr_iterator_tag@0@@Z 1003eac0 f i MacroAct.obj
 0001:0003dac0       ??$_Uninit_move@PAV?$Point@H$0CA@@BWAPI@@PAV12@V?$allocator@V?$Point@H$0CA@@BWAPI@@@std@@V12@@std@@YAPAV?$Point@H$0CA@@BWAPI@@PAV12@00AAU?$_Wrap_alloc@V?$allocator@V?$Point@H$0CA@@BWAPI@@@std@@@0@0U_Nonscalar_ptr_iterator_tag@0@@Z 1003eac0 f i GridDistances.obj
 0001:0003dac0       ??$_Uninit_copy@PBV?$Point@H$00@BWAPI@@PAV12@V?$allocator@V?$Point@H$00@BWAPI@@@std@@@std@@YAPAV?$Point@H$00@BWAPI@@PBV12@0PAV12@AAU?$_Wrap_alloc@V?$allocator@V?$Point@H$00@BWAPI@@@std@@@0@U_Nonscalar_ptr_iterator_tag@0@@Z 1003eac0 f i SquadData.obj
 0001:0003dac0       ??$_Uninit_move@PAU_Grp_t@?$_Tgt_state_t@V?$_String_const_iterator@V?$_String_val@U?$_Simple_types@D@std@@@std@@@std@@@std@@PAU123@V?$allocator@U_Grp_t@?$_Tgt_state_t@V?$_String_const_iterator@V?$_String_val@U?$_Simple_types@D@std@@@std@@@std@@@std@@@3@U123@@std@@YAPAU_Grp_t@?$_Tgt_state_t@V?$_String_const_iterator@V?$_String_val@U?$_Simple_types@D@std@@@std@@@std@@@0@PAU120@00AAU?$_Wrap_alloc@V?$allocator@U_Grp_t@?$_Tgt_state_t@V?$_String_const_iterator@V?$_String_val@U?$_Simple_types@D@std@@@std@@@std@@@std@@@std@@@0@0U_Nonscalar_ptr_iterator_tag@0@@Z 1003eac0 f i MacroAct.obj
 0001:0003dac0       ??$_Uninit_move@PAU_Loop_vals_t@std@@PAU12@V?$allocator@U_Loop_vals_t@std@@@2@U12@@std@@YAPAU_Loop_vals_t@0@PAU10@00AAU?$_Wrap_alloc@V?$allocator@U_Loop_vals_t@std@@@std@@@0@0U_Nonscalar_ptr_iterator_tag@0@@Z 1003eac0 f i MacroAct.obj
 0001:0003dac0       ??$_Uninit_move@PAV?$Point@H$07@BWAPI@@PAV12@V?$allocator@V?$Point@H$07@BWAPI@@@std@@V12@@std@@YAPAV?$Point@H$07@BWAPI@@PAV12@00AAU?$_Wrap_alloc@V?$allocator@V?$Point@H$07@BWAPI@@@std@@@0@0U_Nonscalar_ptr_iterator_tag@0@@Z 1003eac0 f i GridInset.obj
 0001:0003dac0       ??$_Uninit_move@PAV?$Point@H$00@BWAPI@@PAV12@V?$allocator@V?$Point@H$00@BWAPI@@@std@@V12@@std@@YAPAV?$Point@H$00@BWAPI@@PAV12@00AAU?$_Wrap_alloc@V?$allocator@V?$Point@H$00@BWAPI@@@std@@@0@0U_Nonscalar_ptr_iterator_tag@0@@Z 1003eac0 f i MicroTransports.obj
 0001:0003dac0       ??$_Uninit_copy@PAU_Grp_t@?$_Tgt_state_t@V?$_String_const_iterator@V?$_String_val@U?$_Simple_types@D@std@@@std@@@std@@@std@@PAU123@V?$allocator@U_Grp_t@?$_Tgt_state_t@V?$_String_const_iterator@V?$_String_val@U?$_Simple_types@D@std@@@std@@@std@@@std@@@3@@std@@YAPAU_Grp_t@?$_Tgt_state_t@V?$_String_const_iterator@V?$_String_val@U?$_Simple_types@D@std@@@std@@@std@@@0@PAU120@00AAU?$_Wrap_alloc@V?$allocator@U_Grp_t@?$_Tgt_state_t@V?$_String_const_iterator@V?$_String_val@U?$_Simple_types@D@std@@@std@@@std@@@std@@@std@@@0@U_Nonscalar_ptr_iterator_tag@0@@Z 1003eac0 f i MacroAct.obj
 0001:0003dac0       ??$_Uninit_copy@PBV?$Point@H$0CA@@BWAPI@@PAV12@V?$allocator@V?$Point@H$0CA@@BWAPI@@@std@@@std@@YAPAV?$Point@H$0CA@@BWAPI@@PBV12@0PAV12@AAU?$_Wrap_alloc@V?$allocator@V?$Point@H$0CA@@BWAPI@@@std@@@0@U_Nonscalar_ptr_iterator_tag@0@@Z 1003eac0 f i MapTools.obj
 0001:0003daf0       ?initialize@GridInset@UAlbertaBot@@QAEXXZ 1003eaf0 f   GridInset.obj
 0001:0003e6e0       ??4?$vector@V?$vector@GV?$allocator@G@std@@@std@@V?$allocator@V?$vector@GV?$allocator@G@std@@@std@@@2@@std@@QAEAAV01@$$QAV01@@Z 1003f6e0 f i MapPartitions.obj
 0001:0003e6e0       ??4?$vector@V?$vector@FV?$allocator@F@std@@@std@@V?$allocator@V?$vector@FV?$allocator@F@std@@@std@@@2@@std@@QAEAAV01@$$QAV01@@Z 1003f6e0 f i GridInset.obj
 0001:0003e750       ?initialize@GridRoom@UAlbertaBot@@QAEXXZ 1003f750 f   GridRoom.obj
 0001:0003e990       ?initialize@GridTileRoom@UAlbertaBot@@QAEXXZ 1003f990 f   GridTileRoom.obj
 0001:0003eb10       ?at@GridWalk@UAlbertaBot@@UBEHABV?$Point@H$0CA@@BWAPI@@@Z 1003fb10 f   GridWalk.obj
 0001:0003eb40       ?at@GridWalk@UAlbertaBot@@UBEHABV?$Point@H$00@BWAPI@@@Z 1003fb40 f   GridWalk.obj
 0001:0003eb80       ?mergeInto@Zone@UAlbertaBot@@AAEXPAV12@@Z 1003fb80 f   GridZone.obj
 0001:0003ede0       ?initialize@GridZone@UAlbertaBot@@QAEXXZ 1003fde0 f   GridZone.obj
 0001:0003fa70       ?ptr@GridZone@UAlbertaBot@@QAEPAVZone@2@ABV?$Point@H$0CA@@BWAPI@@@Z 10040a70 f   GridZone.obj
 0001:0003fad0       ?_Eqrange@?$_Tree@V?$_Tmap_traits@PAVUnitInterface@BWAPI@@HU?$less@PAVUnitInterface@BWAPI@@@std@@V?$allocator@U?$pair@QAVUnitInterface@BWAPI@@H@std@@@4@$0A@@std@@@std@@IAE?AU?$pair@V?$_Tree_iterator@V?$_Tree_val@U?$_Tree_simple_types@U?$pair@QAVUnitInterface@BWAPI@@H@std@@@std@@@std@@@std@@V12@@2@ABQAVUnitInterface@BWAPI@@@Z 10040ad0 f i WorkerData.obj
 0001:0003fad0       ?_Eqrange@?$_Tree@V?$_Tmap_traits@PAVUnitInterface@BWAPI@@VUnitType@2@U?$less@PAVUnitInterface@BWAPI@@@std@@V?$allocator@U?$pair@QAVUnitInterface@BWAPI@@VUnitType@2@@std@@@5@$0A@@std@@@std@@IAE?AU?$pair@V?$_Tree_iterator@V?$_Tree_val@U?$_Tree_simple_types@U?$pair@QAVUnitInterface@BWAPI@@VUnitType@2@@std@@@std@@@std@@@std@@V12@@2@ABQAVUnitInterface@BWAPI@@@Z 10040ad0 f i WorkerData.obj
 0001:0003fad0       ?_Eqrange@?$_Tree@V?$_Tset_traits@PAVBase@UAlbertaBot@@U?$less@PAVBase@UAlbertaBot@@@std@@V?$allocator@PAVBase@UAlbertaBot@@@4@$0A@@std@@@std@@IAE?AU?$pair@V?$_Tree_const_iterator@V?$_Tree_val@U?$_Tree_simple_types@PAVBase@UAlbertaBot@@@std@@@std@@@std@@V12@@2@ABQAVBase@UAlbertaBot@@@Z 10040ad0 f i MicroOverlords.obj
 0001:0003fad0       ?_Eqrange@?$_Tree@V?$_Tmap_traits@PAVUnitInterface@BWAPI@@PAV12@U?$less@PAVUnitInterface@BWAPI@@@std@@V?$allocator@U?$pair@QAVUnitInterface@BWAPI@@PAV12@@std@@@4@$0A@@std@@@std@@IAE?AU?$pair@V?$_Tree_iterator@V?$_Tree_val@U?$_Tree_simple_types@U?$pair@QAVUnitInterface@BWAPI@@PAV12@@std@@@std@@@std@@@std@@V12@@2@ABQAVUnitInterface@BWAPI@@@Z 10040ad0 f i WorkerData.obj
 0001:0003fad0       ?_Eqrange@?$_Tree@V?$_Tmap_traits@PAVUnitInterface@BWAPI@@W4WorkerJob@WorkerData@UAlbertaBot@@U?$less@PAVUnitInterface@BWAPI@@@std@@V?$allocator@U?$pair@QAVUnitInterface@BWAPI@@W4WorkerJob@WorkerData@UAlbertaBot@@@std@@@7@$0A@@std@@@std@@IAE?AU?$pair@V?$_Tree_iterator@V?$_Tree_val@U?$_Tree_simple_types@U?$pair@QAVUnitInterface@BWAPI@@W4WorkerJob@WorkerData@UAlbertaBot@@@std@@@std@@@std@@@std@@V12@@2@ABQAVUnitInterface@BWAPI@@@Z 10040ad0 f i WorkerData.obj
 0001:0003fad0       ?_Eqrange@?$_Tree@V?$_Tset_traits@PAVZone@UAlbertaBot@@U?$less@PAVZone@UAlbertaBot@@@std@@V?$allocator@PAVZone@UAlbertaBot@@@4@$0A@@std@@@std@@IAE?AU?$pair@V?$_Tree_const_iterator@V?$_Tree_val@U?$_Tree_simple_types@PAVZone@UAlbertaBot@@@std@@@std@@@std@@V12@@2@ABQAVZone@UAlbertaBot@@@Z 10040ad0 f i GridZone.obj
 0001:0003fad0       ?_Eqrange@?$_Tree@V?$_Tmap_traits@PAVUnitInterface@BWAPI@@UUnitInfo@UAlbertaBot@@U?$less@PAVUnitInterface@BWAPI@@@std@@V?$allocator@U?$pair@QAVUnitInterface@BWAPI@@UUnitInfo@UAlbertaBot@@@std@@@6@$0A@@std@@@std@@IAE?AU?$pair@V?$_Tree_iterator@V?$_Tree_val@U?$_Tree_simple_types@U?$pair@QAVUnitInterface@BWAPI@@UUnitInfo@UAlbertaBot@@@std@@@std@@@std@@@std@@V12@@2@ABQAVUnitInterface@BWAPI@@@Z 10040ad0 f i UnitData.obj
 0001:0003fb50       ?_Buyheadnode@?$_Tree_alloc@$0A@U?$_Tree_base_types@PAVUnitInterface@BWAPI@@V?$allocator@PAVUnitInterface@BWAPI@@@std@@@std@@@std@@QAEPAU?$_Tree_node@PAVUnitInterface@BWAPI@@PAX@2@XZ 10040b50 f i WorkerManager.obj
 0001:0003fb50       ?_Buyheadnode@?$_Tree_alloc@$0A@U?$_Tree_base_types@W4OpeningPlan@UAlbertaBot@@V?$allocator@W4OpeningPlan@UAlbertaBot@@@std@@@std@@@std@@QAEPAU?$_Tree_node@W4OpeningPlan@UAlbertaBot@@PAX@2@XZ 10040b50 f i OpponentModel.obj
 0001:0003fb50       ?_Buyheadnode@?$_Tree_alloc@$0A@U?$_Tree_base_types@PAVZone@UAlbertaBot@@V?$allocator@PAVZone@UAlbertaBot@@@std@@@std@@@std@@QAEPAU?$_Tree_node@PAVZone@UAlbertaBot@@PAX@2@XZ 10040b50 f i GridZone.obj
 0001:0003fb50       ?_Buyheadnode@?$_Tree_alloc@$0A@U?$_Tree_base_types@PAVBase@UAlbertaBot@@V?$allocator@PAVBase@UAlbertaBot@@@std@@@std@@@std@@QAEPAU?$_Tree_node@PAVBase@UAlbertaBot@@PAX@2@XZ 10040b50 f i MicroOverlords.obj
 0001:0003fb50       ?_Buyheadnode@?$_Tree_alloc@$0A@U?$_Tree_base_types@VUnitType@BWAPI@@V?$allocator@VUnitType@BWAPI@@@std@@@std@@@std@@QAEPAU?$_Tree_node@VUnitType@BWAPI@@PAX@2@XZ 10040b50 f i MacroAct.obj
 0001:0003fb50       ?_Buyheadnode@?$_Tree_alloc@$0A@U?$_Tree_base_types@PBVZone@UAlbertaBot@@V?$allocator@PBVZone@UAlbertaBot@@@std@@@std@@@std@@QAEPAU?$_Tree_node@PBVZone@UAlbertaBot@@PAX@2@XZ 10040b50 f i InformationManager.obj
 0001:0003fb80       ??$_Insert_nohint@ABQAVZone@UAlbertaBot@@U_Nil@std@@@?$_Tree@V?$_Tset_traits@PAVZone@UAlbertaBot@@U?$less@PAVZone@UAlbertaBot@@@std@@V?$allocator@PAVZone@UAlbertaBot@@@4@$0A@@std@@@std@@IAE?AU?$pair@V?$_Tree_const_iterator@V?$_Tree_val@U?$_Tree_simple_types@PAVZone@UAlbertaBot@@@std@@@std@@@std@@_N@1@_NABQAVZone@UAlbertaBot@@U_Nil@1@@Z 10040b80 f i GridZone.obj
 0001:0003fb80       ??$_Insert_nohint@ABQBVZone@UAlbertaBot@@U_Nil@std@@@?$_Tree@V?$_Tset_traits@PBVZone@UAlbertaBot@@U?$less@PBVZone@UAlbertaBot@@@std@@V?$allocator@PBVZone@UAlbertaBot@@@4@$0A@@std@@@std@@IAE?AU?$pair@V?$_Tree_const_iterator@V?$_Tree_val@U?$_Tree_simple_types@PBVZone@UAlbertaBot@@@std@@@std@@@std@@_N@1@_NABQBVZone@UAlbertaBot@@U_Nil@1@@Z 10040b80 f i InformationManager.obj
 0001:0003fb80       ??$_Insert_nohint@ABQAVUnitInterface@BWAPI@@U_Nil@std@@@?$_Tree@V?$_Tset_traits@PAVUnitInterface@BWAPI@@U?$less@PAVUnitInterface@BWAPI@@@std@@V?$allocator@PAVUnitInterface@BWAPI@@@4@$0A@@std@@@std@@IAE?AU?$pair@V?$_Tree_const_iterator@V?$_Tree_val@U?$_Tree_simple_types@PAVUnitInterface@BWAPI@@@std@@@std@@@std@@_N@1@_NABQAVUnitInterface@BWAPI@@U_Nil@1@@Z 10040b80 f i WorkerData.obj
 0001:0003fb80       ??$_Insert_nohint@ABQAVBase@UAlbertaBot@@U_Nil@std@@@?$_Tree@V?$_Tset_traits@PAVBase@UAlbertaBot@@U?$less@PAVBase@UAlbertaBot@@@std@@V?$allocator@PAVBase@UAlbertaBot@@@4@$0A@@std@@@std@@IAE?AU?$pair@V?$_Tree_const_iterator@V?$_Tree_val@U?$_Tree_simple_types@PAVBase@UAlbertaBot@@@std@@@std@@@std@@_N@1@_NABQAVBase@UAlbertaBot@@U_Nil@1@@Z 10040b80 f i MicroOverlords.obj
 0001:0003fc80       ??$_Insert_at@ABQAVZone@UAlbertaBot@@U_Nil@std@@@?$_Tree@V?$_Tset_traits@PAVZone@UAlbertaBot@@U?$less@PAVZone@UAlbertaBot@@@std@@V?$allocator@PAVZone@UAlbertaBot@@@4@$0A@@std@@@std@@IAE?AV?$_Tree_const_iterator@V?$_Tree_val@U?$_Tree_simple_types@PAVZone@UAlbertaBot@@@std@@@std@@@1@_NPAU?$_Tree_node@PAVZone@UAlbertaBot@@PAX@1@ABQAVZone@UAlbertaBot@@U_Nil@1@@Z 10040c80 f i GridZone.obj
 0001:0003fc80       ??$_Insert_at@ABQBVZone@UAlbertaBot@@U_Nil@std@@@?$_Tree@V?$_Tset_traits@PBVZone@UAlbertaBot@@U?$less@PBVZone@UAlbertaBot@@@std@@V?$allocator@PBVZone@UAlbertaBot@@@4@$0A@@std@@@std@@IAE?AV?$_Tree_const_iterator@V?$_Tree_val@U?$_Tree_simple_types@PBVZone@UAlbertaBot@@@std@@@std@@@1@_NPAU?$_Tree_node@PBVZone@UAlbertaBot@@PAX@1@ABQBVZone@UAlbertaBot@@U_Nil@1@@Z 10040c80 f i InformationManager.obj
 0001:0003fc80       ??$_Insert_at@ABW4OpeningPlan@UAlbertaBot@@U_Nil@std@@@?$_Tree@V?$_Tset_traits@W4OpeningPlan@UAlbertaBot@@U?$less@W4OpeningPlan@UAlbertaBot@@@std@@V?$allocator@W4OpeningPlan@UAlbertaBot@@@4@$0A@@std@@@std@@IAE?AV?$_Tree_const_iterator@V?$_Tree_val@U?$_Tree_simple_types@W4OpeningPlan@UAlbertaBot@@@std@@@std@@@1@_NPAU?$_Tree_node@W4OpeningPlan@UAlbertaBot@@PAX@1@ABW4OpeningPlan@UAlbertaBot@@U_Nil@1@@Z 10040c80 f i OpponentModel.obj
 0001:0003fc80       ??$_Insert_at@ABQAVBase@UAlbertaBot@@U_Nil@std@@@?$_Tree@V?$_Tset_traits@PAVBase@UAlbertaBot@@U?$less@PAVBase@UAlbertaBot@@@std@@V?$allocator@PAVBase@UAlbertaBot@@@4@$0A@@std@@@std@@IAE?AV?$_Tree_const_iterator@V?$_Tree_val@U?$_Tree_simple_types@PAVBase@UAlbertaBot@@@std@@@std@@@1@_NPAU?$_Tree_node@PAVBase@UAlbertaBot@@PAX@1@ABQAVBase@UAlbertaBot@@U_Nil@1@@Z 10040c80 f i MicroOverlords.obj
 0001:0003fc80       ??$_Insert_at@VUnitType@BWAPI@@U_Nil@std@@@?$_Tree@V?$_Tset_traits@VUnitType@BWAPI@@U?$less@VUnitType@BWAPI@@@std@@V?$allocator@VUnitType@BWAPI@@@4@$0A@@std@@@std@@IAE?AV?$_Tree_const_iterator@V?$_Tree_val@U?$_Tree_simple_types@VUnitType@BWAPI@@@std@@@std@@@1@_NPAU?$_Tree_node@VUnitType@BWAPI@@PAX@1@$$QAVUnitType@BWAPI@@U_Nil@1@@Z 10040c80 f i MacroAct.obj
 0001:0003fc80       ??$_Insert_at@ABQAVUnitInterface@BWAPI@@U_Nil@std@@@?$_Tree@V?$_Tset_traits@PAVUnitInterface@BWAPI@@U?$less@PAVUnitInterface@BWAPI@@@std@@V?$allocator@PAVUnitInterface@BWAPI@@@4@$0A@@std@@@std@@IAE?AV?$_Tree_const_iterator@V?$_Tree_val@U?$_Tree_simple_types@PAVUnitInterface@BWAPI@@@std@@@std@@@1@_NPAU?$_Tree_node@PAVUnitInterface@BWAPI@@PAX@1@ABQAVUnitInterface@BWAPI@@U_Nil@1@@Z 10040c80 f i WorkerData.obj
 0001:0003fe50       ??$_Buynode@ABQAVUnitInterface@BWAPI@@@?$_Tree_buy@PAVUnitInterface@BWAPI@@V?$allocator@PAVUnitInterface@BWAPI@@@std@@@std@@QAEPAU?$_Tree_node@PAVUnitInterface@BWAPI@@PAX@1@ABQAVUnitInterface@BWAPI@@@Z 10040e50 f i WorkerData.obj
 0001:0003fe50       ??$_Buynode@ABQAVZone@UAlbertaBot@@@?$_Tree_buy@PAVZone@UAlbertaBot@@V?$allocator@PAVZone@UAlbertaBot@@@std@@@std@@QAEPAU?$_Tree_node@PAVZone@UAlbertaBot@@PAX@1@ABQAVZone@UAlbertaBot@@@Z 10040e50 f i GridZone.obj
 0001:0003fe50       ??$_Buynode@ABQBVZone@UAlbertaBot@@@?$_Tree_buy@PBVZone@UAlbertaBot@@V?$allocator@PBVZone@UAlbertaBot@@@std@@@std@@QAEPAU?$_Tree_node@PBVZone@UAlbertaBot@@PAX@1@ABQBVZone@UAlbertaBot@@@Z 10040e50 f i InformationManager.obj
 0001:0003fe50       ??$_Buynode@ABW4OpeningPlan@UAlbertaBot@@@?$_Tree_buy@W4OpeningPlan@UAlbertaBot@@V?$allocator@W4OpeningPlan@UAlbertaBot@@@std@@@std@@QAEPAU?$_Tree_node@W4OpeningPlan@UAlbertaBot@@PAX@1@ABW4OpeningPlan@UAlbertaBot@@@Z 10040e50 f i OpponentModel.obj
 0001:0003fe50       ??$_Buynode@ABQAVBase@UAlbertaBot@@@?$_Tree_buy@PAVBase@UAlbertaBot@@V?$allocator@PAVBase@UAlbertaBot@@@std@@@std@@QAEPAU?$_Tree_node@PAVBase@UAlbertaBot@@PAX@1@ABQAVBase@UAlbertaBot@@@Z 10040e50 f i MicroOverlords.obj
 0001:0003fe50       ??$_Buynode@VUnitType@BWAPI@@@?$_Tree_buy@VUnitType@BWAPI@@V?$allocator@VUnitType@BWAPI@@@std@@@std@@QAEPAU?$_Tree_node@VUnitType@BWAPI@@PAX@1@$$QAVUnitType@BWAPI@@@Z 10040e50 f i MacroAct.obj
 0001:0003fe70       ?_Buynode0@?$_Tree_buy@PAVBase@UAlbertaBot@@V?$allocator@PAVBase@UAlbertaBot@@@std@@@std@@QAEPAU?$_Tree_node@PAVBase@UAlbertaBot@@PAX@2@XZ 10040e70 f i MicroOverlords.obj
 0001:0003fe70       ?_Buynode0@?$_Tree_buy@W4OpeningPlan@UAlbertaBot@@V?$allocator@W4OpeningPlan@UAlbertaBot@@@std@@@std@@QAEPAU?$_Tree_node@W4OpeningPlan@UAlbertaBot@@PAX@2@XZ 10040e70 f i OpponentModel.obj
 0001:0003fe70       ?_Buynode0@?$_Tree_buy@PBVZone@UAlbertaBot@@V?$allocator@PBVZone@UAlbertaBot@@@std@@@std@@QAEPAU?$_Tree_node@PBVZone@UAlbertaBot@@PAX@2@XZ 10040e70 f i InformationManager.obj
 0001:0003fe70       ?_Buynode0@?$_Tree_buy@PAVUnitInterface@BWAPI@@V?$allocator@PAVUnitInterface@BWAPI@@@std@@@std@@QAEPAU?$_Tree_node@PAVUnitInterface@BWAPI@@PAX@2@XZ 10040e70 f i WorkerData.obj
 0001:0003fe70       ?_Buynode0@?$_Tree_buy@PAVZone@UAlbertaBot@@V?$allocator@PAVZone@UAlbertaBot@@@std@@@std@@QAEPAU?$_Tree_node@PAVZone@UAlbertaBot@@PAX@2@XZ 10040e70 f i GridZone.obj
 0001:0003fe70       ?_Buynode0@?$_Tree_buy@VUnitType@BWAPI@@V?$allocator@VUnitType@BWAPI@@@std@@@std@@QAEPAU?$_Tree_node@VUnitType@BWAPI@@PAX@2@XZ 10040e70 f i MacroAct.obj
 0001:0003fec0       ??0InformationManager@UAlbertaBot@@AAE@XZ 10040ec0 f   InformationManager.obj
 0001:00040030       ??1?$map@PAVPlayerInterface@BWAPI@@VUnitData@UAlbertaBot@@U?$less@PAVPlayerInterface@BWAPI@@@std@@V?$allocator@U?$pair@QAVPlayerInterface@BWAPI@@VUnitData@UAlbertaBot@@@std@@@6@@std@@QAE@XZ 10041030 f i InformationManager.obj
 0001:00040060       ??1?$map@PAVPlayerInterface@BWAPI@@V?$set@PBVZone@UAlbertaBot@@U?$less@PBVZone@UAlbertaBot@@@std@@V?$allocator@PBVZone@UAlbertaBot@@@4@@std@@U?$less@PAVPlayerInterface@BWAPI@@@4@V?$allocator@U?$pair@QAVPlayerInterface@BWAPI@@V?$set@PBVZone@UAlbertaBot@@U?$less@PBVZone@UAlbertaBot@@@std@@V?$allocator@PBVZone@UAlbertaBot@@@4@@std@@@std@@@4@@std@@QAE@XZ 10041060 f i InformationManager.obj
 0001:00040090       ??1?$map@PAVUnitInterface@BWAPI@@VUnitset@2@U?$less@PAVUnitInterface@BWAPI@@@std@@V?$allocator@U?$pair@QAVUnitInterface@BWAPI@@VUnitset@2@@std@@@5@@std@@QAE@XZ 10041090 f i InformationManager.obj
 0001:000400c0       ?initializeRegionInformation@InformationManager@UAlbertaBot@@AAEXXZ 100410c0 f   InformationManager.obj
 0001:000401c0       ?updateUnitInfo@InformationManager@UAlbertaBot@@AAEXXZ 100411c0 f   InformationManager.obj
 0001:000404d0       ?updateBaseLocationInfo@InformationManager@UAlbertaBot@@AAEXXZ 100414d0 f   InformationManager.obj
 0001:000407b0       ?updateGoneFromLastPosition@InformationManager@UAlbertaBot@@AAEXXZ 100417b0 f   InformationManager.obj
 0001:00040a30       ?updateTheirTargets@InformationManager@UAlbertaBot@@AAEXXZ 10041a30 f   InformationManager.obj
 0001:00040b30       ?drawExtendedInterface@InformationManager@UAlbertaBot@@QAEXXZ 10041b30 f   InformationManager.obj
 0001:00041380       ?drawUnitInformation@InformationManager@UAlbertaBot@@QAEXHH@Z 10042380 f   InformationManager.obj
 0001:00041610       ?maybeClearNeutral@InformationManager@UAlbertaBot@@AAEXPAVUnitInterface@BWAPI@@@Z 10042610 f   InformationManager.obj
 0001:000416c0       ?maybeAddStaticDefense@InformationManager@UAlbertaBot@@AAEXPAVUnitInterface@BWAPI@@@Z 100426c0 f   InformationManager.obj
 0001:00041750       ?onUnitDestroy@InformationManager@UAlbertaBot@@QAEXPAVUnitInterface@BWAPI@@@Z 10042750 f   InformationManager.obj
 0001:00041890       ?getNearbyForce@InformationManager@UAlbertaBot@@QAEXAAV?$vector@UUnitInfo@UAlbertaBot@@V?$allocator@UUnitInfo@UAlbertaBot@@@std@@@std@@V?$Point@H$00@BWAPI@@PAVPlayerInterface@6@H@Z 10042890 f   InformationManager.obj
 0001:00041b00       ?getNumUnits@InformationManager@UAlbertaBot@@QBEHVUnitType@BWAPI@@PAVPlayerInterface@4@@Z 10042b00 f   InformationManager.obj
 0001:00041b50       ?weHaveCombatUnits@InformationManager@UAlbertaBot@@QAE_NXZ 10042b50 f   InformationManager.obj
 0001:00041c10       ?enemyHasCombatUnits@InformationManager@UAlbertaBot@@QAE_NXZ 10042c10 f   InformationManager.obj
 0001:00041ce0       ?enemyHasStaticAntiAir@InformationManager@UAlbertaBot@@QAE_NXZ 10042ce0 f   InformationManager.obj
 0001:00041d50       ?enemyHasAntiAir@InformationManager@UAlbertaBot@@QAE_NXZ 10042d50 f   InformationManager.obj
 0001:00041e50       ?enemyHasAirTech@InformationManager@UAlbertaBot@@QAE_NXZ 10042e50 f   InformationManager.obj
 0001:00041f30       ?enemyHasCloakTech@InformationManager@UAlbertaBot@@QAE_NXZ 10042f30 f   InformationManager.obj
 0001:00042000       ?enemyCloakedUnitsSeen@InformationManager@UAlbertaBot@@QAE_NXZ 10043000 f   InformationManager.obj
 0001:000420b0       ?enemyHasMobileCloakTech@InformationManager@UAlbertaBot@@QAE_NXZ 100430b0 f   InformationManager.obj
 0001:00042150       ?enemyHasAirCloakTech@InformationManager@UAlbertaBot@@QAE_NXZ 10043150 f   InformationManager.obj
 0001:00042220       ?enemyHasOverlordHunters@InformationManager@UAlbertaBot@@QAE_NXZ 10043220 f   InformationManager.obj
 0001:000422d0       ?enemyHasStaticDetection@InformationManager@UAlbertaBot@@QAE_NXZ 100432d0 f   InformationManager.obj
 0001:00042340       ?enemyHasMobileDetection@InformationManager@UAlbertaBot@@QAE_NXZ 10043340 f   InformationManager.obj
 0001:000423e0       ?enemyHasSiegeMode@InformationManager@UAlbertaBot@@QAE_NXZ 100433e0 f   InformationManager.obj
 0001:00042490       ?nearestGroundStaticDefense@InformationManager@UAlbertaBot@@QBEPAVUnitInterface@BWAPI@@V?$Point@H$00@4@@Z 10043490 f   InformationManager.obj
 0001:00042610       ?nearestAirStaticDefense@InformationManager@UAlbertaBot@@QBEPAVUnitInterface@BWAPI@@V?$Point@H$00@4@@Z 10043610 f   InformationManager.obj
 0001:000427a0       ?nearestShieldBattery@InformationManager@UAlbertaBot@@QBEPAVUnitInterface@BWAPI@@V?$Point@H$00@4@@Z 100437a0 f   InformationManager.obj
 0001:00042840       ?nScourgeNeeded@InformationManager@UAlbertaBot@@QAEHXZ 10043840 f   InformationManager.obj
 0001:00042950       ?getUnitData@InformationManager@UAlbertaBot@@QBEABVUnitData@2@PAVPlayerInterface@BWAPI@@@Z 10043950 f   InformationManager.obj
 0001:000429a0       ?getEnemyFireteam@InformationManager@UAlbertaBot@@QBEABVUnitset@BWAPI@@PAVUnitInterface@4@@Z 100439a0 f   InformationManager.obj
 0001:00042a00       ?Instance@InformationManager@UAlbertaBot@@SAAAV12@XZ 10043a00 f   InformationManager.obj
 0001:00042a60       ??1InformationManager@UAlbertaBot@@QAE@XZ 10043a60 f i InformationManager.obj
 0001:00042af0       ??A?$map@PAVPlayerInterface@BWAPI@@VUnitData@UAlbertaBot@@U?$less@PAVPlayerInterface@BWAPI@@@std@@V?$allocator@U?$pair@QAVPlayerInterface@BWAPI@@VUnitData@UAlbertaBot@@@std@@@6@@std@@QAEAAVUnitData@UAlbertaBot@@$$QAPAVPlayerInterface@BWAPI@@@Z 10043af0 f i InformationManager.obj
 0001:00042af0       ??A?$map@PAVPlayerInterface@BWAPI@@VUnitData@UAlbertaBot@@U?$less@PAVPlayerInterface@BWAPI@@@std@@V?$allocator@U?$pair@QAVPlayerInterface@BWAPI@@VUnitData@UAlbertaBot@@@std@@@6@@std@@QAEAAVUnitData@UAlbertaBot@@ABQAVPlayerInterface@BWAPI@@@Z 10043af0 f i InformationManager.obj
 0001:00042b70       ??A?$map@PAVPlayerInterface@BWAPI@@V?$set@PBVZone@UAlbertaBot@@U?$less@PBVZone@UAlbertaBot@@@std@@V?$allocator@PBVZone@UAlbertaBot@@@4@@std@@U?$less@PAVPlayerInterface@BWAPI@@@4@V?$allocator@U?$pair@QAVPlayerInterface@BWAPI@@V?$set@PBVZone@UAlbertaBot@@U?$less@PBVZone@UAlbertaBot@@@std@@V?$allocator@PBVZone@UAlbertaBot@@@4@@std@@@std@@@4@@std@@QAEAAV?$set@PBVZone@UAlbertaBot@@U?$less@PBVZone@UAlbertaBot@@@std@@V?$allocator@PBVZone@UAlbertaBot@@@4@@1@ABQAVPlayerInterface@BWAPI@@@Z 10043b70 f i InformationManager.obj
 0001:00042bf0       ??A?$map@PAVUnitInterface@BWAPI@@VUnitset@2@U?$less@PAVUnitInterface@BWAPI@@@std@@V?$allocator@U?$pair@QAVUnitInterface@BWAPI@@VUnitset@2@@std@@@5@@std@@QAEAAVUnitset@BWAPI@@ABQAVUnitInterface@3@@Z 10043bf0 f i InformationManager.obj
 0001:00042c70       ?push_back@?$vector@UUnitInfo@UAlbertaBot@@V?$allocator@UUnitInfo@UAlbertaBot@@@std@@@std@@QAEXABUUnitInfo@UAlbertaBot@@@Z 10043c70 f i InformationManager.obj
 0001:00042d20       ?_Erase@?$_Tree@V?$_Tmap_traits@PAVUnitInterface@BWAPI@@VUnitset@2@U?$less@PAVUnitInterface@BWAPI@@@std@@V?$allocator@U?$pair@QAVUnitInterface@BWAPI@@VUnitset@2@@std@@@5@$0A@@std@@@std@@IAEXPAU?$_Tree_node@U?$pair@QAVUnitInterface@BWAPI@@VUnitset@2@@std@@PAX@2@@Z 10043d20 f i InformationManager.obj
 0001:00042dd0       ?_Reserve@?$vector@UUnitInfo@UAlbertaBot@@V?$allocator@UUnitInfo@UAlbertaBot@@@std@@@std@@IAEXI@Z 10043dd0 f i InformationManager.obj
 0001:00042e70       ?erase@?$_Tree@V?$_Tmap_traits@PAVPlayerInterface@BWAPI@@VUnitData@UAlbertaBot@@U?$less@PAVPlayerInterface@BWAPI@@@std@@V?$allocator@U?$pair@QAVPlayerInterface@BWAPI@@VUnitData@UAlbertaBot@@@std@@@6@$0A@@std@@@std@@QAE?AV?$_Tree_iterator@V?$_Tree_val@U?$_Tree_simple_types@U?$pair@QAVPlayerInterface@BWAPI@@VUnitData@UAlbertaBot@@@std@@@std@@@std@@@2@V?$_Tree_const_iterator@V?$_Tree_val@U?$_Tree_simple_types@U?$pair@QAVPlayerInterface@BWAPI@@VUnitData@UAlbertaBot@@@std@@@std@@@std@@@2@0@Z 10043e70 f i InformationManager.obj
 0001:00042f30       ?erase@?$_Tree@V?$_Tmap_traits@PAVPlayerInterface@BWAPI@@V?$set@PBVZone@UAlbertaBot@@U?$less@PBVZone@UAlbertaBot@@@std@@V?$allocator@PBVZone@UAlbertaBot@@@4@@std@@U?$less@PAVPlayerInterface@BWAPI@@@4@V?$allocator@U?$pair@QAVPlayerInterface@BWAPI@@V?$set@PBVZone@UAlbertaBot@@U?$less@PBVZone@UAlbertaBot@@@std@@V?$allocator@PBVZone@UAlbertaBot@@@4@@std@@@std@@@4@$0A@@std@@@std@@QAE?AV?$_Tree_iterator@V?$_Tree_val@U?$_Tree_simple_types@U?$pair@QAVPlayerInterface@BWAPI@@V?$set@PBVZone@UAlbertaBot@@U?$less@PBVZone@UAlbertaBot@@@std@@V?$allocator@PBVZone@UAlbertaBot@@@4@@std@@@std@@@std@@@std@@@2@V?$_Tree_const_iterator@V?$_Tree_val@U?$_Tree_simple_types@U?$pair@QAVPlayerInterface@BWAPI@@V?$set@PBVZone@UAlbertaBot@@U?$less@PBVZone@UAlbertaBot@@@std@@V?$allocator@PBVZone@UAlbertaBot@@@4@@std@@@std@@@std@@@std@@@2@0@Z 10043f30 f i InformationManager.obj
 0001:00042ff0       ?erase@?$_Tree@V?$_Tmap_traits@PAVUnitInterface@BWAPI@@VUnitset@2@U?$less@PAVUnitInterface@BWAPI@@@std@@V?$allocator@U?$pair@QAVUnitInterface@BWAPI@@VUnitset@2@@std@@@5@$0A@@std@@@std@@QAE?AV?$_Tree_iterator@V?$_Tree_val@U?$_Tree_simple_types@U?$pair@QAVUnitInterface@BWAPI@@VUnitset@2@@std@@@std@@@std@@@2@V?$_Tree_const_iterator@V?$_Tree_val@U?$_Tree_simple_types@U?$pair@QAVUnitInterface@BWAPI@@VUnitset@2@@std@@@std@@@std@@@2@0@Z 10043ff0 f i InformationManager.obj
 0001:000430b0       ?_Reallocate@?$vector@UUnitInfo@UAlbertaBot@@V?$allocator@UUnitInfo@UAlbertaBot@@@std@@@std@@IAEXI@Z 100440b0 f i InformationManager.obj
 0001:00043140       ?erase@?$_Tree@V?$_Tmap_traits@PAVPlayerInterface@BWAPI@@VUnitData@UAlbertaBot@@U?$less@PAVPlayerInterface@BWAPI@@@std@@V?$allocator@U?$pair@QAVPlayerInterface@BWAPI@@VUnitData@UAlbertaBot@@@std@@@6@$0A@@std@@@std@@QAE?AV?$_Tree_iterator@V?$_Tree_val@U?$_Tree_simple_types@U?$pair@QAVPlayerInterface@BWAPI@@VUnitData@UAlbertaBot@@@std@@@std@@@std@@@2@V?$_Tree_const_iterator@V?$_Tree_val@U?$_Tree_simple_types@U?$pair@QAVPlayerInterface@BWAPI@@VUnitData@UAlbertaBot@@@std@@@std@@@std@@@2@@Z 10044140 f i InformationManager.obj
 0001:000433f0       ?erase@?$_Tree@V?$_Tmap_traits@PAVPlayerInterface@BWAPI@@V?$set@PBVZone@UAlbertaBot@@U?$less@PBVZone@UAlbertaBot@@@std@@V?$allocator@PBVZone@UAlbertaBot@@@4@@std@@U?$less@PAVPlayerInterface@BWAPI@@@4@V?$allocator@U?$pair@QAVPlayerInterface@BWAPI@@V?$set@PBVZone@UAlbertaBot@@U?$less@PBVZone@UAlbertaBot@@@std@@V?$allocator@PBVZone@UAlbertaBot@@@4@@std@@@std@@@4@$0A@@std@@@std@@QAE?AV?$_Tree_iterator@V?$_Tree_val@U?$_Tree_simple_types@U?$pair@QAVPlayerInterface@BWAPI@@V?$set@PBVZone@UAlbertaBot@@U?$less@PBVZone@UAlbertaBot@@@std@@V?$allocator@PBVZone@UAlbertaBot@@@4@@std@@@std@@@std@@@std@@@2@V?$_Tree_const_iterator@V?$_Tree_val@U?$_Tree_simple_types@U?$pair@QAVPlayerInterface@BWAPI@@V?$set@PBVZone@UAlbertaBot@@U?$less@PBVZone@UAlbertaBot@@@std@@V?$allocator@PBVZone@UAlbertaBot@@@4@@std@@@std@@@std@@@std@@@2@@Z 100443f0 f i InformationManager.obj
 0001:00043660       ?erase@?$_Tree@V?$_Tmap_traits@PAVUnitInterface@BWAPI@@VUnitset@2@U?$less@PAVUnitInterface@BWAPI@@@std@@V?$allocator@U?$pair@QAVUnitInterface@BWAPI@@VUnitset@2@@std@@@5@$0A@@std@@@std@@QAE?AV?$_Tree_iterator@V?$_Tree_val@U?$_Tree_simple_types@U?$pair@QAVUnitInterface@BWAPI@@VUnitset@2@@std@@@std@@@std@@@2@V?$_Tree_const_iterator@V?$_Tree_val@U?$_Tree_simple_types@U?$pair@QAVUnitInterface@BWAPI@@VUnitset@2@@std@@@std@@@std@@@2@@Z 10044660 f i InformationManager.obj
 0001:00043920       ?_Erase@?$_Tree@V?$_Tmap_traits@PAVPlayerInterface@BWAPI@@VUnitData@UAlbertaBot@@U?$less@PAVPlayerInterface@BWAPI@@@std@@V?$allocator@U?$pair@QAVPlayerInterface@BWAPI@@VUnitData@UAlbertaBot@@@std@@@6@$0A@@std@@@std@@IAEXPAU?$_Tree_node@U?$pair@QAVPlayerInterface@BWAPI@@VUnitData@UAlbertaBot@@@std@@PAX@2@@Z 10044920 f i InformationManager.obj
 0001:000439d0       ?_Erase@?$_Tree@V?$_Tmap_traits@PAVPlayerInterface@BWAPI@@V?$set@PBVZone@UAlbertaBot@@U?$less@PBVZone@UAlbertaBot@@@std@@V?$allocator@PBVZone@UAlbertaBot@@@4@@std@@U?$less@PAVPlayerInterface@BWAPI@@@4@V?$allocator@U?$pair@QAVPlayerInterface@BWAPI@@V?$set@PBVZone@UAlbertaBot@@U?$less@PBVZone@UAlbertaBot@@@std@@V?$allocator@PBVZone@UAlbertaBot@@@4@@std@@@std@@@4@$0A@@std@@@std@@IAEXPAU?$_Tree_node@U?$pair@QAVPlayerInterface@BWAPI@@V?$set@PBVZone@UAlbertaBot@@U?$less@PBVZone@UAlbertaBot@@@std@@V?$allocator@PBVZone@UAlbertaBot@@@4@@std@@@std@@PAX@2@@Z 100449d0 f i InformationManager.obj
 0001:00043a30       ?_Buyheadnode@?$_Tree_alloc@$0A@U?$_Tree_base_types@U?$pair@$$CBV?$Point@H$0CA@@BWAPI@@VGridDistances@UAlbertaBot@@@std@@V?$allocator@U?$pair@$$CBV?$Point@H$0CA@@BWAPI@@VGridDistances@UAlbertaBot@@@std@@@2@@std@@@std@@QAEPAU?$_Tree_node@U?$pair@$$CBV?$Point@H$0CA@@BWAPI@@VGridDistances@UAlbertaBot@@@std@@PAX@2@XZ 10044a30 f i MapTools.obj
 0001:00043a30       ?_Buyheadnode@?$_Tree_alloc@$0A@U?$_Tree_base_types@U?$pair@QAVPlayerInterface@BWAPI@@VUnitData@UAlbertaBot@@@std@@V?$allocator@U?$pair@QAVPlayerInterface@BWAPI@@VUnitData@UAlbertaBot@@@std@@@2@@std@@@std@@QAEPAU?$_Tree_node@U?$pair@QAVPlayerInterface@BWAPI@@VUnitData@UAlbertaBot@@@std@@PAX@2@XZ 10044a30 f i InformationManager.obj
 0001:00043a30       ?_Buyheadnode@?$_Tree_alloc@$0A@U?$_Tree_base_types@U?$pair@QAVUnitInterface@BWAPI@@VMicroState@UAlbertaBot@@@std@@V?$allocator@U?$pair@QAVUnitInterface@BWAPI@@VMicroState@UAlbertaBot@@@std@@@2@@std@@@std@@QAEPAU?$_Tree_node@U?$pair@QAVUnitInterface@BWAPI@@VMicroState@UAlbertaBot@@@std@@PAX@2@XZ 10044a30 f i Micro.obj
 0001:00043a60       ?_Buyheadnode@?$_Tree_alloc@$0A@U?$_Tree_base_types@U?$pair@QAVPlayerInterface@BWAPI@@V?$set@PBVZone@UAlbertaBot@@U?$less@PBVZone@UAlbertaBot@@@std@@V?$allocator@PBVZone@UAlbertaBot@@@4@@std@@@std@@V?$allocator@U?$pair@QAVPlayerInterface@BWAPI@@V?$set@PBVZone@UAlbertaBot@@U?$less@PBVZone@UAlbertaBot@@@std@@V?$allocator@PBVZone@UAlbertaBot@@@4@@std@@@std@@@2@@std@@@std@@QAEPAU?$_Tree_node@U?$pair@QAVPlayerInterface@BWAPI@@V?$set@PBVZone@UAlbertaBot@@U?$less@PBVZone@UAlbertaBot@@@std@@V?$allocator@PBVZone@UAlbertaBot@@@4@@std@@@std@@PAX@2@XZ 10044a60 f i InformationManager.obj
 0001:00043a90       ?_Buyheadnode@?$_Tree_alloc@$0A@U?$_Tree_base_types@U?$pair@QAVUnitInterface@BWAPI@@VUnitset@2@@std@@V?$allocator@U?$pair@QAVUnitInterface@BWAPI@@VUnitset@2@@std@@@2@@std@@@std@@QAEPAU?$_Tree_node@U?$pair@QAVUnitInterface@BWAPI@@VUnitset@2@@std@@PAX@2@XZ 10044a90 f i InformationManager.obj
 0001:00043ac0       ??$_Buynode@ABUpiecewise_construct_t@std@@V?$tuple@$$QAPAVPlayerInterface@BWAPI@@@2@V?$tuple@$$$V@2@@?$_Tree_buy@U?$pair@QAVPlayerInterface@BWAPI@@VUnitData@UAlbertaBot@@@std@@V?$allocator@U?$pair@QAVPlayerInterface@BWAPI@@VUnitData@UAlbertaBot@@@std@@@2@@std@@QAEPAU?$_Tree_node@U?$pair@QAVPlayerInterface@BWAPI@@VUnitData@UAlbertaBot@@@std@@PAX@1@ABUpiecewise_construct_t@1@$$QAV?$tuple@$$QAPAVPlayerInterface@BWAPI@@@1@$$QAV?$tuple@$$$V@1@@Z 10044ac0 f i InformationManager.obj
 0001:00043ac0       ??$_Buynode@ABUpiecewise_construct_t@std@@V?$tuple@ABQAVPlayerInterface@BWAPI@@@2@V?$tuple@$$$V@2@@?$_Tree_buy@U?$pair@QAVPlayerInterface@BWAPI@@VUnitData@UAlbertaBot@@@std@@V?$allocator@U?$pair@QAVPlayerInterface@BWAPI@@VUnitData@UAlbertaBot@@@std@@@2@@std@@QAEPAU?$_Tree_node@U?$pair@QAVPlayerInterface@BWAPI@@VUnitData@UAlbertaBot@@@std@@PAX@1@ABUpiecewise_construct_t@1@$$QAV?$tuple@ABQAVPlayerInterface@BWAPI@@@1@$$QAV?$tuple@$$$V@1@@Z 10044ac0 f i InformationManager.obj
 0001:00043b50       ??$_Insert_hint@AAU?$pair@QAVPlayerInterface@BWAPI@@VUnitData@UAlbertaBot@@@std@@PAU?$_Tree_node@U?$pair@QAVPlayerInterface@BWAPI@@VUnitData@UAlbertaBot@@@std@@PAX@2@@?$_Tree@V?$_Tmap_traits@PAVPlayerInterface@BWAPI@@VUnitData@UAlbertaBot@@U?$less@PAVPlayerInterface@BWAPI@@@std@@V?$allocator@U?$pair@QAVPlayerInterface@BWAPI@@VUnitData@UAlbertaBot@@@std@@@6@$0A@@std@@@std@@IAE?AV?$_Tree_iterator@V?$_Tree_val@U?$_Tree_simple_types@U?$pair@QAVPlayerInterface@BWAPI@@VUnitData@UAlbertaBot@@@std@@@std@@@std@@@1@V?$_Tree_const_iterator@V?$_Tree_val@U?$_Tree_simple_types@U?$pair@QAVPlayerInterface@BWAPI@@VUnitData@UAlbertaBot@@@std@@@std@@@std@@@1@AAU?$pair@QAVPlayerInterface@BWAPI@@VUnitData@UAlbertaBot@@@1@PAU?$_Tree_node@U?$pair@QAVPlayerInterface@BWAPI@@VUnitData@UAlbertaBot@@@std@@PAX@1@@Z 10044b50 f i InformationManager.obj
 0001:00043d60       ??$_Buynode@ABUpiecewise_construct_t@std@@V?$tuple@ABQAVPlayerInterface@BWAPI@@@2@V?$tuple@$$$V@2@@?$_Tree_buy@U?$pair@QAVPlayerInterface@BWAPI@@V?$set@PBVZone@UAlbertaBot@@U?$less@PBVZone@UAlbertaBot@@@std@@V?$allocator@PBVZone@UAlbertaBot@@@4@@std@@@std@@V?$allocator@U?$pair@QAVPlayerInterface@BWAPI@@V?$set@PBVZone@UAlbertaBot@@U?$less@PBVZone@UAlbertaBot@@@std@@V?$allocator@PBVZone@UAlbertaBot@@@4@@std@@@std@@@2@@std@@QAEPAU?$_Tree_node@U?$pair@QAVPlayerInterface@BWAPI@@V?$set@PBVZone@UAlbertaBot@@U?$less@PBVZone@UAlbertaBot@@@std@@V?$allocator@PBVZone@UAlbertaBot@@@4@@std@@@std@@PAX@1@ABUpiecewise_construct_t@1@$$QAV?$tuple@ABQAVPlayerInterface@BWAPI@@@1@$$QAV?$tuple@$$$V@1@@Z 10044d60 f i InformationManager.obj
 0001:00043e00       ??$_Insert_hint@AAU?$pair@QAVPlayerInterface@BWAPI@@V?$set@PBVZone@UAlbertaBot@@U?$less@PBVZone@UAlbertaBot@@@std@@V?$allocator@PBVZone@UAlbertaBot@@@4@@std@@@std@@PAU?$_Tree_node@U?$pair@QAVPlayerInterface@BWAPI@@V?$set@PBVZone@UAlbertaBot@@U?$less@PBVZone@UAlbertaBot@@@std@@V?$allocator@PBVZone@UAlbertaBot@@@4@@std@@@std@@PAX@2@@?$_Tree@V?$_Tmap_traits@PAVPlayerInterface@BWAPI@@V?$set@PBVZone@UAlbertaBot@@U?$less@PBVZone@UAlbertaBot@@@std@@V?$allocator@PBVZone@UAlbertaBot@@@4@@std@@U?$less@PAVPlayerInterface@BWAPI@@@4@V?$allocator@U?$pair@QAVPlayerInterface@BWAPI@@V?$set@PBVZone@UAlbertaBot@@U?$less@PBVZone@UAlbertaBot@@@std@@V?$allocator@PBVZone@UAlbertaBot@@@4@@std@@@std@@@4@$0A@@std@@@std@@IAE?AV?$_Tree_iterator@V?$_Tree_val@U?$_Tree_simple_types@U?$pair@QAVPlayerInterface@BWAPI@@V?$set@PBVZone@UAlbertaBot@@U?$less@PBVZone@UAlbertaBot@@@std@@V?$allocator@PBVZone@UAlbertaBot@@@4@@std@@@std@@@std@@@std@@@1@V?$_Tree_const_iterator@V?$_Tree_val@U?$_Tree_simple_types@U?$pair@QAVPlayerInterface@BWAPI@@V?$set@PBVZone@UAlbertaBot@@U?$less@PBVZone@UAlbertaBot@@@std@@V?$allocator@PBVZone@UAlbertaBot@@@4@@std@@@std@@@std@@@std@@@1@AAU?$pair@QAVPlayerInterface@BWAPI@@V?$set@PBVZone@UAlbertaBot@@U?$less@PBVZone@UAlbertaBot@@@std@@V?$allocator@PBVZone@UAlbertaBot@@@4@@std@@@1@PAU?$_Tree_node@U?$pair@QAVPlayerInterface@BWAPI@@V?$set@PBVZone@UAlbertaBot@@U?$less@PBVZone@UAlbertaBot@@@std@@V?$allocator@PBVZone@UAlbertaBot@@@4@@std@@@std@@PAX@1@@Z 10044e00 f i InformationManager.obj
 0001:00044010       ??$_Buynode@ABUpiecewise_construct_t@std@@V?$tuple@ABQAVUnitInterface@BWAPI@@@2@V?$tuple@$$$V@2@@?$_Tree_buy@U?$pair@QAVUnitInterface@BWAPI@@VUnitset@2@@std@@V?$allocator@U?$pair@QAVUnitInterface@BWAPI@@VUnitset@2@@std@@@2@@std@@QAEPAU?$_Tree_node@U?$pair@QAVUnitInterface@BWAPI@@VUnitset@2@@std@@PAX@1@ABUpiecewise_construct_t@1@$$QAV?$tuple@ABQAVUnitInterface@BWAPI@@@1@$$QAV?$tuple@$$$V@1@@Z 10045010 f i InformationManager.obj
 0001:000440a0       ??$_Insert_hint@AAU?$pair@QAVUnitInterface@BWAPI@@VUnitset@2@@std@@PAU?$_Tree_node@U?$pair@QAVUnitInterface@BWAPI@@VUnitset@2@@std@@PAX@2@@?$_Tree@V?$_Tmap_traits@PAVUnitInterface@BWAPI@@VUnitset@2@U?$less@PAVUnitInterface@BWAPI@@@std@@V?$allocator@U?$pair@QAVUnitInterface@BWAPI@@VUnitset@2@@std@@@5@$0A@@std@@@std@@IAE?AV?$_Tree_iterator@V?$_Tree_val@U?$_Tree_simple_types@U?$pair@QAVUnitInterface@BWAPI@@VUnitset@2@@std@@@std@@@std@@@1@V?$_Tree_const_iterator@V?$_Tree_val@U?$_Tree_simple_types@U?$pair@QAVUnitInterface@BWAPI@@VUnitset@2@@std@@@std@@@std@@@1@AAU?$pair@QAVUnitInterface@BWAPI@@VUnitset@2@@1@PAU?$_Tree_node@U?$pair@QAVUnitInterface@BWAPI@@VUnitset@2@@std@@PAX@1@@Z 100450a0 f i InformationManager.obj
 0001:000442b0       ?_Destroy_if_not_nil@?$_Tree@V?$_Tmap_traits@PAVPlayerInterface@BWAPI@@VUnitData@UAlbertaBot@@U?$less@PAVPlayerInterface@BWAPI@@@std@@V?$allocator@U?$pair@QAVPlayerInterface@BWAPI@@VUnitData@UAlbertaBot@@@std@@@6@$0A@@std@@@std@@IAEXPAU?$_Tree_node@U?$pair@QAVPlayerInterface@BWAPI@@VUnitData@UAlbertaBot@@@std@@PAX@2@@Z 100452b0 f i InformationManager.obj
 0001:000442d0       ?_Buynode0@?$_Tree_buy@U?$pair@$$CBV?$Point@H$0CA@@BWAPI@@VGridDistances@UAlbertaBot@@@std@@V?$allocator@U?$pair@$$CBV?$Point@H$0CA@@BWAPI@@VGridDistances@UAlbertaBot@@@std@@@2@@std@@QAEPAU?$_Tree_node@U?$pair@$$CBV?$Point@H$0CA@@BWAPI@@VGridDistances@UAlbertaBot@@@std@@PAX@2@XZ 100452d0 f i MapTools.obj
 0001:000442d0       ?_Buynode0@?$_Tree_buy@U?$pair@QAVPlayerInterface@BWAPI@@VUnitData@UAlbertaBot@@@std@@V?$allocator@U?$pair@QAVPlayerInterface@BWAPI@@VUnitData@UAlbertaBot@@@std@@@2@@std@@QAEPAU?$_Tree_node@U?$pair@QAVPlayerInterface@BWAPI@@VUnitData@UAlbertaBot@@@std@@PAX@2@XZ 100452d0 f i InformationManager.obj
 0001:000442d0       ?_Buynode0@?$_Tree_buy@U?$pair@QAVUnitInterface@BWAPI@@VMicroState@UAlbertaBot@@@std@@V?$allocator@U?$pair@QAVUnitInterface@BWAPI@@VMicroState@UAlbertaBot@@@std@@@2@@std@@QAEPAU?$_Tree_node@U?$pair@QAVUnitInterface@BWAPI@@VMicroState@UAlbertaBot@@@std@@PAX@2@XZ 100452d0 f i Micro.obj
 0001:00044310       ?_Destroy_if_not_nil@?$_Tree@V?$_Tmap_traits@PAVPlayerInterface@BWAPI@@V?$set@PBVZone@UAlbertaBot@@U?$less@PBVZone@UAlbertaBot@@@std@@V?$allocator@PBVZone@UAlbertaBot@@@4@@std@@U?$less@PAVPlayerInterface@BWAPI@@@4@V?$allocator@U?$pair@QAVPlayerInterface@BWAPI@@V?$set@PBVZone@UAlbertaBot@@U?$less@PBVZone@UAlbertaBot@@@std@@V?$allocator@PBVZone@UAlbertaBot@@@4@@std@@@std@@@4@$0A@@std@@@std@@IAEXPAU?$_Tree_node@U?$pair@QAVPlayerInterface@BWAPI@@V?$set@PBVZone@UAlbertaBot@@U?$less@PBVZone@UAlbertaBot@@@std@@V?$allocator@PBVZone@UAlbertaBot@@@4@@std@@@std@@PAX@2@@Z 10045310 f i InformationManager.obj
 0001:00044350       ?_Buynode0@?$_Tree_buy@U?$pair@QAVPlayerInterface@BWAPI@@V?$set@PBVZone@UAlbertaBot@@U?$less@PBVZone@UAlbertaBot@@@std@@V?$allocator@PBVZone@UAlbertaBot@@@4@@std@@@std@@V?$allocator@U?$pair@QAVPlayerInterface@BWAPI@@V?$set@PBVZone@UAlbertaBot@@U?$less@PBVZone@UAlbertaBot@@@std@@V?$allocator@PBVZone@UAlbertaBot@@@4@@std@@@std@@@2@@std@@QAEPAU?$_Tree_node@U?$pair@QAVPlayerInterface@BWAPI@@V?$set@PBVZone@UAlbertaBot@@U?$less@PBVZone@UAlbertaBot@@@std@@V?$allocator@PBVZone@UAlbertaBot@@@4@@std@@@std@@PAX@2@XZ 10045350 f i InformationManager.obj
 0001:00044390       ?_Destroy_if_not_nil@?$_Tree@V?$_Tmap_traits@PAVUnitInterface@BWAPI@@VUnitset@2@U?$less@PAVUnitInterface@BWAPI@@@std@@V?$allocator@U?$pair@QAVUnitInterface@BWAPI@@VUnitset@2@@std@@@5@$0A@@std@@@std@@IAEXPAU?$_Tree_node@U?$pair@QAVUnitInterface@BWAPI@@VUnitset@2@@std@@PAX@2@@Z 10045390 f i InformationManager.obj
 0001:000443b0       ?_Buynode0@?$_Tree_buy@U?$pair@QAVUnitInterface@BWAPI@@VUnitset@2@@std@@V?$allocator@U?$pair@QAVUnitInterface@BWAPI@@VUnitset@2@@std@@@2@@std@@QAEPAU?$_Tree_node@U?$pair@QAVUnitInterface@BWAPI@@VUnitset@2@@std@@PAX@2@XZ 100453b0 f i InformationManager.obj
 0001:000443f0       ??$_Insert_at@AAU?$pair@QAVPlayerInterface@BWAPI@@VUnitData@UAlbertaBot@@@std@@PAU?$_Tree_node@U?$pair@QAVPlayerInterface@BWAPI@@VUnitData@UAlbertaBot@@@std@@PAX@2@@?$_Tree@V?$_Tmap_traits@PAVPlayerInterface@BWAPI@@VUnitData@UAlbertaBot@@U?$less@PAVPlayerInterface@BWAPI@@@std@@V?$allocator@U?$pair@QAVPlayerInterface@BWAPI@@VUnitData@UAlbertaBot@@@std@@@6@$0A@@std@@@std@@IAE?AV?$_Tree_iterator@V?$_Tree_val@U?$_Tree_simple_types@U?$pair@QAVPlayerInterface@BWAPI@@VUnitData@UAlbertaBot@@@std@@@std@@@std@@@1@_NPAU?$_Tree_node@U?$pair@QAVPlayerInterface@BWAPI@@VUnitData@UAlbertaBot@@@std@@PAX@1@AAU?$pair@QAVPlayerInterface@BWAPI@@VUnitData@UAlbertaBot@@@1@1@Z 100453f0 f i InformationManager.obj
 0001:000445d0       ??$_Insert_nohint@AAU?$pair@QAVPlayerInterface@BWAPI@@VUnitData@UAlbertaBot@@@std@@PAU?$_Tree_node@U?$pair@QAVPlayerInterface@BWAPI@@VUnitData@UAlbertaBot@@@std@@PAX@2@@?$_Tree@V?$_Tmap_traits@PAVPlayerInterface@BWAPI@@VUnitData@UAlbertaBot@@U?$less@PAVPlayerInterface@BWAPI@@@std@@V?$allocator@U?$pair@QAVPlayerInterface@BWAPI@@VUnitData@UAlbertaBot@@@std@@@6@$0A@@std@@@std@@IAE?AU?$pair@V?$_Tree_iterator@V?$_Tree_val@U?$_Tree_simple_types@U?$pair@QAVPlayerInterface@BWAPI@@VUnitData@UAlbertaBot@@@std@@@std@@@std@@@std@@_N@1@_NAAU?$pair@QAVPlayerInterface@BWAPI@@VUnitData@UAlbertaBot@@@1@PAU?$_Tree_node@U?$pair@QAVPlayerInterface@BWAPI@@VUnitData@UAlbertaBot@@@std@@PAX@1@@Z 100455d0 f i InformationManager.obj
 0001:000446e0       ??$_Insert_at@AAU?$pair@QAVPlayerInterface@BWAPI@@V?$set@PBVZone@UAlbertaBot@@U?$less@PBVZone@UAlbertaBot@@@std@@V?$allocator@PBVZone@UAlbertaBot@@@4@@std@@@std@@PAU?$_Tree_node@U?$pair@QAVPlayerInterface@BWAPI@@V?$set@PBVZone@UAlbertaBot@@U?$less@PBVZone@UAlbertaBot@@@std@@V?$allocator@PBVZone@UAlbertaBot@@@4@@std@@@std@@PAX@2@@?$_Tree@V?$_Tmap_traits@PAVPlayerInterface@BWAPI@@V?$set@PBVZone@UAlbertaBot@@U?$less@PBVZone@UAlbertaBot@@@std@@V?$allocator@PBVZone@UAlbertaBot@@@4@@std@@U?$less@PAVPlayerInterface@BWAPI@@@4@V?$allocator@U?$pair@QAVPlayerInterface@BWAPI@@V?$set@PBVZone@UAlbertaBot@@U?$less@PBVZone@UAlbertaBot@@@std@@V?$allocator@PBVZone@UAlbertaBot@@@4@@std@@@std@@@4@$0A@@std@@@std@@IAE?AV?$_Tree_iterator@V?$_Tree_val@U?$_Tree_simple_types@U?$pair@QAVPlayerInterface@BWAPI@@V?$set@PBVZone@UAlbertaBot@@U?$less@PBVZone@UAlbertaBot@@@std@@V?$allocator@PBVZone@UAlbertaBot@@@4@@std@@@std@@@std@@@std@@@1@_NPAU?$_Tree_node@U?$pair@QAVPlayerInterface@BWAPI@@V?$set@PBVZone@UAlbertaBot@@U?$less@PBVZone@UAlbertaBot@@@std@@V?$allocator@PBVZone@UAlbertaBot@@@4@@std@@@std@@PAX@1@AAU?$pair@QAVPlayerInterface@BWAPI@@V?$set@PBVZone@UAlbertaBot@@U?$less@PBVZone@UAlbertaBot@@@std@@V?$allocator@PBVZone@UAlbertaBot@@@4@@std@@@1@1@Z 100456e0 f i InformationManager.obj
 0001:000448d0       ??$_Insert_nohint@AAU?$pair@QAVPlayerInterface@BWAPI@@V?$set@PBVZone@UAlbertaBot@@U?$less@PBVZone@UAlbertaBot@@@std@@V?$allocator@PBVZone@UAlbertaBot@@@4@@std@@@std@@PAU?$_Tree_node@U?$pair@QAVPlayerInterface@BWAPI@@V?$set@PBVZone@UAlbertaBot@@U?$less@PBVZone@UAlbertaBot@@@std@@V?$allocator@PBVZone@UAlbertaBot@@@4@@std@@@std@@PAX@2@@?$_Tree@V?$_Tmap_traits@PAVPlayerInterface@BWAPI@@V?$set@PBVZone@UAlbertaBot@@U?$less@PBVZone@UAlbertaBot@@@std@@V?$allocator@PBVZone@UAlbertaBot@@@4@@std@@U?$less@PAVPlayerInterface@BWAPI@@@4@V?$allocator@U?$pair@QAVPlayerInterface@BWAPI@@V?$set@PBVZone@UAlbertaBot@@U?$less@PBVZone@UAlbertaBot@@@std@@V?$allocator@PBVZone@UAlbertaBot@@@4@@std@@@std@@@4@$0A@@std@@@std@@IAE?AU?$pair@V?$_Tree_iterator@V?$_Tree_val@U?$_Tree_simple_types@U?$pair@QAVPlayerInterface@BWAPI@@V?$set@PBVZone@UAlbertaBot@@U?$less@PBVZone@UAlbertaBot@@@std@@V?$allocator@PBVZone@UAlbertaBot@@@4@@std@@@std@@@std@@@std@@@std@@_N@1@_NAAU?$pair@QAVPlayerInterface@BWAPI@@V?$set@PBVZone@UAlbertaBot@@U?$less@PBVZone@UAlbertaBot@@@std@@V?$allocator@PBVZone@UAlbertaBot@@@4@@std@@@1@PAU?$_Tree_node@U?$pair@QAVPlayerInterface@BWAPI@@V?$set@PBVZone@UAlbertaBot@@U?$less@PBVZone@UAlbertaBot@@@std@@V?$allocator@PBVZone@UAlbertaBot@@@4@@std@@@std@@PAX@1@@Z 100458d0 f i InformationManager.obj
 0001:00044a00       ??$_Insert_at@AAU?$pair@QAVUnitInterface@BWAPI@@VUnitset@2@@std@@PAU?$_Tree_node@U?$pair@QAVUnitInterface@BWAPI@@VUnitset@2@@std@@PAX@2@@?$_Tree@V?$_Tmap_traits@PAVUnitInterface@BWAPI@@VUnitset@2@U?$less@PAVUnitInterface@BWAPI@@@std@@V?$allocator@U?$pair@QAVUnitInterface@BWAPI@@VUnitset@2@@std@@@5@$0A@@std@@@std@@IAE?AV?$_Tree_iterator@V?$_Tree_val@U?$_Tree_simple_types@U?$pair@QAVUnitInterface@BWAPI@@VUnitset@2@@std@@@std@@@std@@@1@_NPAU?$_Tree_node@U?$pair@QAVUnitInterface@BWAPI@@VUnitset@2@@std@@PAX@1@AAU?$pair@QAVUnitInterface@BWAPI@@VUnitset@2@@1@1@Z 10045a00 f i InformationManager.obj
 0001:00044be0       ??$_Insert_nohint@AAU?$pair@QAVUnitInterface@BWAPI@@VUnitset@2@@std@@PAU?$_Tree_node@U?$pair@QAVUnitInterface@BWAPI@@VUnitset@2@@std@@PAX@2@@?$_Tree@V?$_Tmap_traits@PAVUnitInterface@BWAPI@@VUnitset@2@U?$less@PAVUnitInterface@BWAPI@@@std@@V?$allocator@U?$pair@QAVUnitInterface@BWAPI@@VUnitset@2@@std@@@5@$0A@@std@@@std@@IAE?AU?$pair@V?$_Tree_iterator@V?$_Tree_val@U?$_Tree_simple_types@U?$pair@QAVUnitInterface@BWAPI@@VUnitset@2@@std@@@std@@@std@@@std@@_N@1@_NAAU?$pair@QAVUnitInterface@BWAPI@@VUnitset@2@@1@PAU?$_Tree_node@U?$pair@QAVUnitInterface@BWAPI@@VUnitset@2@@std@@PAX@1@@Z 10045be0 f i InformationManager.obj
 0001:00044cf0       ??1UnitData@UAlbertaBot@@QAE@XZ 10045cf0 f i InformationManager.obj
 0001:00044d60       ??$_Uninit_move@PAUUnitInfo@UAlbertaBot@@PAU12@V?$allocator@UUnitInfo@UAlbertaBot@@@std@@U12@@std@@YAPAUUnitInfo@UAlbertaBot@@PAU12@00AAU?$_Wrap_alloc@V?$allocator@UUnitInfo@UAlbertaBot@@@std@@@0@0U_Nonscalar_ptr_iterator_tag@0@@Z 10045d60 f i InformationManager.obj
 0001:00044db0       ?ReadBool@JSONTools@UAlbertaBot@@YAXPBDABV?$GenericValue@U?$UTF8@D@rapidjson@@V?$MemoryPoolAllocator@VCrtAllocator@rapidjson@@@2@@rapidjson@@AA_N@Z 10045db0 f   JSONTools.obj
 0001:00044e90       ?ReadString@JSONTools@UAlbertaBot@@YAXPBDABV?$GenericValue@U?$UTF8@D@rapidjson@@V?$MemoryPoolAllocator@VCrtAllocator@rapidjson@@@2@@rapidjson@@AAV?$basic_string@DU?$char_traits@D@std@@V?$allocator@D@2@@std@@@Z 10045e90 f   JSONTools.obj
 0001:00044f90       ?HasMember@?$GenericValue@U?$UTF8@D@rapidjson@@V?$MemoryPoolAllocator@VCrtAllocator@rapidjson@@@2@@rapidjson@@QBE_NPBD@Z 10045f90 f i JSONTools.obj
 0001:00044fc0       ?FindMember@?$GenericValue@U?$UTF8@D@rapidjson@@V?$MemoryPoolAllocator@VCrtAllocator@rapidjson@@@2@@rapidjson@@QAE?AV?$GenericMemberIterator@$0A@U?$UTF8@D@rapidjson@@V?$MemoryPoolAllocator@VCrtAllocator@rapidjson@@@2@@2@PBD@Z 10045fc0 f i JSONTools.obj
 0001:00045050       ??$?A$$CBD@?$GenericValue@U?$UTF8@D@rapidjson@@V?$MemoryPoolAllocator@VCrtAllocator@rapidjson@@@2@@rapidjson@@QBEABV01@PBD@Z 10046050 f i JSONTools.obj
 0001:00045050       ??$?A$$CBD@?$GenericValue@U?$UTF8@D@rapidjson@@V?$MemoryPoolAllocator@VCrtAllocator@rapidjson@@@2@@rapidjson@@QAEAAV01@PBD@Z 10046050 f i JSONTools.obj
 0001:000450b0       ??$StringEqual@V?$MemoryPoolAllocator@VCrtAllocator@rapidjson@@@rapidjson@@@?$GenericValue@U?$UTF8@D@rapidjson@@V?$MemoryPoolAllocator@VCrtAllocator@rapidjson@@@2@@rapidjson@@ABE_NABV01@@Z 100460b0 f i JSONTools.obj
 0001:00045190       ??$?AV?$MemoryPoolAllocator@VCrtAllocator@rapidjson@@@rapidjson@@@?$GenericValue@U?$UTF8@D@rapidjson@@V?$MemoryPoolAllocator@VCrtAllocator@rapidjson@@@2@@rapidjson@@QAEAAV01@ABV01@@Z 10046190 f i JSONTools.obj
 0001:00045210       ??1locale@std@@QAE@XZ      10046210 f i Logger.obj
 0001:00045230       ?LogAppendToFile@Logger@UAlbertaBot@@YAXABV?$basic_string@DU?$char_traits@D@std@@V?$allocator@D@2@@std@@0@Z 10046230 f   Logger.obj
 0001:00045360       ??_D?$basic_ofstream@DU?$char_traits@D@std@@@std@@QAEXXZ 10046360 f i Logger.obj
 0001:000453a0       ?ReadFile@FileUtils@UAlbertaBot@@YA?AV?$basic_string@DU?$char_traits@D@std@@V?$allocator@D@2@@std@@ABV34@@Z 100463a0 f   Logger.obj
 0001:00045520       ??0?$basic_ofstream@DU?$char_traits@D@std@@@std@@QAE@XZ 10046520 f i Logger.obj
 0001:000455f0       ?close@?$basic_ofstream@DU?$char_traits@D@std@@@std@@QAEXXZ 100465f0 f i Logger.obj
 0001:00045670       ??1?$basic_filebuf@DU?$char_traits@D@std@@@std@@UAE@XZ 10046670 f i Logger.obj
 0001:000456f0       ?_Lock@?$basic_filebuf@DU?$char_traits@D@std@@@std@@UAEXXZ 100466f0 f i Logger.obj
 0001:00045700       ?_Unlock@?$basic_filebuf@DU?$char_traits@D@std@@@std@@UAEXXZ 10046700 f i Logger.obj
 0001:00045710       ?overflow@?$basic_filebuf@DU?$char_traits@D@std@@@std@@MAEHH@Z 10046710 f i Logger.obj
 0001:00045920       ?pbackfail@?$basic_filebuf@DU?$char_traits@D@std@@@std@@MAEHH@Z 10046920 f i Logger.obj
 0001:000459b0       ?underflow@?$basic_filebuf@DU?$char_traits@D@std@@@std@@MAEHXZ 100469b0 f i Logger.obj
 0001:000459f0       ?uflow@?$basic_filebuf@DU?$char_traits@D@std@@@std@@MAEHXZ 100469f0 f i Logger.obj
 0001:00045c10       ?seekoff@?$basic_filebuf@DU?$char_traits@D@std@@@std@@MAE?AV?$fpos@H@2@_JHH@Z 10046c10 f i Logger.obj
 0001:00045d00       ?seekpos@?$basic_filebuf@DU?$char_traits@D@std@@@std@@MAE?AV?$fpos@H@2@V32@H@Z 10046d00 f i Logger.obj
 0001:00045df0       ?setbuf@?$basic_filebuf@DU?$char_traits@D@std@@@std@@MAEPAV?$basic_streambuf@DU?$char_traits@D@std@@@2@PAD_J@Z 10046df0 f i Logger.obj
 0001:00045e80       ?sync@?$basic_filebuf@DU?$char_traits@D@std@@@std@@MAEHXZ 10046e80 f i Logger.obj
 0001:00045eb0       ?imbue@?$basic_filebuf@DU?$char_traits@D@std@@@std@@MAEXABVlocale@2@@Z 10046eb0 f i Logger.obj
 0001:00045ef0       ??_G?$basic_ofstream@DU?$char_traits@D@std@@@std@@UAEPAXI@Z 10046ef0 f i Logger.obj
 0001:00045ef0       ??_E?$basic_ofstream@DU?$char_traits@D@std@@@std@@UAEPAXI@Z 10046ef0 f i * CIL library *:* CIL module *
 0001:00045f50       ??_E?$basic_filebuf@DU?$char_traits@D@std@@@std@@UAEPAXI@Z 10046f50 f i * CIL library *:* CIL module *
 0001:00045f50       ??_G?$basic_filebuf@DU?$char_traits@D@std@@@std@@UAEPAXI@Z 10046f50 f i Logger.obj
 0001:00045f80       ?open@?$basic_filebuf@DU?$char_traits@D@std@@@std@@QAEPAV12@PBDHH@Z 10046f80 f i Logger.obj
 0001:00046090       ?_Endwrite@?$basic_filebuf@DU?$char_traits@D@std@@@std@@IAE_NXZ 10047090 f i Logger.obj
 0001:00046210       ?_Reset_back@?$basic_filebuf@DU?$char_traits@D@std@@@std@@AAEXXZ 10047210 f i Logger.obj
 0001:00046240       ?_Set_back@?$basic_filebuf@DU?$char_traits@D@std@@@std@@AAEXXZ 10047240 f i Logger.obj
 0001:00046280       ??$use_facet@V?$codecvt@DDH@std@@@std@@YAABV?$codecvt@DDH@0@ABVlocale@0@@Z 10047280 f i Logger.obj
 0001:0004636e       ??_E?$basic_ofstream@DU?$char_traits@D@std@@@std@@$4PPPPPPPM@A@AEPAXI@Z 1004736e f i Logger.obj
 0001:00046380       ?name@locale@std@@QBE?AV?$basic_string@DU?$char_traits@D@std@@V?$allocator@D@2@@2@XZ 10047380 f i MacroAct.obj
 0001:00046490       ?allCommandTypes@MacroCommand@UAlbertaBot@@SA?BV?$list@W4MacroCommandType@UAlbertaBot@@V?$allocator@W4MacroCommandType@UAlbertaBot@@@std@@@std@@XZ 10047490 f i MacroAct.obj
 0001:00046560       ?hasArgument@MacroCommand@UAlbertaBot@@SA?B_NW4MacroCommandType@2@@Z 10047560 f i MacroAct.obj
 0001:00046580       ?getName@MacroCommand@UAlbertaBot@@SA?BV?$basic_string@DU?$char_traits@D@std@@V?$allocator@D@2@@std@@W4MacroCommandType@2@@Z 10047580 f i MacroAct.obj
 0001:00046760       ?getName@MacroCommand@UAlbertaBot@@QBE?BV?$basic_string@DU?$char_traits@D@std@@V?$allocator@D@2@@std@@XZ 10047760 f i MacroAct.obj
 0001:000468a0       ??_G_Node_base@std@@UAEPAXI@Z 100478a0 f i MacroAct.obj
 0001:000468a0       ??_G_Node_rep@std@@UAEPAXI@Z 100478a0 f i MacroAct.obj
 0001:000468a0       ??_E_Node_back@std@@UAEPAXI@Z 100478a0 f i * CIL library *:* CIL module *
 0001:000468a0       ??_E_Node_base@std@@UAEPAXI@Z 100478a0 f i * CIL library *:* CIL module *
 0001:000468a0       ??_G_Node_capture@std@@UAEPAXI@Z 100478a0 f i MacroAct.obj
 0001:000468a0       ??_G_Node_endif@std@@UAEPAXI@Z 100478a0 f i MacroAct.obj
 0001:000468a0       ??_E_Node_endif@std@@UAEPAXI@Z 100478a0 f i * CIL library *:* CIL module *
 0001:000468a0       ??_G_Node_back@std@@UAEPAXI@Z 100478a0 f i MacroAct.obj
 0001:000468a0       ??_E_Node_rep@std@@UAEPAXI@Z 100478a0 f i * CIL library *:* CIL module *
 0001:000468a0       ??_G_Node_end_group@std@@UAEPAXI@Z 100478a0 f i MacroAct.obj
 0001:000468a0       ??_E_Node_end_group@std@@UAEPAXI@Z 100478a0 f i * CIL library *:* CIL module *
 0001:000468a0       ??_E_Node_end_rep@std@@UAEPAXI@Z 100478a0 f i * CIL library *:* CIL module *
 0001:000468a0       ??_E_Node_capture@std@@UAEPAXI@Z 100478a0 f i * CIL library *:* CIL module *
 0001:000468a0       ??_G_Node_end_rep@std@@UAEPAXI@Z 100478a0 f i MacroAct.obj
 0001:000468a0       ??_G_Root_node@std@@UAEPAXI@Z 100478a0 f i MacroAct.obj
 0001:000468a0       ??_E_Root_node@std@@UAEPAXI@Z 100478a0 f i * CIL library *:* CIL module *
 0001:000468d0       ?_Destroy_node@std@@YAXPAV_Node_base@1@0@Z 100478d0 f i MacroAct.obj
 0001:00046900       ??_E_Node_assert@std@@UAEPAXI@Z 10047900 f i * CIL library *:* CIL module *
 0001:00046900       ??_G_Node_assert@std@@UAEPAXI@Z 10047900 f i MacroAct.obj
 0001:00046950       ??1_Node_if@std@@UAE@XZ    10047950 f i MacroAct.obj
 0001:000469b0       ??_G_Node_if@std@@UAEPAXI@Z 100479b0 f i MacroAct.obj
 0001:000469b0       ??_E_Node_if@std@@UAEPAXI@Z 100479b0 f i * CIL library *:* CIL module *
 0001:000469e0       ?getMacroLocationFromString@MacroAct@UAlbertaBot@@AAE?AW4MacroLocation@2@AAV?$basic_string@DU?$char_traits@D@std@@V?$allocator@D@2@@std@@@Z 100479e0 f   MacroAct.obj
 0001:00046b90       ??0MacroAct@UAlbertaBot@@QAE@XZ 10047b90 f   MacroAct.obj
 0001:00046bd0       ??0MacroAct@UAlbertaBot@@QAE@ABV?$basic_string@DU?$char_traits@D@std@@V?$allocator@D@2@@std@@@Z 10047bd0 f   MacroAct.obj
 0001:00047e70       ??1?$match_results@V?$_String_const_iterator@V?$_String_val@U?$_Simple_types@D@std@@@std@@@std@@V?$allocator@V?$sub_match@V?$_String_const_iterator@V?$_String_val@U?$_Simple_types@D@std@@@std@@@std@@@std@@@2@@std@@QAE@XZ 10048e70 f i MacroAct.obj
 0001:00047ea0       ??0MacroAct@UAlbertaBot@@QAE@VUnitType@BWAPI@@@Z 10048ea0 f   MacroAct.obj
 0001:00047ef0       ??0MacroAct@UAlbertaBot@@QAE@VUnitType@BWAPI@@W4MacroLocation@1@@Z 10048ef0 f   MacroAct.obj
 0001:00047f40       ??0MacroAct@UAlbertaBot@@QAE@VTechType@BWAPI@@@Z 10048f40 f   MacroAct.obj
 0001:00047f90       ??0MacroAct@UAlbertaBot@@QAE@VUpgradeType@BWAPI@@@Z 10048f90 f   MacroAct.obj
 0001:00047fe0       ??0MacroAct@UAlbertaBot@@QAE@W4MacroCommandType@1@@Z 10048fe0 f   MacroAct.obj
 0001:00048050       ??0MacroAct@UAlbertaBot@@QAE@W4MacroCommandType@1@H@Z 10049050 f   MacroAct.obj
 0001:000480c0       ?isBuilding@MacroAct@UAlbertaBot@@QBE_NXZ 100490c0 f   MacroAct.obj
 0001:000480e0       ?isAddon@MacroAct@UAlbertaBot@@QBE_NXZ 100490e0 f   MacroAct.obj
 0001:00048100       ?getUnitType@MacroAct@UAlbertaBot@@QBEABVUnitType@BWAPI@@XZ 10049100 f   MacroAct.obj
 0001:00048130       ?getTechType@MacroAct@UAlbertaBot@@QBEABVTechType@BWAPI@@XZ 10049130 f   MacroAct.obj
 0001:00048160       ?getUpgradeType@MacroAct@UAlbertaBot@@QBEABVUpgradeType@BWAPI@@XZ 10049160 f   MacroAct.obj
 0001:00048190       ?supplyRequired@MacroAct@UAlbertaBot@@QBEHXZ 10049190 f   MacroAct.obj
 0001:000481d0       ?mineralPrice@MacroAct@UAlbertaBot@@QBEHXZ 100491d0 f   MacroAct.obj
 0001:00048290       ?gasPrice@MacroAct@UAlbertaBot@@QBEHXZ 10049290 f   MacroAct.obj
 0001:00048340       ?whatBuilds@MacroAct@UAlbertaBot@@QBE?AVUnitType@BWAPI@@XZ 10049340 f   MacroAct.obj
 0001:000483b0       ?getName@MacroAct@UAlbertaBot@@QBE?AV?$basic_string@DU?$char_traits@D@std@@V?$allocator@D@2@@std@@XZ 100493b0 f   MacroAct.obj
 0001:000484f0       ?getCandidateProducers@MacroAct@UAlbertaBot@@QBEXAAV?$vector@PAVUnitInterface@BWAPI@@V?$allocator@PAVUnitInterface@BWAPI@@@std@@@std@@@Z 100494f0 f   MacroAct.obj
 0001:000486b0       ?hasPotentialProducer@MacroAct@UAlbertaBot@@QBE_NXZ 100496b0 f   MacroAct.obj
 0001:00048760       ?hasTech@MacroAct@UAlbertaBot@@QBE_NXZ 10049760 f   MacroAct.obj
 0001:000489b0       ?produce@MacroAct@UAlbertaBot@@QAEXPAVUnitInterface@BWAPI@@@Z 100499b0 f   MacroAct.obj
 0001:00048c50       ?compare@?$basic_string@DU?$char_traits@D@std@@V?$allocator@D@2@@std@@QBEHIIABV12@@Z 10049c50 f i MacroAct.obj
 0001:00048c80       ?do_compare@?$collate@D@std@@MBEHPBD000@Z 10049c80 f i MacroAct.obj
 0001:00048cc0       ?do_transform@?$collate@D@std@@MBE?AV?$basic_string@DU?$char_traits@D@std@@V?$allocator@D@2@@2@PBD0@Z 10049cc0 f i MacroAct.obj
 0001:00048dd0       ?do_hash@?$collate@D@std@@MBEJPBD0@Z 10049dd0 f i MacroAct.obj
 0001:00048e10       ??0?$basic_regex@DV?$regex_traits@D@std@@@std@@QAE@PBDW4syntax_option_type@regex_constants@1@@Z 10049e10 f i MacroAct.obj
 0001:00048eb0       ??1?$basic_regex@DV?$regex_traits@D@std@@@std@@QAE@XZ 10049eb0 f i MacroAct.obj
 0001:00048ef0       ??0?$match_results@V?$_String_const_iterator@V?$_String_val@U?$_Simple_types@D@std@@@std@@@std@@V?$allocator@V?$sub_match@V?$_String_const_iterator@V?$_String_val@U?$_Simple_types@D@std@@@std@@@std@@@std@@@2@@std@@QAE@XZ 10049ef0 f i MacroAct.obj
 0001:00048f50       ??A?$match_results@V?$_String_const_iterator@V?$_String_val@U?$_Simple_types@D@std@@@std@@@std@@V?$allocator@V?$sub_match@V?$_String_const_iterator@V?$_String_val@U?$_Simple_types@D@std@@@std@@@std@@@std@@@2@@std@@QBEABV?$sub_match@V?$_String_const_iterator@V?$_String_val@U?$_Simple_types@D@std@@@std@@@std@@@1@I@Z 10049f50 f i MacroAct.obj
 0001:00048f90       ?str@?$sub_match@V?$_String_const_iterator@V?$_String_val@U?$_Simple_types@D@std@@@std@@@std@@@std@@QBE?AV?$basic_string@DU?$char_traits@D@std@@V?$allocator@D@2@@2@XZ 10049f90 f i MacroAct.obj
 0001:00049060       ??_G?$collate@D@std@@MAEPAXI@Z 1004a060 f i MacroAct.obj
 0001:00049060       ??_E?$collate@D@std@@MAEPAXI@Z 1004a060 f i * CIL library *:* CIL module *
 0001:000490a0       ??1?$regex_traits@D@std@@QAE@XZ 1004a0a0 f i MacroAct.obj
 0001:000490c0       ??$use_facet@V?$ctype@D@std@@@std@@YAABV?$ctype@D@0@ABVlocale@0@@Z 1004a0c0 f i MacroAct.obj
 0001:000491b0       ??$?HDU?$char_traits@D@std@@V?$allocator@D@1@@std@@YA?AV?$basic_string@DU?$char_traits@D@std@@V?$allocator@D@2@@0@ABV10@PBD@Z 1004a1b0 f i MacroAct.obj
 0001:000492a0       ??$regex_match@U?$char_traits@D@std@@V?$allocator@D@2@V?$allocator@V?$sub_match@V?$_String_const_iterator@V?$_String_val@U?$_Simple_types@D@std@@@std@@@std@@@std@@@2@DV?$regex_traits@D@2@@std@@YA_NABV?$basic_string@DU?$char_traits@D@std@@V?$allocator@D@2@@0@AAV?$match_results@V?$_String_const_iterator@V?$_String_val@U?$_Simple_types@D@std@@@std@@@std@@V?$allocator@V?$sub_match@V?$_String_const_iterator@V?$_String_val@U?$_Simple_types@D@std@@@std@@@std@@@std@@@2@@0@ABV?$basic_regex@DV?$regex_traits@D@std@@@0@W4match_flag_type@regex_constants@0@@Z 1004a2a0 f i MacroAct.obj
 0001:000492e0       ??$_Reset@PBD@?$basic_regex@DV?$regex_traits@D@std@@@std@@AAEXPBD0W4syntax_option_type@regex_constants@1@Uforward_iterator_tag@1@@Z 1004a2e0 f i MacroAct.obj
 0001:00049380       ??$_Insert_nohint@VUnitType@BWAPI@@U_Nil@std@@@?$_Tree@V?$_Tset_traits@VUnitType@BWAPI@@U?$less@VUnitType@BWAPI@@@std@@V?$allocator@VUnitType@BWAPI@@@4@$0A@@std@@@std@@IAE?AU?$pair@V?$_Tree_const_iterator@V?$_Tree_val@U?$_Tree_simple_types@VUnitType@BWAPI@@@std@@@std@@@std@@_N@1@_N$$QAVUnitType@BWAPI@@U_Nil@1@@Z 1004a380 f i MacroAct.obj
 0001:00049480       ??1?$_Parser@PBDDV?$regex_traits@D@std@@@std@@QAE@XZ 1004a480 f i MacroAct.obj
 0001:00049480       ??1?$_Parser@V?$_String_const_iterator@V?$_String_val@U?$_Simple_types@D@std@@@std@@@std@@DV?$regex_traits@D@2@@std@@QAE@XZ 1004a480 f i MacroAct.obj
 0001:000494c0       ??$_Transform@PADV?$_String_iterator@V?$_String_val@U?$_Simple_types@D@std@@@std@@@std@@P6AHH@Z@std@@YA?AV?$_String_iterator@V?$_String_val@U?$_Simple_types@D@std@@@std@@@0@PAD0V10@P6AHH@Z@Z 1004a4c0 f i MacroAct.obj
 0001:00049520       ??$_Regex_match@V?$_String_const_iterator@V?$_String_val@U?$_Simple_types@D@std@@@std@@@std@@V?$allocator@V?$sub_match@V?$_String_const_iterator@V?$_String_val@U?$_Simple_types@D@std@@@std@@@std@@@std@@@2@DV?$regex_traits@D@2@V12@@std@@YA_NV?$_String_const_iterator@V?$_String_val@U?$_Simple_types@D@std@@@std@@@0@0PAV?$match_results@V?$_String_const_iterator@V?$_String_val@U?$_Simple_types@D@std@@@std@@@std@@V?$allocator@V?$sub_match@V?$_String_const_iterator@V?$_String_val@U?$_Simple_types@D@std@@@std@@@std@@@std@@@2@@0@ABV?$basic_regex@DV?$regex_traits@D@std@@@0@W4match_flag_type@regex_constants@0@_N@Z 1004a520 f i MacroAct.obj
 0001:000495f0       ??$_Insert_range@PBW4MacroCommandType@UAlbertaBot@@@?$list@W4MacroCommandType@UAlbertaBot@@V?$allocator@W4MacroCommandType@UAlbertaBot@@@std@@@std@@QAEXV?$_List_unchecked_const_iterator@V?$_List_val@U?$_List_simple_types@W4MacroCommandType@UAlbertaBot@@@std@@@std@@U_Iterator_base0@2@@1@PBW4MacroCommandType@UAlbertaBot@@1Uforward_iterator_tag@1@@Z 1004a5f0 f i MacroAct.obj
 0001:000496d0       ??0?$_Parser@PBDDV?$regex_traits@D@std@@@std@@QAE@ABV?$regex_traits@D@1@PBD1W4syntax_option_type@regex_constants@1@@Z 1004a6d0 f i MacroAct.obj
 0001:000497b0       ?_Compile@?$_Parser@PBDDV?$regex_traits@D@std@@@std@@QAEPAV_Root_node@2@XZ 1004a7b0 f i MacroAct.obj
 0001:00049870       ??1?$_Matcher@V?$_String_const_iterator@V?$_String_val@U?$_Simple_types@D@std@@@std@@@std@@DV?$regex_traits@D@2@V12@@std@@QAE@XZ 1004a870 f i MacroAct.obj
 0001:000498b0       ??1?$_Tgt_state_t@V?$_String_const_iterator@V?$_String_val@U?$_Simple_types@D@std@@@std@@@std@@@std@@QAE@XZ 1004a8b0 f i MacroAct.obj
 0001:00049910       ??1?$_Bt_state_t@V?$_String_const_iterator@V?$_String_val@U?$_Simple_types@D@std@@@std@@@std@@@std@@QAE@XZ 1004a910 f i MacroAct.obj
 0001:00049950       ??0?$_Matcher@V?$_String_const_iterator@V?$_String_val@U?$_Simple_types@D@std@@@std@@@std@@DV?$regex_traits@D@2@V12@@std@@QAE@V?$_String_const_iterator@V?$_String_val@U?$_Simple_types@D@std@@@std@@@1@0ABV?$regex_traits@D@1@PAV_Root_node@1@HW4syntax_option_type@regex_constants@1@W4match_flag_type@61@@Z 1004a950 f i MacroAct.obj
 0001:00049aa0       ?resize@?$vector@U_Loop_vals_t@std@@V?$allocator@U_Loop_vals_t@std@@@2@@std@@QAEXI@Z 1004aaa0 f i MacroAct.obj
 0001:00049b10       ?_Reserve@?$vector@U_Grp_t@?$_Tgt_state_t@V?$_String_const_iterator@V?$_String_val@U?$_Simple_types@D@std@@@std@@@std@@@std@@V?$allocator@U_Grp_t@?$_Tgt_state_t@V?$_String_const_iterator@V?$_String_val@U?$_Simple_types@D@std@@@std@@@std@@@std@@@3@@std@@IAEXI@Z 1004ab10 f i MacroAct.obj
 0001:00049b10       ?_Reserve@?$vector@U_Loop_vals_t@std@@V?$allocator@U_Loop_vals_t@std@@@2@@std@@IAEXI@Z 1004ab10 f i MacroAct.obj
 0001:00049b90       ??0?$_Parser@V?$_String_const_iterator@V?$_String_val@U?$_Simple_types@D@std@@@std@@@std@@DV?$regex_traits@D@2@@std@@QAE@ABV?$regex_traits@D@1@V?$_String_const_iterator@V?$_String_val@U?$_Simple_types@D@std@@@std@@@1@1W4syntax_option_type@regex_constants@1@@Z 1004ab90 f i MacroAct.obj
 0001:00049c70       ?_Compile@?$_Parser@V?$_String_const_iterator@V?$_String_val@U?$_Simple_types@D@std@@@std@@@std@@DV?$regex_traits@D@2@@std@@QAEPAV_Root_node@2@XZ 1004ac70 f i MacroAct.obj
 0001:00049d30       ??$_Match@V?$allocator@V?$sub_match@V?$_String_const_iterator@V?$_String_val@U?$_Simple_types@D@std@@@std@@@std@@@std@@@std@@@?$_Matcher@V?$_String_const_iterator@V?$_String_val@U?$_Simple_types@D@std@@@std@@@std@@DV?$regex_traits@D@2@V12@@std@@QAE_NPAV?$match_results@V?$_String_const_iterator@V?$_String_val@U?$_Simple_types@D@std@@@std@@@std@@V?$allocator@V?$sub_match@V?$_String_const_iterator@V?$_String_val@U?$_Simple_types@D@std@@@std@@@std@@@std@@@2@@1@_N@Z 1004ad30 f i MacroAct.obj
 0001:00049e80       ?_Trans@?$_Parser@V?$_String_const_iterator@V?$_String_val@U?$_Simple_types@D@std@@@std@@@std@@DV?$regex_traits@D@2@@std@@AAEXXZ 1004ae80 f i MacroAct.obj
 0001:00049e80       ?_Trans@?$_Parser@PBDDV?$regex_traits@D@std@@@std@@AAEXXZ 1004ae80 f i MacroAct.obj
 0001:0004a030       ?_Disjunction@?$_Parser@PBDDV?$regex_traits@D@std@@@std@@AAEXXZ 1004b030 f i MacroAct.obj
 0001:0004a150       ??0?$_Builder@PBDDV?$regex_traits@D@std@@@std@@QAE@ABV?$regex_traits@D@1@W4syntax_option_type@regex_constants@1@@Z 1004b150 f i MacroAct.obj
 0001:0004a150       ??0?$_Builder@V?$_String_const_iterator@V?$_String_val@U?$_Simple_types@D@std@@@std@@@std@@DV?$regex_traits@D@2@@std@@QAE@ABV?$regex_traits@D@1@W4syntax_option_type@regex_constants@1@@Z 1004b150 f i MacroAct.obj
 0001:0004a1d0       ?_End_group@?$_Builder@V?$_String_const_iterator@V?$_String_val@U?$_Simple_types@D@std@@@std@@@std@@DV?$regex_traits@D@2@@std@@QAEXPAV_Node_base@2@@Z 1004b1d0 f i MacroAct.obj
 0001:0004a1d0       ?_End_group@?$_Builder@PBDDV?$regex_traits@D@std@@@std@@QAEXPAV_Node_base@2@@Z 1004b1d0 f i MacroAct.obj
 0001:0004a270       ?_Begin_capture_group@?$_Builder@V?$_String_const_iterator@V?$_String_val@U?$_Simple_types@D@std@@@std@@@std@@DV?$regex_traits@D@2@@std@@QAEPAV_Node_base@2@I@Z 1004b270 f i MacroAct.obj
 0001:0004a270       ?_Begin_capture_group@?$_Builder@PBDDV?$regex_traits@D@std@@@std@@QAEPAV_Node_base@2@I@Z 1004b270 f i MacroAct.obj
 0001:0004a2e0       ??4?$_Tgt_state_t@V?$_String_const_iterator@V?$_String_val@U?$_Simple_types@D@std@@@std@@@std@@@std@@QAEAAV01@ABV01@@Z 1004b2e0 f i MacroAct.obj
 0001:0004a320       ?resize@?$vector@_NV?$allocator@_N@std@@@std@@QAEXI_N@Z 1004b320 f i MacroAct.obj
 0001:0004a410       ??4?$vector@U_Grp_t@?$_Tgt_state_t@V?$_String_const_iterator@V?$_String_val@U?$_Simple_types@D@std@@@std@@@std@@@std@@V?$allocator@U_Grp_t@?$_Tgt_state_t@V?$_String_const_iterator@V?$_String_val@U?$_Simple_types@D@std@@@std@@@std@@@std@@@3@@std@@QAEAAV01@ABV01@@Z 1004b410 f i MacroAct.obj
 0001:0004a500       ?resize@?$vector@U_Grp_t@?$_Tgt_state_t@V?$_String_const_iterator@V?$_String_val@U?$_Simple_types@D@std@@@std@@@std@@@std@@V?$allocator@U_Grp_t@?$_Tgt_state_t@V?$_String_const_iterator@V?$_String_val@U?$_Simple_types@D@std@@@std@@@std@@@std@@@3@@std@@QAEXI@Z 1004b500 f i MacroAct.obj
 0001:0004a570       ?erase@?$vector@_NV?$allocator@_N@std@@@std@@QAE?AV?$_Vb_iterator@U?$_Wrap_alloc@V?$allocator@I@std@@@std@@@2@V?$_Vb_const_iterator@U?$_Wrap_alloc@V?$allocator@I@std@@@std@@@2@0@Z 1004b570 f i MacroAct.obj
 0001:0004a700       ?_Insert_n@?$vector@_NV?$allocator@_N@std@@@std@@QAE?AV?$_Vb_iterator@U?$_Wrap_alloc@V?$allocator@I@std@@@std@@@2@V?$_Vb_const_iterator@U?$_Wrap_alloc@V?$allocator@I@std@@@std@@@2@IAB_N@Z 1004b700 f i MacroAct.obj
 0001:0004a800       ?resize@?$vector@V?$sub_match@V?$_String_const_iterator@V?$_String_val@U?$_Simple_types@D@std@@@std@@@std@@@std@@V?$allocator@V?$sub_match@V?$_String_const_iterator@V?$_String_val@U?$_Simple_types@D@std@@@std@@@std@@@std@@@2@@std@@QAEXI@Z 1004b800 f i MacroAct.obj
 0001:0004a8b0       ?_Buy@?$vector@V?$Point@H$00@BWAPI@@V?$allocator@V?$Point@H$00@BWAPI@@@std@@@std@@IAE_NI@Z 1004b8b0 f i SquadData.obj
 0001:0004a8b0       ?_Buy@?$vector@U_Grp_t@?$_Tgt_state_t@V?$_String_const_iterator@V?$_String_val@U?$_Simple_types@D@std@@@std@@@std@@@std@@V?$allocator@U_Grp_t@?$_Tgt_state_t@V?$_String_const_iterator@V?$_String_val@U?$_Simple_types@D@std@@@std@@@std@@@std@@@3@@std@@IAE_NI@Z 1004b8b0 f i MacroAct.obj
 0001:0004a8b0       ?_Buy@?$vector@V?$Point@H$0CA@@BWAPI@@V?$allocator@V?$Point@H$0CA@@BWAPI@@@std@@@std@@IAE_NI@Z 1004b8b0 f i MapTools.obj
 0001:0004a920       ??H?$_Vb_iterator@U?$_Wrap_alloc@V?$allocator@I@std@@@std@@@std@@QBE?AV01@H@Z 1004b920 f i MacroAct.obj
 0001:0004a980       ?_Insert_x@?$vector@_NV?$allocator@_N@std@@@std@@QAEIV?$_Vb_const_iterator@U?$_Wrap_alloc@V?$allocator@I@std@@@std@@@2@I@Z 1004b980 f i MacroAct.obj
 0001:0004aab0       ?_Reserve@?$vector@V?$sub_match@V?$_String_const_iterator@V?$_String_val@U?$_Simple_types@D@std@@@std@@@std@@@std@@V?$allocator@V?$sub_match@V?$_String_const_iterator@V?$_String_val@U?$_Simple_types@D@std@@@std@@@std@@@std@@@2@@std@@IAEXI@Z 1004bab0 f i MacroAct.obj
 0001:0004ab50       ?resize@?$vector@IV?$allocator@_N@std@@@std@@QAEXIABI@Z 1004bb50 f i MacroAct.obj
 0001:0004abf0       ?_Reallocate@?$vector@V?$sub_match@V?$_String_const_iterator@V?$_String_val@U?$_Simple_types@D@std@@@std@@@std@@@std@@V?$allocator@V?$sub_match@V?$_String_const_iterator@V?$_String_val@U?$_Simple_types@D@std@@@std@@@std@@@std@@@2@@std@@IAEXI@Z 1004bbf0 f i MacroAct.obj
 0001:0004ac80       ?_Reserve@?$vector@IV?$allocator@_N@std@@@std@@IAEXI@Z 1004bc80 f i MacroAct.obj
 0001:0004ad00       ?_Disjunction@?$_Parser@V?$_String_const_iterator@V?$_String_val@U?$_Simple_types@D@std@@@std@@@std@@DV?$regex_traits@D@2@@std@@AAEXXZ 1004bd00 f i MacroAct.obj
 0001:0004ae20       ?_Match_pat@?$_Matcher@V?$_String_const_iterator@V?$_String_val@U?$_Simple_types@D@std@@@std@@@std@@DV?$regex_traits@D@2@V12@@std@@AAE_NPAV_Node_base@2@@Z 1004be20 f i MacroAct.obj
 0001:0004b300       ?_Is_esc@?$_Parser@PBDDV?$regex_traits@D@std@@@std@@ABE_NXZ 1004c300 f i MacroAct.obj
 0001:0004b300       ?_Is_esc@?$_Parser@V?$_String_const_iterator@V?$_String_val@U?$_Simple_types@D@std@@@std@@@std@@DV?$regex_traits@D@2@@std@@ABE_NXZ 1004c300 f i MacroAct.obj
 0001:0004b340       ?_Next@?$_Parser@PBDDV?$regex_traits@D@std@@@std@@AAEXXZ 1004c340 f i MacroAct.obj
 0001:0004b340       ?_Next@?$_Parser@V?$_String_const_iterator@V?$_String_val@U?$_Simple_types@D@std@@@std@@@std@@DV?$regex_traits@D@2@@std@@AAEXXZ 1004c340 f i MacroAct.obj
 0001:0004b390       ?_Alternative@?$_Parser@PBDDV?$regex_traits@D@std@@@std@@AAE_NXZ 1004c390 f i MacroAct.obj
 0001:0004b760       ?_Beg_expr@?$_Builder@V?$_String_const_iterator@V?$_String_val@U?$_Simple_types@D@std@@@std@@@std@@DV?$regex_traits@D@2@@std@@QBE_NXZ 1004c760 f i MacroAct.obj
 0001:0004b760       ?_Beg_expr@?$_Builder@PBDDV?$regex_traits@D@std@@@std@@QBE_NXZ 1004c760 f i MacroAct.obj
 0001:0004b7a0       ?_Begin_if@?$_Builder@PBDDV?$regex_traits@D@std@@@std@@QAEPAV_Node_base@2@PAV32@@Z 1004c7a0 f i MacroAct.obj
 0001:0004b7a0       ?_Begin_if@?$_Builder@V?$_String_const_iterator@V?$_String_val@U?$_Simple_types@D@std@@@std@@@std@@DV?$regex_traits@D@2@@std@@QAEPAV_Node_base@2@PAV32@@Z 1004c7a0 f i MacroAct.obj
 0001:0004b870       ?_Else_if@?$_Builder@PBDDV?$regex_traits@D@std@@@std@@QAEXPAV_Node_base@2@0@Z 1004c870 f i MacroAct.obj
 0001:0004b870       ?_Else_if@?$_Builder@V?$_String_const_iterator@V?$_String_val@U?$_Simple_types@D@std@@@std@@@std@@DV?$regex_traits@D@2@@std@@QAEXPAV_Node_base@2@0@Z 1004c870 f i MacroAct.obj
 0001:0004b910       ?_New_node@?$_Builder@V?$_String_const_iterator@V?$_String_val@U?$_Simple_types@D@std@@@std@@@std@@DV?$regex_traits@D@2@@std@@AAEPAV_Node_base@2@W4_Node_type@2@@Z 1004c910 f i MacroAct.obj
 0001:0004b910       ?_New_node@?$_Builder@PBDDV?$regex_traits@D@std@@@std@@AAEPAV_Node_base@2@W4_Node_type@2@@Z 1004c910 f i MacroAct.obj
 0001:0004b980       ??$_Uninit_def_fill_n@PAU_Loop_vals_t@std@@IV?$allocator@U_Loop_vals_t@std@@@2@U12@@std@@YAXPAU_Loop_vals_t@0@IAAU?$_Wrap_alloc@V?$allocator@U_Loop_vals_t@std@@@std@@@0@0U_Nonscalar_ptr_iterator_tag@0@@Z 1004c980 f i MacroAct.obj
 0001:0004b9a0       ??$_Copy_impl@PAU_Grp_t@?$_Tgt_state_t@V?$_String_const_iterator@V?$_String_val@U?$_Simple_types@D@std@@@std@@@std@@@std@@PAU123@@std@@YAPAU_Grp_t@?$_Tgt_state_t@V?$_String_const_iterator@V?$_String_val@U?$_Simple_types@D@std@@@std@@@std@@@0@PAU120@00@Z 1004c9a0 f i MacroAct.obj
 0001:0004b9d0       ?_Alternative@?$_Parser@V?$_String_const_iterator@V?$_String_val@U?$_Simple_types@D@std@@@std@@@std@@DV?$regex_traits@D@2@@std@@AAE_NXZ 1004c9d0 f i MacroAct.obj
 0001:0004bda0       ?_Do_if@?$_Matcher@V?$_String_const_iterator@V?$_String_val@U?$_Simple_types@D@std@@@std@@@std@@DV?$regex_traits@D@2@V12@@std@@AAE_NPAV_Node_if@2@@Z 1004cda0 f i MacroAct.obj
 0001:0004bf50       ?_Do_rep@?$_Matcher@V?$_String_const_iterator@V?$_String_val@U?$_Simple_types@D@std@@@std@@@std@@DV?$regex_traits@D@2@V12@@std@@AAE_NPAV_Node_rep@2@_NH@Z 1004cf50 f i MacroAct.obj
 0001:0004c1a0       ?_Do_class@?$_Matcher@V?$_String_const_iterator@V?$_String_val@U?$_Simple_types@D@std@@@std@@@std@@DV?$regex_traits@D@2@V12@@std@@AAE_NPAV_Node_base@2@@Z 1004d1a0 f i MacroAct.obj
 0001:0004c330       ?_Better_match@?$_Matcher@V?$_String_const_iterator@V?$_String_val@U?$_Simple_types@D@std@@@std@@@std@@DV?$regex_traits@D@2@V12@@std@@AAE_NXZ 1004d330 f i MacroAct.obj
 0001:0004c3d0       ??$_Compare@V?$_String_const_iterator@V?$_String_val@U?$_Simple_types@D@std@@@std@@@std@@PBDV?$regex_traits@D@2@@std@@YA?AV?$_String_const_iterator@V?$_String_val@U?$_Simple_types@D@std@@@std@@@0@V10@0PBD1ABV?$regex_traits@D@0@W4syntax_option_type@regex_constants@0@_N@Z 1004d3d0 f i MacroAct.obj
 0001:0004c450       ??$_Compare@V?$_String_const_iterator@V?$_String_val@U?$_Simple_types@D@std@@@std@@@std@@V12@V?$regex_traits@D@2@@std@@YA?AV?$_String_const_iterator@V?$_String_val@U?$_Simple_types@D@std@@@std@@@0@V10@000ABV?$regex_traits@D@0@W4syntax_option_type@regex_constants@0@_N@Z 1004d450 f i MacroAct.obj
 0001:0004c4e0       ?_Expect@?$_Parser@PBDDV?$regex_traits@D@std@@@std@@AAEXW4_Meta_type@2@W4error_type@regex_constants@2@@Z 1004d4e0 f i MacroAct.obj
 0001:0004c4e0       ?_Expect@?$_Parser@V?$_String_const_iterator@V?$_String_val@U?$_Simple_types@D@std@@@std@@@std@@DV?$regex_traits@D@2@@std@@AAEXW4_Meta_type@2@W4error_type@regex_constants@2@@Z 1004d4e0 f i MacroAct.obj
 0001:0004c540       ?_CharacterClass@?$_Parser@PBDDV?$regex_traits@D@std@@@std@@AAEXXZ 1004d540 f i MacroAct.obj
 0001:0004c5f0       ?_AtomEscape@?$_Parser@PBDDV?$regex_traits@D@std@@@std@@AAEXXZ 1004d5f0 f i MacroAct.obj
 0001:0004c6b0       ?_Wrapped_disjunction@?$_Parser@PBDDV?$regex_traits@D@std@@@std@@AAE_NXZ 1004d6b0 f i MacroAct.obj
 0001:0004c760       ?_Quantifier@?$_Parser@V?$_String_const_iterator@V?$_String_val@U?$_Simple_types@D@std@@@std@@@std@@DV?$regex_traits@D@2@@std@@AAEXXZ 1004d760 f i MacroAct.obj
 0001:0004c760       ?_Quantifier@?$_Parser@PBDDV?$regex_traits@D@std@@@std@@AAEXXZ 1004d760 f i MacroAct.obj
 0001:0004c890       ?_Add_char@?$_Builder@V?$_String_const_iterator@V?$_String_val@U?$_Simple_types@D@std@@@std@@@std@@DV?$regex_traits@D@2@@std@@QAEXD@Z 1004d890 f i MacroAct.obj
 0001:0004c890       ?_Add_char@?$_Builder@PBDDV?$regex_traits@D@std@@@std@@QAEXD@Z 1004d890 f i MacroAct.obj
 0001:0004c920       ??$_Uninit_def_fill_n@PAU_Grp_t@?$_Tgt_state_t@V?$_String_const_iterator@V?$_String_val@U?$_Simple_types@D@std@@@std@@@std@@@std@@IV?$allocator@U_Grp_t@?$_Tgt_state_t@V?$_String_const_iterator@V?$_String_val@U?$_Simple_types@D@std@@@std@@@std@@@std@@@3@U123@@std@@YAXPAU_Grp_t@?$_Tgt_state_t@V?$_String_const_iterator@V?$_String_val@U?$_Simple_types@D@std@@@std@@@std@@@0@IAAU?$_Wrap_alloc@V?$allocator@U_Grp_t@?$_Tgt_state_t@V?$_String_const_iterator@V?$_String_val@U?$_Simple_types@D@std@@@std@@@std@@@std@@@std@@@0@0U_Nonscalar_ptr_iterator_tag@0@@Z 1004d920 f i MacroAct.obj
 0001:0004c940       ??$_Fill@V?$_Vb_iterator@U?$_Wrap_alloc@V?$allocator@I@std@@@std@@@std@@_N@std@@YAXV?$_Vb_iterator@U?$_Wrap_alloc@V?$allocator@I@std@@@std@@@0@0AB_N@Z 1004d940 f i MacroAct.obj
 0001:0004c990       ??$_Uninit_def_fill_n@PAV?$sub_match@V?$_String_const_iterator@V?$_String_val@U?$_Simple_types@D@std@@@std@@@std@@@std@@IV?$allocator@V?$sub_match@V?$_String_const_iterator@V?$_String_val@U?$_Simple_types@D@std@@@std@@@std@@@std@@@2@V12@@std@@YAXPAV?$sub_match@V?$_String_const_iterator@V?$_String_val@U?$_Simple_types@D@std@@@std@@@std@@@0@IAAU?$_Wrap_alloc@V?$allocator@V?$sub_match@V?$_String_const_iterator@V?$_String_val@U?$_Simple_types@D@std@@@std@@@std@@@std@@@std@@@0@0U_Nonscalar_ptr_iterator_tag@0@@Z 1004d990 f i MacroAct.obj
 0001:0004c9b0       ?translate@?$_Regex_traits@D@std@@QBEDD@Z 1004d9b0 f i MacroAct.obj
 0001:0004ca80       ?translate_nocase@?$_Regex_traits@D@std@@QBEDD@Z 1004da80 f i MacroAct.obj
 0001:0004cb10       ?isctype@?$_Regex_traits@D@std@@QBE_NDF@Z 1004db10 f i MacroAct.obj
 0001:0004cc00       ??0?$vector@V?$Point@H$0CA@@BWAPI@@V?$allocator@V?$Point@H$0CA@@BWAPI@@@std@@@std@@QAE@ABV01@@Z 1004dc00 f i MapTools.obj
 0001:0004cc00       ??0?$vector@U_Grp_t@?$_Tgt_state_t@V?$_String_const_iterator@V?$_String_val@U?$_Simple_types@D@std@@@std@@@std@@@std@@V?$allocator@U_Grp_t@?$_Tgt_state_t@V?$_String_const_iterator@V?$_String_val@U?$_Simple_types@D@std@@@std@@@std@@@std@@@3@@std@@QAE@ABV01@@Z 1004dc00 f i MacroAct.obj
 0001:0004cc00       ??0?$vector@V?$Point@H$00@BWAPI@@V?$allocator@V?$Point@H$00@BWAPI@@@std@@@std@@QAE@ABV01@@Z 1004dc00 f i SquadData.obj
 0001:0004cc50       ??1?$_Node_class@DV?$regex_traits@D@std@@@std@@UAE@XZ 1004dc50 f i MacroAct.obj
 0001:0004cd10       ??_G?$_Node_class@DV?$regex_traits@D@std@@@std@@UAEPAXI@Z 1004dd10 f i MacroAct.obj
 0001:0004cd10       ??_E?$_Node_class@DV?$regex_traits@D@std@@@std@@UAEPAXI@Z 1004dd10 f i * CIL library *:* CIL module *
 0001:0004cd40       ?transform@?$collate@D@std@@QBE?AV?$basic_string@DU?$char_traits@D@std@@V?$allocator@D@2@@2@PBD0@Z 1004dd40 f i MacroAct.obj
 0001:0004cd70       ?_Getctype@?$_Regex_traits@D@std@@QBEPBV?$ctype@D@2@XZ 1004dd70 f i MacroAct.obj
 0001:0004cdf0       ?getloc@?$_Regex_traits@D@std@@QBE?AVlocale@2@XZ 1004ddf0 f i MacroAct.obj
 0001:0004ce10       ?_CharacterClass@?$_Parser@V?$_String_const_iterator@V?$_String_val@U?$_Simple_types@D@std@@@std@@@std@@DV?$regex_traits@D@2@@std@@AAEXXZ 1004de10 f i MacroAct.obj
 0001:0004cec0       ?_AtomEscape@?$_Parser@V?$_String_const_iterator@V?$_String_val@U?$_Simple_types@D@std@@@std@@@std@@DV?$regex_traits@D@2@@std@@AAEXXZ 1004dec0 f i MacroAct.obj
 0001:0004cf80       ?_Wrapped_disjunction@?$_Parser@V?$_String_const_iterator@V?$_String_val@U?$_Simple_types@D@std@@@std@@@std@@DV?$regex_traits@D@2@@std@@AAE_NXZ 1004df80 f i MacroAct.obj
 0001:0004d030       ?_Do_rep0@?$_Matcher@V?$_String_const_iterator@V?$_String_val@U?$_Simple_types@D@std@@@std@@@std@@DV?$regex_traits@D@2@V12@@std@@AAE_NPAV_Node_rep@2@_N@Z 1004e030 f i MacroAct.obj
 0001:0004d290       ??$_Lookup_coll@V?$_String_const_iterator@V?$_String_val@U?$_Simple_types@D@std@@@std@@@std@@D@std@@YA?AV?$_String_const_iterator@V?$_String_val@U?$_Simple_types@D@std@@@std@@@0@V10@0PBU?$_Sequence@D@0@@Z 1004e290 f i MacroAct.obj
 0001:0004d330       ??$_Lookup_equiv@DV?$regex_traits@D@std@@@std@@YA_NDPBU?$_Sequence@D@0@ABV?$regex_traits@D@0@@Z 1004e330 f i MacroAct.obj
 0001:0004d5d0       ??$_Cmp_chrange@V?$_String_const_iterator@V?$_String_val@U?$_Simple_types@D@std@@@std@@@std@@PBDU?$_Cmp_icase@V?$regex_traits@D@std@@@2@@std@@YA?AV?$_String_const_iterator@V?$_String_val@U?$_Simple_types@D@std@@@std@@@0@V10@0PBD1U?$_Cmp_icase@V?$regex_traits@D@std@@@0@_N@Z 1004e5d0 f i MacroAct.obj
 0001:0004d660       ??$_Cmp_chrange@V?$_String_const_iterator@V?$_String_val@U?$_Simple_types@D@std@@@std@@@std@@PBDU?$_Cmp_collate@V?$regex_traits@D@std@@@2@@std@@YA?AV?$_String_const_iterator@V?$_String_val@U?$_Simple_types@D@std@@@std@@@0@V10@0PBD1U?$_Cmp_collate@V?$regex_traits@D@std@@@0@_N@Z 1004e660 f i MacroAct.obj
 0001:0004d710       ??$_Cmp_chrange@V?$_String_const_iterator@V?$_String_val@U?$_Simple_types@D@std@@@std@@@std@@PBDU?$_Cmp_cs@V?$regex_traits@D@std@@@2@@std@@YA?AV?$_String_const_iterator@V?$_String_val@U?$_Simple_types@D@std@@@std@@@0@V10@0PBD1U?$_Cmp_cs@V?$regex_traits@D@std@@@0@_N@Z 1004e710 f i MacroAct.obj
 0001:0004d790       ??$_Cmp_chrange@V?$_String_const_iterator@V?$_String_val@U?$_Simple_types@D@std@@@std@@@std@@V12@U?$_Cmp_icase@V?$regex_traits@D@std@@@2@@std@@YA?AV?$_String_const_iterator@V?$_String_val@U?$_Simple_types@D@std@@@std@@@0@V10@000U?$_Cmp_icase@V?$regex_traits@D@std@@@0@_N@Z 1004e790 f i MacroAct.obj
 0001:0004d830       ??$_Cmp_chrange@V?$_String_const_iterator@V?$_String_val@U?$_Simple_types@D@std@@@std@@@std@@V12@U?$_Cmp_collate@V?$regex_traits@D@std@@@2@@std@@YA?AV?$_String_const_iterator@V?$_String_val@U?$_Simple_types@D@std@@@std@@@0@V10@000U?$_Cmp_collate@V?$regex_traits@D@std@@@0@_N@Z 1004e830 f i MacroAct.obj
 0001:0004d8e0       ??$_Cmp_chrange@V?$_String_const_iterator@V?$_String_val@U?$_Simple_types@D@std@@@std@@@std@@V12@U?$_Cmp_cs@V?$regex_traits@D@std@@@2@@std@@YA?AV?$_String_const_iterator@V?$_String_val@U?$_Simple_types@D@std@@@std@@@0@V10@000U?$_Cmp_cs@V?$regex_traits@D@std@@@0@_N@Z 1004e8e0 f i MacroAct.obj
 0001:0004d960       ?_DecimalDigits@?$_Parser@PBDDV?$regex_traits@D@std@@@std@@AAE_NXZ 1004e960 f i MacroAct.obj
 0001:0004d960       ?_DecimalDigits@?$_Parser@V?$_String_const_iterator@V?$_String_val@U?$_Simple_types@D@std@@@std@@@std@@DV?$regex_traits@D@2@@std@@AAE_NXZ 1004e960 f i MacroAct.obj
 0001:0004d980       ?_CharacterClassEscape@?$_Parser@PBDDV?$regex_traits@D@std@@@std@@AAE_N_N@Z 1004e980 f i MacroAct.obj
 0001:0004da10       ?_ClassRanges@?$_Parser@PBDDV?$regex_traits@D@std@@@std@@AAEXXZ 1004ea10 f i MacroAct.obj
 0001:0004dba0       ?_CharacterEscape@?$_Parser@V?$_String_const_iterator@V?$_String_val@U?$_Simple_types@D@std@@@std@@@std@@DV?$regex_traits@D@2@@std@@AAE_NXZ 1004eba0 f i MacroAct.obj
 0001:0004dba0       ?_CharacterEscape@?$_Parser@PBDDV?$regex_traits@D@std@@@std@@AAE_NXZ 1004eba0 f i MacroAct.obj
 0001:0004dcf0       ?_Do_capture_group@?$_Parser@PBDDV?$regex_traits@D@std@@@std@@AAEXXZ 1004ecf0 f i MacroAct.obj
 0001:0004dd50       ?_Do_assert_group@?$_Parser@PBDDV?$regex_traits@D@std@@@std@@AAEX_N@Z 1004ed50 f i MacroAct.obj
 0001:0004dd80       ?_Add_class@?$_Builder@V?$_String_const_iterator@V?$_String_val@U?$_Simple_types@D@std@@@std@@@std@@DV?$regex_traits@D@2@@std@@QAEXXZ 1004ed80 f i MacroAct.obj
 0001:0004dd80       ?_Add_class@?$_Builder@PBDDV?$regex_traits@D@std@@@std@@QAEXXZ 1004ed80 f i MacroAct.obj
 0001:0004de10       ?_Add_backreference@?$_Builder@PBDDV?$regex_traits@D@std@@@std@@QAEXI@Z 1004ee10 f i MacroAct.obj
 0001:0004de10       ?_Add_backreference@?$_Builder@V?$_String_const_iterator@V?$_String_val@U?$_Simple_types@D@std@@@std@@@std@@DV?$regex_traits@D@2@@std@@QAEXI@Z 1004ee10 f i MacroAct.obj
 0001:0004de80       ?_Add_rep@?$_Builder@V?$_String_const_iterator@V?$_String_val@U?$_Simple_types@D@std@@@std@@@std@@DV?$regex_traits@D@2@@std@@QAEXHH_N@Z 1004ee80 f i MacroAct.obj
 0001:0004de80       ?_Add_rep@?$_Builder@PBDDV?$regex_traits@D@std@@@std@@QAEXHH_N@Z 1004ee80 f i MacroAct.obj
 0001:0004dfc0       ?_Add_str_node@?$_Builder@PBDDV?$regex_traits@D@std@@@std@@AAEXXZ 1004efc0 f i MacroAct.obj
 0001:0004dfc0       ?_Add_str_node@?$_Builder@V?$_String_const_iterator@V?$_String_val@U?$_Simple_types@D@std@@@std@@@std@@DV?$regex_traits@D@2@@std@@AAEXXZ 1004efc0 f i MacroAct.obj
 0001:0004e040       ??$_Copy_impl@V?$_Vb_iterator@U?$_Wrap_alloc@V?$allocator@I@std@@@std@@@std@@V12@@std@@YA?AV?$_Vb_iterator@U?$_Wrap_alloc@V?$allocator@I@std@@@std@@@0@V10@00U_Nonscalar_ptr_iterator_tag@0@@Z 1004f040 f i MacroAct.obj
 0001:0004e0c0       ??$_Copy_backward@V?$_Vb_iterator@U?$_Wrap_alloc@V?$allocator@I@std@@@std@@@std@@V12@@std@@YA?AV?$_Vb_iterator@U?$_Wrap_alloc@V?$allocator@I@std@@@std@@@0@V10@00U_Nonscalar_ptr_iterator_tag@0@@Z 1004f0c0 f i MacroAct.obj
 0001:0004e150       ??$use_facet@V?$collate@D@std@@@std@@YAABV?$collate@D@0@ABVlocale@0@@Z 1004f150 f i MacroAct.obj
 0001:0004e240       ?_Getcat@?$collate@D@std@@SAIPAPBVfacet@locale@2@PBV42@@Z 1004f240 f i MacroAct.obj
 0001:0004e330       ??R?$_Cmp_icase@V?$regex_traits@D@std@@@std@@QAE_NDD@Z 1004f330 f i MacroAct.obj
 0001:0004e330       ??R?$_Cmp_icase@V?$_Regex_traits@D@std@@@std@@QAE_NDD@Z 1004f330 f i MacroAct.obj
 0001:0004e420       ??_E?$_Node_str@D@std@@UAEPAXI@Z 1004f420 f i * CIL library *:* CIL module *
 0001:0004e420       ??_G?$_Node_str@D@std@@UAEPAXI@Z 1004f420 f i MacroAct.obj
 0001:0004e450       ??0?$collate@D@std@@QAE@ABV_Locinfo@1@I@Z 1004f450 f i MacroAct.obj
 0001:0004e4c0       ?_CharacterClassEscape@?$_Parser@V?$_String_const_iterator@V?$_String_val@U?$_Simple_types@D@std@@@std@@@std@@DV?$regex_traits@D@2@@std@@AAE_N_N@Z 1004f4c0 f i MacroAct.obj
 0001:0004e540       ?_ClassRanges@?$_Parser@V?$_String_const_iterator@V?$_String_val@U?$_Simple_types@D@std@@@std@@@std@@DV?$regex_traits@D@2@@std@@AAEXXZ 1004f540 f i MacroAct.obj
 0001:0004e6d0       ?_Do_capture_group@?$_Parser@V?$_String_const_iterator@V?$_String_val@U?$_Simple_types@D@std@@@std@@@std@@DV?$regex_traits@D@2@@std@@AAEXXZ 1004f6d0 f i MacroAct.obj
 0001:0004e730       ?_Do_assert_group@?$_Parser@V?$_String_const_iterator@V?$_String_val@U?$_Simple_types@D@std@@@std@@@std@@DV?$regex_traits@D@2@@std@@AAEX_N@Z 1004f730 f i MacroAct.obj
 0001:0004e760       ??$transform_primary@V?$_String_iterator@V?$_String_val@U?$_Simple_types@D@std@@@std@@@std@@@?$_Regex_traits@D@std@@QBE?AV?$basic_string@DU?$char_traits@D@std@@V?$allocator@D@2@@1@V?$_String_iterator@V?$_String_val@U?$_Simple_types@D@std@@@std@@@1@0@Z 1004f760 f i MacroAct.obj
 0001:0004e760       ??$transform_primary@V?$_String_const_iterator@V?$_String_val@U?$_Simple_types@D@std@@@std@@@std@@@?$_Regex_traits@D@std@@QBE?AV?$basic_string@DU?$char_traits@D@std@@V?$allocator@D@2@@1@V?$_String_const_iterator@V?$_String_val@U?$_Simple_types@D@std@@@std@@@1@0@Z 1004f760 f i MacroAct.obj
 0001:0004e900       ?_Do_digits@?$_Parser@PBDDV?$regex_traits@D@std@@@std@@AAEHHH@Z 1004f900 f i MacroAct.obj
 0001:0004e900       ?_Do_digits@?$_Parser@V?$_String_const_iterator@V?$_String_val@U?$_Simple_types@D@std@@@std@@@std@@DV?$regex_traits@D@2@@std@@AAEHHH@Z 1004f900 f i MacroAct.obj
 0001:0004e9e0       ?_ClassAtom@?$_Parser@PBDDV?$regex_traits@D@std@@@std@@AAE?AW4_Prs_ret@2@XZ 1004f9e0 f i MacroAct.obj
 0001:0004eb00       ?_IdentityEscape@?$_Parser@PBDDV?$regex_traits@D@std@@@std@@AAE_NXZ 1004fb00 f i MacroAct.obj
 0001:0004eb00       ?_IdentityEscape@?$_Parser@V?$_String_const_iterator@V?$_String_val@U?$_Simple_types@D@std@@@std@@@std@@DV?$regex_traits@D@2@@std@@AAE_NXZ 1004fb00 f i MacroAct.obj
 0001:0004ebe0       ?_Do_ffn@?$_Parser@PBDDV?$regex_traits@D@std@@@std@@AAE_ND@Z 1004fbe0 f i MacroAct.obj
 0001:0004ebe0       ?_Do_ffn@?$_Parser@V?$_String_const_iterator@V?$_String_val@U?$_Simple_types@D@std@@@std@@@std@@DV?$regex_traits@D@2@@std@@AAE_ND@Z 1004fbe0 f i MacroAct.obj
 0001:0004ec60       ??$lookup_classname@PBD@?$_Regex_traits@D@std@@QBEFPBD0_N@Z 1004fc60 f i MacroAct.obj
 0001:0004ed10       ?_Add_range@?$_Builder@V?$_String_const_iterator@V?$_String_val@U?$_Simple_types@D@std@@@std@@@std@@DV?$regex_traits@D@2@@std@@QAEXDD@Z 1004fd10 f i MacroAct.obj
 0001:0004ed10       ?_Add_range@?$_Builder@PBDDV?$regex_traits@D@std@@@std@@QAEXDD@Z 1004fd10 f i MacroAct.obj
 0001:0004eea0       ?_Begin_assert_group@?$_Builder@PBDDV?$regex_traits@D@std@@@std@@QAEPAV_Node_base@2@_N@Z 1004fea0 f i MacroAct.obj
 0001:0004eea0       ?_Begin_assert_group@?$_Builder@V?$_String_const_iterator@V?$_String_val@U?$_Simple_types@D@std@@@std@@@std@@DV?$regex_traits@D@2@@std@@QAEPAV_Node_base@2@_N@Z 1004fea0 f i MacroAct.obj
 0001:0004efb0       ?_Add_char_to_bitmap@?$_Builder@V?$_String_const_iterator@V?$_String_val@U?$_Simple_types@D@std@@@std@@@std@@DV?$regex_traits@D@2@@std@@AAEXD@Z 1004ffb0 f i MacroAct.obj
 0001:0004efb0       ?_Add_char_to_bitmap@?$_Builder@PBDDV?$regex_traits@D@std@@@std@@AAEXD@Z 1004ffb0 f i MacroAct.obj
 0001:0004f020       ?_Add_char_to_array@?$_Builder@PBDDV?$regex_traits@D@std@@@std@@AAEXD@Z 10050020 f i MacroAct.obj
 0001:0004f020       ?_Add_char_to_array@?$_Builder@V?$_String_const_iterator@V?$_String_val@U?$_Simple_types@D@std@@@std@@@std@@DV?$regex_traits@D@2@@std@@AAEXD@Z 10050020 f i MacroAct.obj
 0001:0004f0c0       ??$_Uninit_move@PAV?$sub_match@V?$_String_const_iterator@V?$_String_val@U?$_Simple_types@D@std@@@std@@@std@@@std@@PAV12@V?$allocator@V?$sub_match@V?$_String_const_iterator@V?$_String_val@U?$_Simple_types@D@std@@@std@@@std@@@std@@@2@V12@@std@@YAPAV?$sub_match@V?$_String_const_iterator@V?$_String_val@U?$_Simple_types@D@std@@@std@@@std@@@0@PAV10@00AAU?$_Wrap_alloc@V?$allocator@V?$sub_match@V?$_String_const_iterator@V?$_String_val@U?$_Simple_types@D@std@@@std@@@std@@@std@@@std@@@0@0U_Nonscalar_ptr_iterator_tag@0@@Z 100500c0 f i MacroAct.obj
 0001:0004f0f0       ?_ClassAtom@?$_Parser@V?$_String_const_iterator@V?$_String_val@U?$_Simple_types@D@std@@@std@@@std@@DV?$regex_traits@D@2@@std@@AAE?AW4_Prs_ret@2@XZ 100500f0 f i MacroAct.obj
 0001:0004f210       ??$lookup_classname@V?$_String_const_iterator@V?$_String_val@U?$_Simple_types@D@std@@@std@@@std@@@?$_Regex_traits@D@std@@QBEFV?$_String_const_iterator@V?$_String_val@U?$_Simple_types@D@std@@@std@@@1@0_N@Z 10050210 f i MacroAct.obj
 0001:0004f2d0       ?_Do_ex_class@?$_Parser@PBDDV?$regex_traits@D@std@@@std@@AAEXW4_Meta_type@2@@Z 100502d0 f i MacroAct.obj
 0001:0004f420       ?_ClassEscape@?$_Parser@PBDDV?$regex_traits@D@std@@@std@@AAE?AW4_Prs_ret@2@_N@Z 10050420 f i MacroAct.obj
 0001:0004f4a0       ?_Add_elts@?$_Builder@V?$_String_const_iterator@V?$_String_val@U?$_Simple_types@D@std@@@std@@@std@@DV?$regex_traits@D@2@@std@@AAEXPAV?$_Node_class@DV?$regex_traits@D@std@@@2@FABV?$regex_traits@D@2@@Z 100504a0 f i MacroAct.obj
 0001:0004f4a0       ?_Add_elts@?$_Builder@PBDDV?$regex_traits@D@std@@@std@@AAEXPAV?$_Node_class@DV?$regex_traits@D@std@@@2@FABV?$regex_traits@D@2@@Z 100504a0 f i MacroAct.obj
 0001:0004f510       ?_Do_ex_class@?$_Parser@V?$_String_const_iterator@V?$_String_val@U?$_Simple_types@D@std@@@std@@@std@@DV?$regex_traits@D@2@@std@@AAEXW4_Meta_type@2@@Z 10050510 f i MacroAct.obj
 0001:0004f670       ?_ClassEscape@?$_Parser@V?$_String_const_iterator@V?$_String_val@U?$_Simple_types@D@std@@@std@@@std@@DV?$regex_traits@D@2@@std@@AAE?AW4_Prs_ret@2@_N@Z 10050670 f i MacroAct.obj
 0001:0004f6f0       ?_Add_equiv@?$_Builder@PBDDV?$regex_traits@D@std@@@std@@QAEXPBD0H@Z 100506f0 f i MacroAct.obj
 0001:0004f890       ?_Add_equiv@?$_Builder@V?$_String_const_iterator@V?$_String_val@U?$_Simple_types@D@std@@@std@@@std@@DV?$regex_traits@D@2@@std@@QAEXV?$_String_const_iterator@V?$_String_val@U?$_Simple_types@D@std@@@std@@@2@0H@Z 10050890 f i MacroAct.obj
 0001:0004fa30       ??$_Construct@V?$_String_iterator@V?$_String_val@U?$_Simple_types@D@std@@@std@@@std@@@?$vector@DV?$allocator@D@std@@@std@@QAEXV?$_String_iterator@V?$_String_val@U?$_Simple_types@D@std@@@std@@@1@0Uforward_iterator_tag@1@@Z 10050a30 f i MacroAct.obj
 0001:0004fa30       ??$_Construct@V?$_String_const_iterator@V?$_String_val@U?$_Simple_types@D@std@@@std@@@std@@@?$vector@DV?$allocator@D@std@@@std@@QAEXV?$_String_const_iterator@V?$_String_val@U?$_Simple_types@D@std@@@std@@@1@0Uforward_iterator_tag@1@@Z 10050a30 f i MacroAct.obj
 0001:0004fa70       ?_Char_to_elts@?$_Builder@PBDDV?$regex_traits@D@std@@@std@@AAEXPBD0HPAPAU?$_Sequence@D@2@@Z 10050a70 f i MacroAct.obj
 0001:0004faf0       ??$transform_primary@PBD@?$_Regex_traits@D@std@@QBE?AV?$basic_string@DU?$char_traits@D@std@@V?$allocator@D@2@@1@PBD0@Z 10050af0 f i MacroAct.obj
 0001:0004faf0       ??$transform_primary@PAD@?$_Regex_traits@D@std@@QBE?AV?$basic_string@DU?$char_traits@D@std@@V?$allocator@D@2@@1@PAD0@Z 10050af0 f i MacroAct.obj
 0001:0004fc90       ?_Buy@?$vector@DV?$allocator@D@std@@@std@@IAE_NI@Z 10050c90 f i MacroAct.obj
 0001:0004fd00       ?_Char_to_elts@?$_Builder@V?$_String_const_iterator@V?$_String_val@U?$_Simple_types@D@std@@@std@@@std@@DV?$regex_traits@D@2@@std@@AAEXV?$_String_const_iterator@V?$_String_val@U?$_Simple_types@D@std@@@std@@@2@0HPAPAU?$_Sequence@D@2@@Z 10050d00 f i MacroAct.obj
 0001:0004fd80       ??$_Insert@PBD@?$_Buf@D@std@@QAEXPBD0@Z 10050d80 f i MacroAct.obj
 0001:0004fde0       ??$_Insert@V?$_String_const_iterator@V?$_String_val@U?$_Simple_types@D@std@@@std@@@std@@@?$_Buf@D@std@@QAEXV?$_String_const_iterator@V?$_String_val@U?$_Simple_types@D@std@@@std@@@1@0@Z 10050de0 f i MacroAct.obj
 0001:0004fe40       ??$_Construct@PBD@?$vector@DV?$allocator@D@std@@@std@@QAEXPBD0Uforward_iterator_tag@1@@Z 10050e40 f i MacroAct.obj
 0001:0004fe40       ??$_Construct@PAD@?$vector@DV?$allocator@D@std@@@std@@QAEXPAD0Uforward_iterator_tag@1@@Z 10050e40 f i MacroAct.obj
 0001:0004fe80       ?Instance@MapGrid@UAlbertaBot@@SAAAV12@XZ 10050e80 f   MapGrid.obj
 0001:0004ff10       ??0MapGrid@UAlbertaBot@@AAE@HHH@Z 10050f10 f   MapGrid.obj
 0001:0004ffe0       ?getLeastExplored@MapGrid@UAlbertaBot@@QAE?AV?$Point@H$00@BWAPI@@_NHH@Z 10050fe0 f   MapGrid.obj
 0001:000502e0       ?calculateCellCenters@MapGrid@UAlbertaBot@@AAEXXZ 100512e0 f   MapGrid.obj
 0001:000503b0       ?clearGrid@MapGrid@UAlbertaBot@@AAEXXZ 100513b0 f   MapGrid.obj
 0001:000504f0       ?update@MapGrid@UAlbertaBot@@QAEXXZ 100514f0 f   MapGrid.obj
 0001:00050830       ?getUnits@MapGrid@UAlbertaBot@@QAEXAAVUnitset@BWAPI@@V?$Point@H$00@4@H_N2@Z 10051830 f   MapGrid.obj
 0001:000509e0       ??0?$vector@VGridCell@UAlbertaBot@@V?$allocator@VGridCell@UAlbertaBot@@@std@@@std@@QAE@I@Z 100519e0 f i MapGrid.obj
 0001:00050a80       ?_Buy@?$vector@VGridCell@UAlbertaBot@@V?$allocator@VGridCell@UAlbertaBot@@@std@@@std@@IAE_NI@Z 10051a80 f i MapGrid.obj
 0001:00050af0       ?_Tidy@?$vector@VGridCell@UAlbertaBot@@V?$allocator@VGridCell@UAlbertaBot@@@std@@@std@@IAEXXZ 10051af0 f i MapGrid.obj
 0001:00050b30       ??$_Uninit_def_fill_n@PAVGridCell@UAlbertaBot@@IV?$allocator@VGridCell@UAlbertaBot@@@std@@V12@@std@@YAXPAVGridCell@UAlbertaBot@@IAAU?$_Wrap_alloc@V?$allocator@VGridCell@UAlbertaBot@@@std@@@0@0U_Nonscalar_ptr_iterator_tag@0@@Z 10051b30 f i MapGrid.obj
 0001:00050ce0       ??$_Destroy_range@U?$_Wrap_alloc@V?$allocator@VGridCell@UAlbertaBot@@@std@@@std@@@std@@YAXPAVGridCell@UAlbertaBot@@0AAU?$_Wrap_alloc@V?$allocator@VGridCell@UAlbertaBot@@@std@@@0@U_Nonscalar_ptr_iterator_tag@0@@Z 10051ce0 f i MapGrid.obj
 0001:00050dc0       ?findUnwalkability@MapPartitions@UAlbertaBot@@AAEXXZ 10051dc0 f   MapPartitions.obj
 0001:00051150       ?markOnePartition@MapPartitions@UAlbertaBot@@AAEXABV?$Point@H$07@BWAPI@@@Z 10052150 f   MapPartitions.obj
 0001:000513e0       ?initialize@MapPartitions@UAlbertaBot@@QAEXXZ 100523e0 f   MapPartitions.obj
 0001:00051580       ?id@MapPartitions@UAlbertaBot@@QBEHABV?$Point@H$00@BWAPI@@@Z 10052580 f   MapPartitions.obj
 0001:000515e0       ?Instance@MapTools@UAlbertaBot@@SAAAV12@XZ 100525e0 f   MapTools.obj
 0001:00051640       ??1MapTools@UAlbertaBot@@QAE@XZ 10052640 f i MapTools.obj
 0001:00051780       ??1?$map@V?$Point@H$0CA@@BWAPI@@VGridDistances@UAlbertaBot@@U?$less@V?$Point@H$0CA@@BWAPI@@@std@@V?$allocator@U?$pair@$$CBV?$Point@H$0CA@@BWAPI@@VGridDistances@UAlbertaBot@@@std@@@6@@std@@QAE@XZ 10052780 f i MapTools.obj
 0001:000517b0       ??0MapTools@UAlbertaBot@@QAE@XZ 100527b0 f   MapTools.obj
 0001:00051980       ?setBWAPIMapData@MapTools@UAlbertaBot@@AAEXXZ 10052980 f   MapTools.obj
 0001:00052220       ?getGroundTileDistance@MapTools@UAlbertaBot@@QAEHV?$Point@H$0CA@@BWAPI@@0@Z 10053220 f   MapTools.obj
 0001:00052390       ??1?$pair@V?$Point@H$0CA@@BWAPI@@VGridDistances@UAlbertaBot@@@std@@QAE@XZ 10053390 f i MapTools.obj
 0001:000523a0       ?getGroundTileDistance@MapTools@UAlbertaBot@@QAEHV?$Point@H$00@BWAPI@@0@Z 100533a0 f   MapTools.obj
 0001:000523f0       ?getGroundDistance@MapTools@UAlbertaBot@@QAEHV?$Point@H$00@BWAPI@@0@Z 100533f0 f   MapTools.obj
 0001:00052450       ?isBuildable@MapTools@UAlbertaBot@@QBE_NV?$Point@H$0CA@@BWAPI@@VUnitType@4@@Z 10053450 f   MapTools.obj
 0001:000525a0       ?drawHomeDistances@MapTools@UAlbertaBot@@QAEXXZ 100535a0 f   MapTools.obj
 0001:000527d0       ?nextExpansion@MapTools@UAlbertaBot@@AAEPAVBase@2@_N00@Z 100537d0 f   MapTools.obj
 0001:000530a0       ?getNextExpansion@MapTools@UAlbertaBot@@QAE?AV?$Point@H$0CA@@BWAPI@@_N00@Z 100540a0 f   MapTools.obj
 0001:000530e0       ??A?$map@V?$Point@H$0CA@@BWAPI@@VGridDistances@UAlbertaBot@@U?$less@V?$Point@H$0CA@@BWAPI@@@std@@V?$allocator@U?$pair@$$CBV?$Point@H$0CA@@BWAPI@@VGridDistances@UAlbertaBot@@@std@@@6@@std@@QAEAAVGridDistances@UAlbertaBot@@ABV?$Point@H$0CA@@BWAPI@@@Z 100540e0 f i MapTools.obj
 0001:00053180       ?find@?$_Tree@V?$_Tmap_traits@V?$Point@H$0CA@@BWAPI@@VGridDistances@UAlbertaBot@@U?$less@V?$Point@H$0CA@@BWAPI@@@std@@V?$allocator@U?$pair@$$CBV?$Point@H$0CA@@BWAPI@@VGridDistances@UAlbertaBot@@@std@@@6@$0A@@std@@@std@@QAE?AV?$_Tree_iterator@V?$_Tree_val@U?$_Tree_simple_types@U?$pair@$$CBV?$Point@H$0CA@@BWAPI@@VGridDistances@UAlbertaBot@@@std@@@std@@@std@@@2@ABV?$Point@H$0CA@@BWAPI@@@Z 10054180 f i MapTools.obj
 0001:00053200       ?_Erase@?$_Tree@V?$_Tmap_traits@V?$Point@H$0CA@@BWAPI@@VGridDistances@UAlbertaBot@@U?$less@V?$Point@H$0CA@@BWAPI@@@std@@V?$allocator@U?$pair@$$CBV?$Point@H$0CA@@BWAPI@@VGridDistances@UAlbertaBot@@@std@@@6@$0A@@std@@@std@@IAEXPAU?$_Tree_node@U?$pair@$$CBV?$Point@H$0CA@@BWAPI@@VGridDistances@UAlbertaBot@@@std@@PAX@2@@Z 10054200 f i MapTools.obj
 0001:000532e0       ??R?$less@V?$Point@H$0CA@@BWAPI@@@std@@QBE_NABV?$Point@H$0CA@@BWAPI@@0@Z 100542e0 f i MapTools.obj
 0001:00053310       ?erase@?$_Tree@V?$_Tmap_traits@V?$Point@H$0CA@@BWAPI@@VGridDistances@UAlbertaBot@@U?$less@V?$Point@H$0CA@@BWAPI@@@std@@V?$allocator@U?$pair@$$CBV?$Point@H$0CA@@BWAPI@@VGridDistances@UAlbertaBot@@@std@@@6@$0A@@std@@@std@@QAE?AV?$_Tree_iterator@V?$_Tree_val@U?$_Tree_simple_types@U?$pair@$$CBV?$Point@H$0CA@@BWAPI@@VGridDistances@UAlbertaBot@@@std@@@std@@@std@@@2@V?$_Tree_const_iterator@V?$_Tree_val@U?$_Tree_simple_types@U?$pair@$$CBV?$Point@H$0CA@@BWAPI@@VGridDistances@UAlbertaBot@@@std@@@std@@@std@@@2@0@Z 10054310 f i MapTools.obj
 0001:000533d0       ?erase@?$_Tree@V?$_Tmap_traits@V?$Point@H$0CA@@BWAPI@@VGridDistances@UAlbertaBot@@U?$less@V?$Point@H$0CA@@BWAPI@@@std@@V?$allocator@U?$pair@$$CBV?$Point@H$0CA@@BWAPI@@VGridDistances@UAlbertaBot@@@std@@@6@$0A@@std@@@std@@QAE?AV?$_Tree_iterator@V?$_Tree_val@U?$_Tree_simple_types@U?$pair@$$CBV?$Point@H$0CA@@BWAPI@@VGridDistances@UAlbertaBot@@@std@@@std@@@std@@@2@V?$_Tree_const_iterator@V?$_Tree_val@U?$_Tree_simple_types@U?$pair@$$CBV?$Point@H$0CA@@BWAPI@@VGridDistances@UAlbertaBot@@@std@@@std@@@std@@@2@@Z 100543d0 f i MapTools.obj
 0001:000536b0       ??$?0AAV?$Point@H$0CA@@BWAPI@@VGridDistances@UAlbertaBot@@X@?$pair@V?$Point@H$0CA@@BWAPI@@VGridDistances@UAlbertaBot@@@std@@QAE@AAV?$Point@H$0CA@@BWAPI@@$$QAVGridDistances@UAlbertaBot@@@Z 100546b0 f i MapTools.obj
 0001:00053740       ??0?$vector@V?$vector@FV?$allocator@F@std@@@std@@V?$allocator@V?$vector@FV?$allocator@F@std@@@std@@@2@@std@@QAE@ABV01@@Z 10054740 f i MapTools.obj
 0001:000537f0       ??$_Buynode@U?$pair@V?$Point@H$0CA@@BWAPI@@VGridDistances@UAlbertaBot@@@std@@@?$_Tree_buy@U?$pair@$$CBV?$Point@H$0CA@@BWAPI@@VGridDistances@UAlbertaBot@@@std@@V?$allocator@U?$pair@$$CBV?$Point@H$0CA@@BWAPI@@VGridDistances@UAlbertaBot@@@std@@@2@@std@@QAEPAU?$_Tree_node@U?$pair@$$CBV?$Point@H$0CA@@BWAPI@@VGridDistances@UAlbertaBot@@@std@@PAX@1@$$QAU?$pair@V?$Point@H$0CA@@BWAPI@@VGridDistances@UAlbertaBot@@@1@@Z 100547f0 f i MapTools.obj
 0001:00053880       ??$_Insert_nohint@AAU?$pair@$$CBV?$Point@H$0CA@@BWAPI@@VGridDistances@UAlbertaBot@@@std@@PAU?$_Tree_node@U?$pair@$$CBV?$Point@H$0CA@@BWAPI@@VGridDistances@UAlbertaBot@@@std@@PAX@2@@?$_Tree@V?$_Tmap_traits@V?$Point@H$0CA@@BWAPI@@VGridDistances@UAlbertaBot@@U?$less@V?$Point@H$0CA@@BWAPI@@@std@@V?$allocator@U?$pair@$$CBV?$Point@H$0CA@@BWAPI@@VGridDistances@UAlbertaBot@@@std@@@6@$0A@@std@@@std@@IAE?AU?$pair@V?$_Tree_iterator@V?$_Tree_val@U?$_Tree_simple_types@U?$pair@$$CBV?$Point@H$0CA@@BWAPI@@VGridDistances@UAlbertaBot@@@std@@@std@@@std@@@std@@_N@1@_NAAU?$pair@$$CBV?$Point@H$0CA@@BWAPI@@VGridDistances@UAlbertaBot@@@1@PAU?$_Tree_node@U?$pair@$$CBV?$Point@H$0CA@@BWAPI@@VGridDistances@UAlbertaBot@@@std@@PAX@1@@Z 10054880 f i MapTools.obj
 0001:000539b0       ??$_Buynode@ABUpiecewise_construct_t@std@@V?$tuple@ABV?$Point@H$0CA@@BWAPI@@@2@V?$tuple@$$$V@2@@?$_Tree_buy@U?$pair@$$CBV?$Point@H$0CA@@BWAPI@@VGridDistances@UAlbertaBot@@@std@@V?$allocator@U?$pair@$$CBV?$Point@H$0CA@@BWAPI@@VGridDistances@UAlbertaBot@@@std@@@2@@std@@QAEPAU?$_Tree_node@U?$pair@$$CBV?$Point@H$0CA@@BWAPI@@VGridDistances@UAlbertaBot@@@std@@PAX@1@ABUpiecewise_construct_t@1@$$QAV?$tuple@ABV?$Point@H$0CA@@BWAPI@@@1@$$QAV?$tuple@$$$V@1@@Z 100549b0 f i MapTools.obj
 0001:00053a20       ??$_Insert_hint@AAU?$pair@$$CBV?$Point@H$0CA@@BWAPI@@VGridDistances@UAlbertaBot@@@std@@PAU?$_Tree_node@U?$pair@$$CBV?$Point@H$0CA@@BWAPI@@VGridDistances@UAlbertaBot@@@std@@PAX@2@@?$_Tree@V?$_Tmap_traits@V?$Point@H$0CA@@BWAPI@@VGridDistances@UAlbertaBot@@U?$less@V?$Point@H$0CA@@BWAPI@@@std@@V?$allocator@U?$pair@$$CBV?$Point@H$0CA@@BWAPI@@VGridDistances@UAlbertaBot@@@std@@@6@$0A@@std@@@std@@IAE?AV?$_Tree_iterator@V?$_Tree_val@U?$_Tree_simple_types@U?$pair@$$CBV?$Point@H$0CA@@BWAPI@@VGridDistances@UAlbertaBot@@@std@@@std@@@std@@@1@V?$_Tree_const_iterator@V?$_Tree_val@U?$_Tree_simple_types@U?$pair@$$CBV?$Point@H$0CA@@BWAPI@@VGridDistances@UAlbertaBot@@@std@@@std@@@std@@@1@AAU?$pair@$$CBV?$Point@H$0CA@@BWAPI@@VGridDistances@UAlbertaBot@@@1@PAU?$_Tree_node@U?$pair@$$CBV?$Point@H$0CA@@BWAPI@@VGridDistances@UAlbertaBot@@@std@@PAX@1@@Z 10054a20 f i MapTools.obj
 0001:00053c60       ?_Destroy_if_not_nil@?$_Tree@V?$_Tmap_traits@V?$Point@H$0CA@@BWAPI@@VGridDistances@UAlbertaBot@@U?$less@V?$Point@H$0CA@@BWAPI@@@std@@V?$allocator@U?$pair@$$CBV?$Point@H$0CA@@BWAPI@@VGridDistances@UAlbertaBot@@@std@@@6@$0A@@std@@@std@@IAEXPAU?$_Tree_node@U?$pair@$$CBV?$Point@H$0CA@@BWAPI@@VGridDistances@UAlbertaBot@@@std@@PAX@2@@Z 10054c60 f i MapTools.obj
 0001:00053c80       ??$_Insert_at@AAU?$pair@$$CBV?$Point@H$0CA@@BWAPI@@VGridDistances@UAlbertaBot@@@std@@PAU?$_Tree_node@U?$pair@$$CBV?$Point@H$0CA@@BWAPI@@VGridDistances@UAlbertaBot@@@std@@PAX@2@@?$_Tree@V?$_Tmap_traits@V?$Point@H$0CA@@BWAPI@@VGridDistances@UAlbertaBot@@U?$less@V?$Point@H$0CA@@BWAPI@@@std@@V?$allocator@U?$pair@$$CBV?$Point@H$0CA@@BWAPI@@VGridDistances@UAlbertaBot@@@std@@@6@$0A@@std@@@std@@IAE?AV?$_Tree_iterator@V?$_Tree_val@U?$_Tree_simple_types@U?$pair@$$CBV?$Point@H$0CA@@BWAPI@@VGridDistances@UAlbertaBot@@@std@@@std@@@std@@@1@_NPAU?$_Tree_node@U?$pair@$$CBV?$Point@H$0CA@@BWAPI@@VGridDistances@UAlbertaBot@@@std@@PAX@1@AAU?$pair@$$CBV?$Point@H$0CA@@BWAPI@@VGridDistances@UAlbertaBot@@@1@1@Z 10054c80 f i MapTools.obj
 0001:00053e60       ??$_Uninit_copy@PBV?$vector@FV?$allocator@F@std@@@std@@PAV12@V?$allocator@V?$vector@FV?$allocator@F@std@@@std@@@2@@std@@YAPAV?$vector@FV?$allocator@F@std@@@0@PBV10@0PAV10@AAU?$_Wrap_alloc@V?$allocator@V?$vector@FV?$allocator@F@std@@@std@@@std@@@0@U_Nonscalar_ptr_iterator_tag@0@@Z 10054e60 f i MapTools.obj
 0001:00053f00       ??$?0V?$Point@H$0CA@@BWAPI@@VGridDistances@UAlbertaBot@@X@?$pair@$$CBV?$Point@H$0CA@@BWAPI@@VGridDistances@UAlbertaBot@@@std@@QAE@$$QAU?$pair@V?$Point@H$0CA@@BWAPI@@VGridDistances@UAlbertaBot@@@1@@Z 10054f00 f i MapTools.obj
 0001:00053f90       ??1MicroDetectors@UAlbertaBot@@UAE@XZ 10054f90 f i MicroDetectors.obj
 0001:00053f90       ??1MicroHighTemplar@UAlbertaBot@@UAE@XZ 10054f90 f i MicroHighTemplar.obj
 0001:00053f90       ??1MicroLurkers@UAlbertaBot@@UAE@XZ 10054f90 f i MicroLurkers.obj
 0001:00053f90       ??1MicroAirToAir@UAlbertaBot@@UAE@XZ 10054f90 f i MicroAirToAir.obj
 0001:00053f90       ??1MicroDefilers@UAlbertaBot@@UAE@XZ 10054f90 f i MicroDefilers.obj
 0001:00053f90       ??1MicroTanks@UAlbertaBot@@UAE@XZ 10054f90 f i MicroTanks.obj
 0001:00053f90       ??1MicroMedics@UAlbertaBot@@UAE@XZ 10054f90 f i MicroMedics.obj
 0001:00053f90       ??1MicroScourge@UAlbertaBot@@UAE@XZ 10054f90 f i MicroScourge.obj
 0001:00053f90       ??1MicroManager@UAlbertaBot@@UAE@XZ 10054f90 f i MicroAirToAir.obj
 0001:00053f90       ??1MicroRanged@UAlbertaBot@@UAE@XZ 10054f90 f i MicroRanged.obj
 0001:00053f90       ??1MicroMelee@UAlbertaBot@@UAE@XZ 10054f90 f i MicroMelee.obj
 0001:00053fd0       ??_EMicroScourge@UAlbertaBot@@UAEPAXI@Z 10054fd0 f i * CIL library *:* CIL module *
 0001:00053fd0       ??_GMicroTanks@UAlbertaBot@@UAEPAXI@Z 10054fd0 f i MicroTanks.obj
 0001:00053fd0       ??_EMicroAirToAir@UAlbertaBot@@UAEPAXI@Z 10054fd0 f i * CIL library *:* CIL module *
 0001:00053fd0       ??_GMicroHighTemplar@UAlbertaBot@@UAEPAXI@Z 10054fd0 f i MicroHighTemplar.obj
 0001:00053fd0       ??_GMicroDefilers@UAlbertaBot@@UAEPAXI@Z 10054fd0 f i MicroDefilers.obj
 0001:00053fd0       ??_GMicroLurkers@UAlbertaBot@@UAEPAXI@Z 10054fd0 f i MicroLurkers.obj
 0001:00053fd0       ??_EMicroHighTemplar@UAlbertaBot@@UAEPAXI@Z 10054fd0 f i * CIL library *:* CIL module *
 0001:00053fd0       ??_GMicroDetectors@UAlbertaBot@@UAEPAXI@Z 10054fd0 f i MicroDetectors.obj
 0001:00053fd0       ??_GMicroAirToAir@UAlbertaBot@@UAEPAXI@Z 10054fd0 f i MicroAirToAir.obj
 0001:00053fd0       ??_GMicroMedics@UAlbertaBot@@UAEPAXI@Z 10054fd0 f i MicroMedics.obj
 0001:00053fd0       ??_EMicroManager@UAlbertaBot@@UAEPAXI@Z 10054fd0 f i * CIL library *:* CIL module *
 0001:00053fd0       ??_EMicroLurkers@UAlbertaBot@@UAEPAXI@Z 10054fd0 f i * CIL library *:* CIL module *
 0001:00053fd0       ??_EMicroTanks@UAlbertaBot@@UAEPAXI@Z 10054fd0 f i * CIL library *:* CIL module *
 0001:00053fd0       ??_EMicroDefilers@UAlbertaBot@@UAEPAXI@Z 10054fd0 f i * CIL library *:* CIL module *
 0001:00053fd0       ??_EMicroMedics@UAlbertaBot@@UAEPAXI@Z 10054fd0 f i * CIL library *:* CIL module *
 0001:00053fd0       ??_GMicroManager@UAlbertaBot@@UAEPAXI@Z 10054fd0 f i MicroAirToAir.obj
 0001:00053fd0       ??_EMicroMelee@UAlbertaBot@@UAEPAXI@Z 10054fd0 f i * CIL library *:* CIL module *
 0001:00053fd0       ??_EMicroDetectors@UAlbertaBot@@UAEPAXI@Z 10054fd0 f i * CIL library *:* CIL module *
 0001:00053fd0       ??_GMicroRanged@UAlbertaBot@@UAEPAXI@Z 10054fd0 f i MicroRanged.obj
 0001:00053fd0       ??_GMicroMelee@UAlbertaBot@@UAEPAXI@Z 10054fd0 f i MicroMelee.obj
 0001:00053fd0       ??_GMicroScourge@UAlbertaBot@@UAEPAXI@Z 10054fd0 f i MicroScourge.obj
 0001:00053fd0       ??_EMicroRanged@UAlbertaBot@@UAEPAXI@Z 10054fd0 f i * CIL library *:* CIL module *
 0001:00054020       ?executeMicro@MicroAirToAir@UAlbertaBot@@UAEXABVUnitset@BWAPI@@ABVUnitCluster@2@@Z 10055020 f   MicroAirToAir.obj
 0001:000540a0       ?assignTargets@MicroAirToAir@UAlbertaBot@@QAEXABVUnitset@BWAPI@@0@Z 100550a0 f   MicroAirToAir.obj
 0001:000542c0       ?getTarget@MicroAirToAir@UAlbertaBot@@QAEPAVUnitInterface@BWAPI@@PAV34@ABVUnitset@4@@Z 100552c0 f   MicroAirToAir.obj
 0001:000544a0       ?getAttackPriority@MicroAirToAir@UAlbertaBot@@QAEHPAVUnitInterface@BWAPI@@0@Z 100554a0 f   MicroAirToAir.obj
 0001:000545c0       ??$_Copy_if@V?$_List_unchecked_const_iterator@V?$_List_val@U?$_List_simple_types@PAVUnitInterface@BWAPI@@@std@@@std@@U_Iterator_base0@2@@std@@V?$insert_iterator@VUnitset@BWAPI@@@2@V<lambda_5a3a875eaa4c7c3d6fb5c9e22c914021>@@@std@@YA?AV?$insert_iterator@VUnitset@BWAPI@@@0@V?$_List_unchecked_const_iterator@V?$_List_val@U?$_List_simple_types@PAVUnitInterface@BWAPI@@@std@@@std@@U_Iterator_base0@2@@0@0V10@V<lambda_5a3a875eaa4c7c3d6fb5c9e22c914021>@@@Z 100555c0 f i MicroAirToAir.obj
 0001:00054680       ?getDefilers@MicroDefilers@UAlbertaBot@@ABE?AVUnitset@BWAPI@@ABVUnitCluster@2@@Z 10055680 f   MicroDefilers.obj
 0001:00054760       ?maybeConsume@MicroDefilers@UAlbertaBot@@AAE_NPAVUnitInterface@BWAPI@@AAVUnitset@4@@Z 10055760 f   MicroDefilers.obj
 0001:00054820       ?swarmOrPlague@MicroDefilers@UAlbertaBot@@ABE_NPAVUnitInterface@BWAPI@@VTechType@4@V?$Point@H$00@4@@Z 10055820 f   MicroDefilers.obj
 0001:000548c0       ?swarmScore@MicroDefilers@UAlbertaBot@@ABEHPAVUnitInterface@BWAPI@@@Z 100558c0 f   MicroDefilers.obj
 0001:00054980       ?maybeSwarm@MicroDefilers@UAlbertaBot@@AAE_NPAVUnitInterface@BWAPI@@@Z 10055980 f   MicroDefilers.obj
 0001:00054ea0       ?plagueScore@MicroDefilers@UAlbertaBot@@ABENPAVUnitInterface@BWAPI@@@Z 10055ea0 f   MicroDefilers.obj
 0001:00055020       ?maybePlague@MicroDefilers@UAlbertaBot@@AAE_NPAVUnitInterface@BWAPI@@@Z 10056020 f   MicroDefilers.obj
 0001:00055530       ?updateMovement@MicroDefilers@UAlbertaBot@@QAEXABVUnitCluster@2@PAVUnitInterface@BWAPI@@@Z 10056530 f   MicroDefilers.obj
 0001:00055920       ?updateSwarm@MicroDefilers@UAlbertaBot@@QAEXABVUnitCluster@2@@Z 10056920 f   MicroDefilers.obj
 0001:00055a50       ?updatePlague@MicroDefilers@UAlbertaBot@@QAEXABVUnitCluster@2@@Z 10056a50 f   MicroDefilers.obj
 0001:00055bc0       ??$?VV?$UnaryFilter@PAVUnitInterface@BWAPI@@P6A_NPAV12@@Z@BWAPI@@@?$UnaryFilter@PAVUnitInterface@BWAPI@@P6A_NPAV12@@Z@BWAPI@@QBE?AV?$UnaryFilter@PAVUnitInterface@BWAPI@@V?$function@$$A6A_NPAVUnitInterface@BWAPI@@@Z@std@@@1@ABV01@@Z 10056bc0 f i MicroDefilers.obj
 0001:00055c20       ?_Move@?$_Func_impl@U?$_Callable_obj@V<lambda_c1e349560a5f92f063e637d97da5c54a>@@$0A@@std@@V?$allocator@V?$_Func_class@_NPAVUnitInterface@BWAPI@@@std@@@2@_NPAVUnitInterface@BWAPI@@@std@@UAEPAV?$_Func_base@_NPAVUnitInterface@BWAPI@@@2@PAX@Z 10056c20 f i MicroDefilers.obj
 0001:00055c20       ?_Copy@?$_Func_impl@U?$_Callable_obj@V<lambda_c1e349560a5f92f063e637d97da5c54a>@@$0A@@std@@V?$allocator@V?$_Func_class@_NPAVUnitInterface@BWAPI@@@std@@@2@_NPAVUnitInterface@BWAPI@@@std@@UAEPAV?$_Func_base@_NPAVUnitInterface@BWAPI@@@2@PAX@Z 10056c20 f i MicroDefilers.obj
 0001:00055c60       ?_Do_call@?$_Func_impl@U?$_Callable_obj@V<lambda_c1e349560a5f92f063e637d97da5c54a>@@$0A@@std@@V?$allocator@V?$_Func_class@_NPAVUnitInterface@BWAPI@@@std@@@2@_NPAVUnitInterface@BWAPI@@@std@@UAE_N$$QAPAVUnitInterface@BWAPI@@@Z 10056c60 f i MicroDefilers.obj
 0001:00055ca0       ?_Target_type@?$_Func_impl@U?$_Callable_obj@V<lambda_c1e349560a5f92f063e637d97da5c54a>@@$0A@@std@@V?$allocator@V?$_Func_class@_NPAVUnitInterface@BWAPI@@@std@@@2@_NPAVUnitInterface@BWAPI@@@std@@UBEABVtype_info@@XZ 10056ca0 f i MicroDefilers.obj
 0001:00055cb0       ?go@MicroDetectors@UAlbertaBot@@QAEXXZ 10056cb0 f   MicroDetectors.obj
 0001:00055d50       ?update@MicroHighTemplar@UAlbertaBot@@QAEXXZ 10056d50 f   MicroHighTemplar.obj
 0001:000560a0       ?executeMicro@MicroLurkers@UAlbertaBot@@UAEXABVUnitset@BWAPI@@ABVUnitCluster@2@@Z 100570a0 f   MicroLurkers.obj
 0001:00056730       ?getTarget@MicroLurkers@UAlbertaBot@@QAEPAVUnitInterface@BWAPI@@PAV34@ABVUnitset@4@@Z 10057730 f   MicroLurkers.obj
 0001:000568d0       ?getAttackPriority@MicroLurkers@UAlbertaBot@@QBEHPAVUnitInterface@BWAPI@@@Z 100578d0 f   MicroLurkers.obj
 0001:00056a80       ??$_Copy_if@V?$_List_unchecked_const_iterator@V?$_List_val@U?$_List_simple_types@PAVUnitInterface@BWAPI@@@std@@@std@@U_Iterator_base0@2@@std@@V?$insert_iterator@VUnitset@BWAPI@@@2@V<lambda_69de437bb17ebff85f63f30ee4a7a446>@@@std@@YA?AV?$insert_iterator@VUnitset@BWAPI@@@0@V?$_List_unchecked_const_iterator@V?$_List_val@U?$_List_simple_types@PAVUnitInterface@BWAPI@@@std@@@std@@U_Iterator_base0@2@@0@0V10@V<lambda_69de437bb17ebff85f63f30ee4a7a446>@@@Z 10057a80 f i MicroLurkers.obj
 0001:00056b40       ??0MicroManager@UAlbertaBot@@QAE@XZ 10057b40 f   MicroManager.obj
 0001:00056bf0       ?execute@MicroManager@UAlbertaBot@@QAEXABVUnitCluster@2@@Z 10057bf0 f   MicroManager.obj
 0001:00056e30       ?destroyNeutralTargets@MicroManager@UAlbertaBot@@IAEXABVUnitset@BWAPI@@@Z 10057e30 f   MicroManager.obj
 0001:00056f40       ?regroup@MicroManager@UAlbertaBot@@QBEXABV?$Point@H$00@BWAPI@@ABVUnitCluster@2@@Z 10057f40 f   MicroManager.obj
 0001:000576e0       ?unitNearChokepoint@MicroManager@UAlbertaBot@@IBE_NPAVUnitInterface@BWAPI@@@Z 100586e0 f   MicroManager.obj
 0001:00057740       ?drawOrderText@MicroManager@UAlbertaBot@@IAEXXZ 10058740 f   MicroManager.obj
 0001:000577c0       ??7?$UnaryFilter@PAVUnitInterface@BWAPI@@P6A_NPAV12@@Z@BWAPI@@QBE?AV?$UnaryFilter@PAVUnitInterface@BWAPI@@V?$function@$$A6A_NPAVUnitInterface@BWAPI@@@Z@std@@@1@XZ 100587c0 f i MicroManager.obj
 0001:00057830       ??8?$CompareFilter@PAVUnitInterface@BWAPI@@VOrder@2@P6A?AV32@PAV12@@Z@BWAPI@@QBE?AV?$UnaryFilter@PAVUnitInterface@BWAPI@@V?$function@$$A6A_NPAVUnitInterface@BWAPI@@@Z@std@@@1@ABVOrder@1@@Z 10058830 f i MicroManager.obj
 0001:00057890       ??$?VV?$UnaryFilter@PAVUnitInterface@BWAPI@@P6A_NPAV12@@Z@BWAPI@@@?$UnaryFilter@PAVUnitInterface@BWAPI@@V?$function@$$A6A_NPAVUnitInterface@BWAPI@@@Z@std@@@BWAPI@@QBE?AV01@ABV?$UnaryFilter@PAVUnitInterface@BWAPI@@P6A_NPAV12@@Z@1@@Z 10058890 f i MicroManager.obj
 0001:000578f0       ?_Move@?$_Func_impl@U?$_Callable_obj@V<lambda_b62a7bf29e97477c46a7925ecfd8ccbf>@@$0A@@std@@V?$allocator@V?$_Func_class@_NPAVUnitInterface@BWAPI@@@std@@@2@_NPAVUnitInterface@BWAPI@@@std@@UAEPAV?$_Func_base@_NPAVUnitInterface@BWAPI@@@2@PAX@Z 100588f0 f i MicroManager.obj
 0001:000578f0       ?_Copy@?$_Func_impl@U?$_Callable_obj@V<lambda_b62a7bf29e97477c46a7925ecfd8ccbf>@@$0A@@std@@V?$allocator@V?$_Func_class@_NPAVUnitInterface@BWAPI@@@std@@@2@_NPAVUnitInterface@BWAPI@@@std@@UAEPAV?$_Func_base@_NPAVUnitInterface@BWAPI@@@2@PAX@Z 100588f0 f i MicroManager.obj
 0001:00057930       ?_Do_call@?$_Func_impl@U?$_Callable_obj@V<lambda_b62a7bf29e97477c46a7925ecfd8ccbf>@@$0A@@std@@V?$allocator@V?$_Func_class@_NPAVUnitInterface@BWAPI@@@std@@@2@_NPAVUnitInterface@BWAPI@@@std@@UAE_N$$QAPAVUnitInterface@BWAPI@@@Z 10058930 f i MicroManager.obj
 0001:00057950       ?_Target_type@?$_Func_impl@U?$_Callable_obj@V<lambda_b62a7bf29e97477c46a7925ecfd8ccbf>@@$0A@@std@@V?$allocator@V?$_Func_class@_NPAVUnitInterface@BWAPI@@@std@@@2@_NPAVUnitInterface@BWAPI@@@std@@UBEABVtype_info@@XZ 10058950 f i MicroManager.obj
 0001:00057960       ?_Move@?$_Func_impl@U?$_Callable_obj@V<lambda_3d302a1317419cd92892c19f4249dbfc>@@$0A@@std@@V?$allocator@V?$_Func_class@_NPAVUnitInterface@BWAPI@@@std@@@2@_NPAVUnitInterface@BWAPI@@@std@@UAEPAV?$_Func_base@_NPAVUnitInterface@BWAPI@@@2@PAX@Z 10058960 f i MicroManager.obj
 0001:00057960       ?_Copy@?$_Func_impl@U?$_Callable_obj@V<lambda_3d302a1317419cd92892c19f4249dbfc>@@$0A@@std@@V?$allocator@V?$_Func_class@_NPAVUnitInterface@BWAPI@@@std@@@2@_NPAVUnitInterface@BWAPI@@@std@@UAEPAV?$_Func_base@_NPAVUnitInterface@BWAPI@@@2@PAX@Z 10058960 f i MicroManager.obj
 0001:000579a0       ?_Target_type@?$_Func_impl@U?$_Callable_obj@V<lambda_3d302a1317419cd92892c19f4249dbfc>@@$0A@@std@@V?$allocator@V?$_Func_class@_NPAVUnitInterface@BWAPI@@@std@@@2@_NPAVUnitInterface@BWAPI@@@std@@UBEABVtype_info@@XZ 100589a0 f i MicroManager.obj
 0001:000579b0       ?_Move@?$_Func_impl@U?$_Callable_obj@V<lambda_c951ba86f2b730e911551f8179284141>@@$0A@@std@@V?$allocator@V?$_Func_class@_NPAVUnitInterface@BWAPI@@@std@@@2@_NPAVUnitInterface@BWAPI@@@std@@UAEPAV?$_Func_base@_NPAVUnitInterface@BWAPI@@@2@PAX@Z 100589b0 f i MicroManager.obj
 0001:000579b0       ?_Copy@?$_Func_impl@U?$_Callable_obj@V<lambda_c951ba86f2b730e911551f8179284141>@@$0A@@std@@V?$allocator@V?$_Func_class@_NPAVUnitInterface@BWAPI@@@std@@@2@_NPAVUnitInterface@BWAPI@@@std@@UAEPAV?$_Func_base@_NPAVUnitInterface@BWAPI@@@2@PAX@Z 100589b0 f i MicroManager.obj
 0001:000579f0       ?_Do_call@?$_Func_impl@U?$_Callable_obj@V<lambda_c951ba86f2b730e911551f8179284141>@@$0A@@std@@V?$allocator@V?$_Func_class@_NPAVUnitInterface@BWAPI@@@std@@@2@_NPAVUnitInterface@BWAPI@@@std@@UAE_N$$QAPAVUnitInterface@BWAPI@@@Z 100589f0 f i MicroManager.obj
 0001:00057a40       ?_Target_type@?$_Func_impl@U?$_Callable_obj@V<lambda_c951ba86f2b730e911551f8179284141>@@$0A@@std@@V?$allocator@V?$_Func_class@_NPAVUnitInterface@BWAPI@@@std@@@2@_NPAVUnitInterface@BWAPI@@@std@@UBEABVtype_info@@XZ 10058a40 f i MicroManager.obj
 0001:00057a50       ?monitor@MicroState@UAlbertaBot@@AAEXPAVUnitInterface@BWAPI@@@Z 10058a50 f   Micro.obj
 0001:00057be0       ?setOrder@MicroState@UAlbertaBot@@QAEXPAVUnitInterface@BWAPI@@VOrder@4@@Z 10058be0 f   Micro.obj
 0001:00057c40       ?setOrder@MicroState@UAlbertaBot@@QAEXPAVUnitInterface@BWAPI@@VOrder@4@0@Z 10058c40 f   Micro.obj
 0001:00057ca0       ?setOrder@MicroState@UAlbertaBot@@QAEXPAVUnitInterface@BWAPI@@VOrder@4@V?$Point@H$00@4@@Z 10058ca0 f   Micro.obj
 0001:00057d10       ?draw@MicroState@UAlbertaBot@@QBEXPAVUnitInterface@BWAPI@@@Z 10058d10 f   Micro.obj
 0001:00057df0       ?update@Micro@UAlbertaBot@@QAEXXZ 10058df0 f   Micro.obj
 0001:00057f70       ?AlwaysKite@Micro@UAlbertaBot@@ABE_NVUnitType@BWAPI@@@Z 10058f70 f   Micro.obj
 0001:00057fc0       ?GetKiteVector@Micro@UAlbertaBot@@ABE?AV?$Point@H$00@BWAPI@@PAVUnitInterface@4@0@Z 10058fc0 f   Micro.obj
 0001:00058050       ?fleeDT@Micro@UAlbertaBot@@QAE_NPAVUnitInterface@BWAPI@@@Z 10059050 f   Micro.obj
 0001:00058220       ?Stop@Micro@UAlbertaBot@@QAEXPAVUnitInterface@BWAPI@@@Z 10059220 f   Micro.obj
 0001:00058300       ?HoldPosition@Micro@UAlbertaBot@@QAEXPAVUnitInterface@BWAPI@@@Z 10059300 f   Micro.obj
 0001:000583e0       ?CatchAndAttackUnit@Micro@UAlbertaBot@@QAEXPAVUnitInterface@BWAPI@@0@Z 100593e0 f   Micro.obj
 0001:00058560       ?AttackUnit@Micro@UAlbertaBot@@QAEXPAVUnitInterface@BWAPI@@0@Z 10059560 f   Micro.obj
 0001:00058730       ?AttackMove@Micro@UAlbertaBot@@QAEXPAVUnitInterface@BWAPI@@ABV?$Point@H$00@4@@Z 10059730 f   Micro.obj
 0001:000588f0       ?Move@Micro@UAlbertaBot@@QAEXPAVUnitInterface@BWAPI@@ABV?$Point@H$00@4@@Z 100598f0 f   Micro.obj
 0001:00058aa0       ?MoveNear@Micro@UAlbertaBot@@QAEXPAVUnitInterface@BWAPI@@ABV?$Point@H$00@4@@Z 10059aa0 f   Micro.obj
 0001:00058b60       ?RightClick@Micro@UAlbertaBot@@QAEXPAVUnitInterface@BWAPI@@0@Z 10059b60 f   Micro.obj
 0001:00058d70       ?MineMinerals@Micro@UAlbertaBot@@QAEXPAVUnitInterface@BWAPI@@0@Z 10059d70 f   Micro.obj
 0001:00058ed0       ?Repair@Micro@UAlbertaBot@@QAEXPAVUnitInterface@BWAPI@@0@Z 10059ed0 f   Micro.obj
 0001:00059080       ?ReturnCargo@Micro@UAlbertaBot@@QAEXPAVUnitInterface@BWAPI@@@Z 1005a080 f   Micro.obj
 0001:000591c0       ?Build@Micro@UAlbertaBot@@QAE_NPAVUnitInterface@BWAPI@@VUnitType@4@ABV?$Point@H$0CA@@4@@Z 1005a1c0 f   Micro.obj
 0001:00059280       ?Make@Micro@UAlbertaBot@@QAE_NPAVUnitInterface@BWAPI@@VUnitType@4@@Z 1005a280 f   Micro.obj
 0001:000593c0       ?Cancel@Micro@UAlbertaBot@@QAE_NPAVUnitInterface@BWAPI@@@Z 1005a3c0 f   Micro.obj
 0001:00059440       ?Burrow@Micro@UAlbertaBot@@QAE_NPAVUnitInterface@BWAPI@@@Z 1005a440 f   Micro.obj
 0001:000594c0       ?Unburrow@Micro@UAlbertaBot@@QAE_NPAVUnitInterface@BWAPI@@@Z 1005a4c0 f   Micro.obj
 0001:00059540       ?Load@Micro@UAlbertaBot@@QAE_NPAVUnitInterface@BWAPI@@0@Z 1005a540 f   Micro.obj
 0001:00059600       ?UnloadAt@Micro@UAlbertaBot@@QAE_NPAVUnitInterface@BWAPI@@ABV?$Point@H$00@4@@Z 1005a600 f   Micro.obj
 0001:000596a0       ?UnloadAll@Micro@UAlbertaBot@@QAE_NPAVUnitInterface@BWAPI@@@Z 1005a6a0 f   Micro.obj
 0001:00059720       ?Siege@Micro@UAlbertaBot@@QAE_NPAVUnitInterface@BWAPI@@@Z 1005a720 f   Micro.obj
 0001:000597a0       ?Unsiege@Micro@UAlbertaBot@@QAE_NPAVUnitInterface@BWAPI@@@Z 1005a7a0 f   Micro.obj
 0001:00059820       ?Scan@Micro@UAlbertaBot@@QAE_NABV?$Point@H$00@BWAPI@@@Z 1005a820 f   Micro.obj
 0001:00059ae0       ?Stim@Micro@UAlbertaBot@@QAE_NPAVUnitInterface@BWAPI@@@Z 1005aae0 f   Micro.obj
 0001:00059bf0       ?MergeArchon@Micro@UAlbertaBot@@QAE_NPAVUnitInterface@BWAPI@@0@Z 1005abf0 f   Micro.obj
 0001:00059d70       ?LarvaTrick@Micro@UAlbertaBot@@QAE_NABVUnitset@BWAPI@@@Z 1005ad70 f   Micro.obj
 0001:00059de0       ?UseTech@Micro@UAlbertaBot@@QAE_NPAVUnitInterface@BWAPI@@VTechType@4@0@Z 1005ade0 f   Micro.obj
 0001:00059ef0       ?UseTech@Micro@UAlbertaBot@@QAE_NPAVUnitInterface@BWAPI@@VTechType@4@ABV?$Point@H$00@4@@Z 1005aef0 f   Micro.obj
 0001:0005a000       ?KiteTarget@Micro@UAlbertaBot@@QAEXPAVUnitInterface@BWAPI@@0@Z 1005b000 f   Micro.obj
 0001:0005a290       ?MutaDanceTarget@Micro@UAlbertaBot@@QAEXPAVUnitInterface@BWAPI@@0@Z 1005b290 f   Micro.obj
 0001:0005a460       ??9?$Point@H$00@BWAPI@@QBE_NABV01@@Z 1005b460 f i Micro.obj
 0001:0005a4a0       ??A?$map@PAVUnitInterface@BWAPI@@VMicroState@UAlbertaBot@@U?$less@PAVUnitInterface@BWAPI@@@std@@V?$allocator@U?$pair@QAVUnitInterface@BWAPI@@VMicroState@UAlbertaBot@@@std@@@6@@std@@QAEAAVMicroState@UAlbertaBot@@ABQAVUnitInterface@BWAPI@@@Z 1005b4a0 f i Micro.obj
 0001:0005a520       ??$?VV?$UnaryFilter@PAVUnitInterface@BWAPI@@V?$function@$$A6A_NPAVUnitInterface@BWAPI@@@Z@std@@@BWAPI@@@?$UnaryFilter@PAVUnitInterface@BWAPI@@V?$function@$$A6A_NPAVUnitInterface@BWAPI@@@Z@std@@@BWAPI@@QBE?AV01@ABV01@@Z 1005b520 f i Micro.obj
 0001:0005a670       ??$_Buynode@ABUpiecewise_construct_t@std@@V?$tuple@ABQAVUnitInterface@BWAPI@@@2@V?$tuple@$$$V@2@@?$_Tree_buy@U?$pair@QAVUnitInterface@BWAPI@@VMicroState@UAlbertaBot@@@std@@V?$allocator@U?$pair@QAVUnitInterface@BWAPI@@VMicroState@UAlbertaBot@@@std@@@2@@std@@QAEPAU?$_Tree_node@U?$pair@QAVUnitInterface@BWAPI@@VMicroState@UAlbertaBot@@@std@@PAX@1@ABUpiecewise_construct_t@1@$$QAV?$tuple@ABQAVUnitInterface@BWAPI@@@1@$$QAV?$tuple@$$$V@1@@Z 1005b670 f i Micro.obj
 0001:0005a6e0       ??$_Insert_hint@AAU?$pair@QAVUnitInterface@BWAPI@@VMicroState@UAlbertaBot@@@std@@PAU?$_Tree_node@U?$pair@QAVUnitInterface@BWAPI@@VMicroState@UAlbertaBot@@@std@@PAX@2@@?$_Tree@V?$_Tmap_traits@PAVUnitInterface@BWAPI@@VMicroState@UAlbertaBot@@U?$less@PAVUnitInterface@BWAPI@@@std@@V?$allocator@U?$pair@QAVUnitInterface@BWAPI@@VMicroState@UAlbertaBot@@@std@@@6@$0A@@std@@@std@@IAE?AV?$_Tree_iterator@V?$_Tree_val@U?$_Tree_simple_types@U?$pair@QAVUnitInterface@BWAPI@@VMicroState@UAlbertaBot@@@std@@@std@@@std@@@1@V?$_Tree_const_iterator@V?$_Tree_val@U?$_Tree_simple_types@U?$pair@QAVUnitInterface@BWAPI@@VMicroState@UAlbertaBot@@@std@@@std@@@std@@@1@AAU?$pair@QAVUnitInterface@BWAPI@@VMicroState@UAlbertaBot@@@1@PAU?$_Tree_node@U?$pair@QAVUnitInterface@BWAPI@@VMicroState@UAlbertaBot@@@std@@PAX@1@@Z 1005b6e0 f i Micro.obj
 0001:0005a900       ??$_Insert_at@AAU?$pair@QAVUnitInterface@BWAPI@@VMicroState@UAlbertaBot@@@std@@PAU?$_Tree_node@U?$pair@QAVUnitInterface@BWAPI@@VMicroState@UAlbertaBot@@@std@@PAX@2@@?$_Tree@V?$_Tmap_traits@PAVUnitInterface@BWAPI@@VMicroState@UAlbertaBot@@U?$less@PAVUnitInterface@BWAPI@@@std@@V?$allocator@U?$pair@QAVUnitInterface@BWAPI@@VMicroState@UAlbertaBot@@@std@@@6@$0A@@std@@@std@@IAE?AV?$_Tree_iterator@V?$_Tree_val@U?$_Tree_simple_types@U?$pair@QAVUnitInterface@BWAPI@@VMicroState@UAlbertaBot@@@std@@@std@@@std@@@1@_NPAU?$_Tree_node@U?$pair@QAVUnitInterface@BWAPI@@VMicroState@UAlbertaBot@@@std@@PAX@1@AAU?$pair@QAVUnitInterface@BWAPI@@VMicroState@UAlbertaBot@@@1@1@Z 1005b900 f i Micro.obj
 0001:0005aad0       ??$_Insert_nohint@AAU?$pair@QAVUnitInterface@BWAPI@@VMicroState@UAlbertaBot@@@std@@PAU?$_Tree_node@U?$pair@QAVUnitInterface@BWAPI@@VMicroState@UAlbertaBot@@@std@@PAX@2@@?$_Tree@V?$_Tmap_traits@PAVUnitInterface@BWAPI@@VMicroState@UAlbertaBot@@U?$less@PAVUnitInterface@BWAPI@@@std@@V?$allocator@U?$pair@QAVUnitInterface@BWAPI@@VMicroState@UAlbertaBot@@@std@@@6@$0A@@std@@@std@@IAE?AU?$pair@V?$_Tree_iterator@V?$_Tree_val@U?$_Tree_simple_types@U?$pair@QAVUnitInterface@BWAPI@@VMicroState@UAlbertaBot@@@std@@@std@@@std@@@std@@_N@1@_NAAU?$pair@QAVUnitInterface@BWAPI@@VMicroState@UAlbertaBot@@@1@PAU?$_Tree_node@U?$pair@QAVUnitInterface@BWAPI@@VMicroState@UAlbertaBot@@@std@@PAX@1@@Z 1005bad0 f i Micro.obj
 0001:0005abe0       ?_Move@?$_Func_impl@U?$_Callable_obj@V<lambda_d453f4193ca7d2581c13279844baec8c>@@$0A@@std@@V?$allocator@V?$_Func_class@_NPAVUnitInterface@BWAPI@@@std@@@2@_NPAVUnitInterface@BWAPI@@@std@@UAEPAV?$_Func_base@_NPAVUnitInterface@BWAPI@@@2@PAX@Z 1005bbe0 f i Micro.obj
 0001:0005abe0       ?_Copy@?$_Func_impl@U?$_Callable_obj@V<lambda_d453f4193ca7d2581c13279844baec8c>@@$0A@@std@@V?$allocator@V?$_Func_class@_NPAVUnitInterface@BWAPI@@@std@@@2@_NPAVUnitInterface@BWAPI@@@std@@UAEPAV?$_Func_base@_NPAVUnitInterface@BWAPI@@@2@PAX@Z 1005bbe0 f i Micro.obj
 0001:0005ac90       ?_Do_call@?$_Func_impl@U?$_Callable_obj@V<lambda_d453f4193ca7d2581c13279844baec8c>@@$0A@@std@@V?$allocator@V?$_Func_class@_NPAVUnitInterface@BWAPI@@@std@@@2@_NPAVUnitInterface@BWAPI@@@std@@UAE_N$$QAPAVUnitInterface@BWAPI@@@Z 1005bc90 f i Micro.obj
 0001:0005acb0       ?_Target_type@?$_Func_impl@U?$_Callable_obj@V<lambda_d453f4193ca7d2581c13279844baec8c>@@$0A@@std@@V?$allocator@V?$_Func_class@_NPAVUnitInterface@BWAPI@@@std@@@2@_NPAVUnitInterface@BWAPI@@@std@@UBEABVtype_info@@XZ 1005bcb0 f i Micro.obj
 0001:0005acc0       ??_E?$_Func_impl@U?$_Callable_obj@V<lambda_d453f4193ca7d2581c13279844baec8c>@@$0A@@std@@V?$allocator@V?$_Func_class@_NPAVUnitInterface@BWAPI@@@std@@@2@_NPAVUnitInterface@BWAPI@@@std@@UAEPAXI@Z 1005bcc0 f i * CIL library *:* CIL module *
 0001:0005acc0       ??_G?$_Func_impl@U?$_Callable_obj@V<lambda_d453f4193ca7d2581c13279844baec8c>@@$0A@@std@@V?$allocator@V?$_Func_class@_NPAVUnitInterface@BWAPI@@@std@@@2@_NPAVUnitInterface@BWAPI@@@std@@UAEPAXI@Z 1005bcc0 f i Micro.obj
 0001:0005ad30       ??$?0ABV<lambda_d453f4193ca7d2581c13279844baec8c>@@@?$_Func_impl@U?$_Callable_obj@V<lambda_d453f4193ca7d2581c13279844baec8c>@@$0A@@std@@V?$allocator@V?$_Func_class@_NPAVUnitInterface@BWAPI@@@std@@@2@_NPAVUnitInterface@BWAPI@@@std@@QAE@ABV<lambda_d453f4193ca7d2581c13279844baec8c>@@ABV?$allocator@V?$_Func_impl@U?$_Callable_obj@V<lambda_d453f4193ca7d2581c13279844baec8c>@@$0A@@std@@V?$allocator@V?$_Func_class@_NPAVUnitInterface@BWAPI@@@std@@@2@_NPAVUnitInterface@BWAPI@@@std@@@1@@Z 1005bd30 f i Micro.obj
 0001:0005adc0       ?update@MicroMedics@UAlbertaBot@@QAEXABVUnitCluster@2@ABV?$Point@H$00@BWAPI@@@Z 1005bdc0 f   MicroMedics.obj
 0001:0005b170       ?executeMicro@MicroMelee@UAlbertaBot@@UAEXABVUnitset@BWAPI@@ABVUnitCluster@2@@Z 1005c170 f   MicroMelee.obj
 0001:0005b1f0       ?assignTargets@MicroMelee@UAlbertaBot@@QAEXABVUnitset@BWAPI@@0@Z 1005c1f0 f   MicroMelee.obj
 0001:0005b590       ?getTarget@MicroMelee@UAlbertaBot@@QAEPAVUnitInterface@BWAPI@@PAV34@ABVUnitset@4@@Z 1005c590 f   MicroMelee.obj
 0001:0005b830       ?getAttackPriority@MicroMelee@UAlbertaBot@@QBEHPAVUnitInterface@BWAPI@@0@Z 1005c830 f   MicroMelee.obj
 0001:0005baf0       ?meleeUnitShouldRetreat@MicroMelee@UAlbertaBot@@QAE_NPAVUnitInterface@BWAPI@@ABVUnitset@4@@Z 1005caf0 f   MicroMelee.obj
 0001:0005bba0       ?nearestSpore@MicroOverlords@UAlbertaBot@@AAEPAVUnitInterface@BWAPI@@PAV34@@Z 1005cba0 f   MicroOverlords.obj
 0001:0005bc90       ?assignOverlords@MicroOverlords@UAlbertaBot@@AAEXXZ 1005cc90 f   MicroOverlords.obj
 0001:0005c080       ??_GMicroOverlords@UAlbertaBot@@UAEPAXI@Z 1005d080 f i MicroOverlords.obj
 0001:0005c080       ??_EMicroOverlords@UAlbertaBot@@UAEPAXI@Z 1005d080 f i * CIL library *:* CIL module *
 0001:0005c0b0       ??1MicroOverlords@UAlbertaBot@@UAE@XZ 1005d0b0 f i MicroOverlords.obj
 0001:0005c120       ?update@MicroOverlords@UAlbertaBot@@QAEXXZ 1005d120 f   MicroOverlords.obj
 0001:0005c350       ?executeMicro@MicroRanged@UAlbertaBot@@UAEXABVUnitset@BWAPI@@ABVUnitCluster@2@@Z 1005d350 f   MicroRanged.obj
 0001:0005c3d0       ?assignTargets@MicroRanged@UAlbertaBot@@QAEXABVUnitset@BWAPI@@0@Z 1005d3d0 f   MicroRanged.obj
 0001:0005c840       ?getTarget@MicroRanged@UAlbertaBot@@QAEPAVUnitInterface@BWAPI@@PAV34@ABVUnitset@4@@Z 1005d840 f   MicroRanged.obj
 0001:0005cbf0       ?getAttackPriority@MicroRanged@UAlbertaBot@@QAEHPAVUnitInterface@BWAPI@@0@Z 1005dbf0 f   MicroRanged.obj
 0001:0005d100       ??$_Copy_if@V?$_List_unchecked_const_iterator@V?$_List_val@U?$_List_simple_types@PAVUnitInterface@BWAPI@@@std@@@std@@U_Iterator_base0@2@@std@@V?$insert_iterator@VUnitset@BWAPI@@@2@V<lambda_0f481d050479ed7614daf07ff33ebb95>@@@std@@YA?AV?$insert_iterator@VUnitset@BWAPI@@@0@V?$_List_unchecked_const_iterator@V?$_List_val@U?$_List_simple_types@PAVUnitInterface@BWAPI@@@std@@@std@@U_Iterator_base0@2@@0@0V10@V<lambda_0f481d050479ed7614daf07ff33ebb95>@@@Z 1005e100 f i MicroRanged.obj
 0001:0005d1c0       ?executeMicro@MicroScourge@UAlbertaBot@@UAEXABVUnitset@BWAPI@@ABVUnitCluster@2@@Z 1005e1c0 f   MicroScourge.obj
 0001:0005d240       ?assignTargets@MicroScourge@UAlbertaBot@@QAEXABVUnitset@BWAPI@@0@Z 1005e240 f   MicroScourge.obj
 0001:0005d3f0       ?getTarget@MicroScourge@UAlbertaBot@@QAEPAVUnitInterface@BWAPI@@PAV34@ABVUnitset@4@@Z 1005e3f0 f   MicroScourge.obj
 0001:0005d470       ?getAttackPriority@MicroScourge@UAlbertaBot@@SAHVUnitType@BWAPI@@@Z 1005e470 f   MicroScourge.obj
 0001:0005d530       ??$_Copy_if@V?$_List_unchecked_const_iterator@V?$_List_val@U?$_List_simple_types@PAVUnitInterface@BWAPI@@@std@@@std@@U_Iterator_base0@2@@std@@V?$insert_iterator@VUnitset@BWAPI@@@2@V<lambda_dc570665ea1932d404bd01eb488514f1>@@@std@@YA?AV?$insert_iterator@VUnitset@BWAPI@@@0@V?$_List_unchecked_const_iterator@V?$_List_val@U?$_List_simple_types@PAVUnitInterface@BWAPI@@@std@@@std@@U_Iterator_base0@2@@0@0V10@V<lambda_dc570665ea1932d404bd01eb488514f1>@@@Z 1005e530 f i MicroScourge.obj
 0001:0005d5e0       ?nThreats@MicroTanks@UAlbertaBot@@ABEHABVUnitset@BWAPI@@@Z 1005e5e0 f   MicroTanks.obj
 0001:0005d640       ?anySiegeUnits@MicroTanks@UAlbertaBot@@ABE_NABVUnitset@BWAPI@@@Z 1005e640 f   MicroTanks.obj
 0001:0005d6d0       ?allMeleeAndSameHeight@MicroTanks@UAlbertaBot@@ABE_NABVUnitset@BWAPI@@PAVUnitInterface@4@@Z 1005e6d0 f   MicroTanks.obj
 0001:0005d770       ?executeMicro@MicroTanks@UAlbertaBot@@UAEXABVUnitset@BWAPI@@ABVUnitCluster@2@@Z 1005e770 f   MicroTanks.obj
 0001:0005dbe0       ?getTarget@MicroTanks@UAlbertaBot@@QAEPAVUnitInterface@BWAPI@@PAV34@ABVUnitset@4@@Z 1005ebe0 f   MicroTanks.obj
 0001:0005dd70       ?getAttackPriority@MicroTanks@UAlbertaBot@@QAEHPAVUnitInterface@BWAPI@@0@Z 1005ed70 f   MicroTanks.obj
 0001:0005e090       ??$_Copy_if@V?$_List_unchecked_const_iterator@V?$_List_val@U?$_List_simple_types@PAVUnitInterface@BWAPI@@@std@@@std@@U_Iterator_base0@2@@std@@V?$insert_iterator@VUnitset@BWAPI@@@2@V<lambda_f928ec79af7b7109af13d96dab1c3ea3>@@@std@@YA?AV?$insert_iterator@VUnitset@BWAPI@@@0@V?$_List_unchecked_const_iterator@V?$_List_val@U?$_List_simple_types@PAVUnitInterface@BWAPI@@@std@@@std@@U_Iterator_base0@2@@0@0V10@V<lambda_f928ec79af7b7109af13d96dab1c3ea3>@@@Z 1005f090 f i MicroTanks.obj
 0001:0005e130       ??_EMicroTransports@UAlbertaBot@@UAEPAXI@Z 1005f130 f i * CIL library *:* CIL module *
 0001:0005e130       ??_GMicroTransports@UAlbertaBot@@UAEPAXI@Z 1005f130 f i MicroTransports.obj
 0001:0005e160       ??1MicroTransports@UAlbertaBot@@UAE@XZ 1005f160 f i MicroTransports.obj
 0001:0005e1c0       ?calculateWaypoints@MicroTransports@UAlbertaBot@@AAEXXZ 1005f1c0 f   MicroTransports.obj
 0001:0005e650       ?drawTransportInformation@MicroTransports@UAlbertaBot@@AAEXXZ 1005f650 f   MicroTransports.obj
 0001:0005e840       ?update@MicroTransports@UAlbertaBot@@QAEXXZ 1005f840 f   MicroTransports.obj
 0001:0005e8a0       ?maybeUnloadTroops@MicroTransports@UAlbertaBot@@AAEXXZ 1005f8a0 f   MicroTransports.obj
 0001:0005e960       ?moveTransport@MicroTransports@UAlbertaBot@@AAEXXZ 1005f960 f   MicroTransports.obj
 0001:0005e9e0       ?followPerimeter@MicroTransports@UAlbertaBot@@AAEXXZ 1005f9e0 f   MicroTransports.obj
 0001:0005edc0       ?predictEnemyPlan@OpponentModel@UAlbertaBot@@ABE?AW4OpeningPlan@2@XZ 1005fdc0 f   OpponentModel.obj
 0001:0005f080       ?considerSingleStrategy@OpponentModel@UAlbertaBot@@AAEXXZ 10060080 f   OpponentModel.obj
 0001:0005f1b0       ?considerOpenings@OpponentModel@UAlbertaBot@@AAEXXZ 100601b0 f   OpponentModel.obj
 0001:0005f9f0       ?singleStrategyEnemyOpenings@OpponentModel@UAlbertaBot@@AAEXXZ 100609f0 f   OpponentModel.obj
 0001:0005fd40       ?multipleStrategyEnemyOpenings@OpponentModel@UAlbertaBot@@AAEXXZ 10060d40 f   OpponentModel.obj
 0001:00060450       ?reconsiderEnemyPlan@OpponentModel@UAlbertaBot@@AAEXXZ 10061450 f   OpponentModel.obj
 0001:000604c0       ?considerGasSteal@OpponentModel@UAlbertaBot@@AAEXXZ 100614c0 f   OpponentModel.obj
 0001:00060770       ?getExploreOpening@OpponentModel@UAlbertaBot@@AAE?AV?$basic_string@DU?$char_traits@D@std@@V?$allocator@D@2@@std@@ABUOpponentSummary@12@@Z 10061770 f   OpponentModel.obj
 0001:000609a0       ?getOpeningForEnemyPlan@OpponentModel@UAlbertaBot@@AAE?AV?$basic_string@DU?$char_traits@D@std@@V?$allocator@D@2@@std@@W4OpeningPlan@2@@Z 100619a0 f   OpponentModel.obj
 0001:00060a40       ??0OpponentModel@UAlbertaBot@@QAE@XZ 10061a40 f   OpponentModel.obj
 0001:00060c80       ??1OpponentSummary@OpponentModel@UAlbertaBot@@QAE@XZ 10061c80 f i OpponentModel.obj
 0001:00060cb0       ?read@OpponentModel@UAlbertaBot@@QAEXXZ 10061cb0 f   OpponentModel.obj
 0001:00060f10       ??_D?$basic_ifstream@DU?$char_traits@D@std@@@std@@QAEXXZ 10061f10 f i OpponentModel.obj
 0001:00060f50       ?write@OpponentModel@UAlbertaBot@@QAEXXZ 10061f50 f   OpponentModel.obj
 0001:00061150       ?update@OpponentModel@UAlbertaBot@@QAEXXZ 10062150 f   OpponentModel.obj
 0001:000611d0       ?getEnemyPlanString@OpponentModel@UAlbertaBot@@QBE?AV?$basic_string@DU?$char_traits@D@std@@V?$allocator@D@2@@std@@XZ 100621d0 f   OpponentModel.obj
 0001:000611f0       ?getExpectedEnemyPlanString@OpponentModel@UAlbertaBot@@QBE?AV?$basic_string@DU?$char_traits@D@std@@V?$allocator@D@2@@std@@XZ 100621f0 f   OpponentModel.obj
 0001:00061220       ?getDarnLikelyEnemyPlan@OpponentModel@UAlbertaBot@@QBE?AW4OpeningPlan@2@XZ 10062220 f   OpponentModel.obj
 0001:00061280       ?Instance@OpponentModel@UAlbertaBot@@SAAAV12@XZ 10062280 f   OpponentModel.obj
 0001:000612e0       ??1OpponentModel@UAlbertaBot@@QAE@XZ 100622e0 f i OpponentModel.obj
 0001:000613b0       ??1?$vector@U?$pair@V?$basic_string@DU?$char_traits@D@std@@V?$allocator@D@2@@std@@N@std@@V?$allocator@U?$pair@V?$basic_string@DU?$char_traits@D@std@@V?$allocator@D@2@@std@@N@std@@@2@@std@@QAE@XZ 100623b0 f i OpponentModel.obj
 0001:000613f0       ??0?$basic_ifstream@DU?$char_traits@D@std@@@std@@QAE@ABV?$basic_string@DU?$char_traits@D@std@@V?$allocator@D@2@@1@HH@Z 100623f0 f i OpponentModel.obj
 0001:000614f0       ?close@?$basic_ifstream@DU?$char_traits@D@std@@@std@@QAEXXZ 100624f0 f i OpponentModel.obj
 0001:00061570       ??0?$basic_ofstream@DU?$char_traits@D@std@@@std@@QAE@ABV?$basic_string@DU?$char_traits@D@std@@V?$allocator@D@2@@1@HH@Z 10062570 f i OpponentModel.obj
 0001:00061670       ??_G?$basic_ifstream@DU?$char_traits@D@std@@@std@@UAEPAXI@Z 10062670 f i OpponentModel.obj
 0001:00061670       ??_E?$basic_ifstream@DU?$char_traits@D@std@@@std@@UAEPAXI@Z 10062670 f i * CIL library *:* CIL module *
 0001:000616d0       ?_Reserve@?$vector@U?$pair@V?$basic_string@DU?$char_traits@D@std@@V?$allocator@D@2@@std@@N@std@@V?$allocator@U?$pair@V?$basic_string@DU?$char_traits@D@std@@V?$allocator@D@2@@std@@N@std@@@2@@std@@IAEXI@Z 100626d0 f i OpponentModel.obj
 0001:00061740       ?erase@?$_Tree@V?$_Tmap_traits@V?$basic_string@DU?$char_traits@D@std@@V?$allocator@D@2@@std@@UOpeningInfoType@OpponentModel@UAlbertaBot@@U?$less@V?$basic_string@DU?$char_traits@D@std@@V?$allocator@D@2@@std@@@2@V?$allocator@U?$pair@$$CBV?$basic_string@DU?$char_traits@D@std@@V?$allocator@D@2@@std@@UOpeningInfoType@OpponentModel@UAlbertaBot@@@std@@@2@$0A@@std@@@std@@QAE?AV?$_Tree_iterator@V?$_Tree_val@U?$_Tree_simple_types@U?$pair@$$CBV?$basic_string@DU?$char_traits@D@std@@V?$allocator@D@2@@std@@UOpeningInfoType@OpponentModel@UAlbertaBot@@@std@@@std@@@std@@@2@V?$_Tree_const_iterator@V?$_Tree_val@U?$_Tree_simple_types@U?$pair@$$CBV?$basic_string@DU?$char_traits@D@std@@V?$allocator@D@2@@std@@UOpeningInfoType@OpponentModel@UAlbertaBot@@@std@@@std@@@std@@@2@0@Z 10062740 f i OpponentModel.obj
 0001:00061800       ?_Lbound@?$_Tree@V?$_Tmap_traits@V?$basic_string@DU?$char_traits@D@std@@V?$allocator@D@2@@std@@UStrategy@UAlbertaBot@@U?$less@V?$basic_string@DU?$char_traits@D@std@@V?$allocator@D@2@@std@@@2@V?$allocator@U?$pair@$$CBV?$basic_string@DU?$char_traits@D@std@@V?$allocator@D@2@@std@@UStrategy@UAlbertaBot@@@std@@@2@$0A@@std@@@std@@IAEPAU?$_Tree_node@U?$pair@$$CBV?$basic_string@DU?$char_traits@D@std@@V?$allocator@D@2@@std@@UStrategy@UAlbertaBot@@@std@@PAX@2@ABV?$basic_string@DU?$char_traits@D@std@@V?$allocator@D@2@@2@@Z 10062800 f i StrategyManager.obj
 0001:00061800       ?_Lbound@?$_Tree@V?$_Tmap_traits@V?$basic_string@DU?$char_traits@D@std@@V?$allocator@D@2@@std@@VSquad@UAlbertaBot@@U?$less@V?$basic_string@DU?$char_traits@D@std@@V?$allocator@D@2@@std@@@2@V?$allocator@U?$pair@$$CBV?$basic_string@DU?$char_traits@D@std@@V?$allocator@D@2@@std@@VSquad@UAlbertaBot@@@std@@@2@$0A@@std@@@std@@IAEPAU?$_Tree_node@U?$pair@$$CBV?$basic_string@DU?$char_traits@D@std@@V?$allocator@D@2@@std@@VSquad@UAlbertaBot@@@std@@PAX@2@ABV?$basic_string@DU?$char_traits@D@std@@V?$allocator@D@2@@2@@Z 10062800 f i SquadData.obj
 0001:00061800       ?_Lbound@?$_Tree@V?$_Tmap_traits@V?$basic_string@DU?$char_traits@D@std@@V?$allocator@D@2@@std@@UOpeningInfoType@OpponentModel@UAlbertaBot@@U?$less@V?$basic_string@DU?$char_traits@D@std@@V?$allocator@D@2@@std@@@2@V?$allocator@U?$pair@$$CBV?$basic_string@DU?$char_traits@D@std@@V?$allocator@D@2@@std@@UOpeningInfoType@OpponentModel@UAlbertaBot@@@std@@@2@$0A@@std@@@std@@IAEPAU?$_Tree_node@U?$pair@$$CBV?$basic_string@DU?$char_traits@D@std@@V?$allocator@D@2@@std@@UOpeningInfoType@OpponentModel@UAlbertaBot@@@std@@PAX@2@ABV?$basic_string@DU?$char_traits@D@std@@V?$allocator@D@2@@2@@Z 10062800 f i OpponentModel.obj
 0001:000618e0       ?_Destroy@?$vector@U?$pair@V?$basic_string@DU?$char_traits@D@std@@V?$allocator@D@2@@std@@N@std@@V?$allocator@U?$pair@V?$basic_string@DU?$char_traits@D@std@@V?$allocator@D@2@@std@@N@std@@@2@@std@@IAEXPAU?$pair@V?$basic_string@DU?$char_traits@D@std@@V?$allocator@D@2@@std@@N@2@0@Z 100628e0 f i OpponentModel.obj
 0001:00061930       ?_Reallocate@?$vector@U?$pair@V?$basic_string@DU?$char_traits@D@std@@V?$allocator@D@2@@std@@N@std@@V?$allocator@U?$pair@V?$basic_string@DU?$char_traits@D@std@@V?$allocator@D@2@@std@@N@std@@@2@@std@@IAEXI@Z 10062930 f i OpponentModel.obj
 0001:000619c0       ?erase@?$_Tree@V?$_Tmap_traits@V?$basic_string@DU?$char_traits@D@std@@V?$allocator@D@2@@std@@UOpeningInfoType@OpponentModel@UAlbertaBot@@U?$less@V?$basic_string@DU?$char_traits@D@std@@V?$allocator@D@2@@std@@@2@V?$allocator@U?$pair@$$CBV?$basic_string@DU?$char_traits@D@std@@V?$allocator@D@2@@std@@UOpeningInfoType@OpponentModel@UAlbertaBot@@@std@@@2@$0A@@std@@@std@@QAE?AV?$_Tree_iterator@V?$_Tree_val@U?$_Tree_simple_types@U?$pair@$$CBV?$basic_string@DU?$char_traits@D@std@@V?$allocator@D@2@@std@@UOpeningInfoType@OpponentModel@UAlbertaBot@@@std@@@std@@@std@@@2@V?$_Tree_const_iterator@V?$_Tree_val@U?$_Tree_simple_types@U?$pair@$$CBV?$basic_string@DU?$char_traits@D@std@@V?$allocator@D@2@@std@@UOpeningInfoType@OpponentModel@UAlbertaBot@@@std@@@std@@@std@@@2@@Z 100629c0 f i OpponentModel.obj
 0001:00061c60       ?_Erase@?$_Tree@V?$_Tmap_traits@V?$basic_string@DU?$char_traits@D@std@@V?$allocator@D@2@@std@@UOpeningInfoType@OpponentModel@UAlbertaBot@@U?$less@V?$basic_string@DU?$char_traits@D@std@@V?$allocator@D@2@@std@@@2@V?$allocator@U?$pair@$$CBV?$basic_string@DU?$char_traits@D@std@@V?$allocator@D@2@@std@@UOpeningInfoType@OpponentModel@UAlbertaBot@@@std@@@2@$0A@@std@@@std@@IAEXPAU?$_Tree_node@U?$pair@$$CBV?$basic_string@DU?$char_traits@D@std@@V?$allocator@D@2@@std@@UOpeningInfoType@OpponentModel@UAlbertaBot@@@std@@PAX@2@@Z 10062c60 f i OpponentModel.obj
 0001:00061c60       ?_Erase@?$_Tree@V?$_Tmap_traits@V?$basic_string@DU?$char_traits@D@std@@V?$allocator@D@2@@std@@VActionType@BOSS@@U?$less@V?$basic_string@DU?$char_traits@D@std@@V?$allocator@D@2@@std@@@2@V?$allocator@U?$pair@$$CBV?$basic_string@DU?$char_traits@D@std@@V?$allocator@D@2@@std@@VActionType@BOSS@@@std@@@2@$0A@@std@@@std@@IAEXPAU?$_Tree_node@U?$pair@$$CBV?$basic_string@DU?$char_traits@D@std@@V?$allocator@D@2@@std@@VActionType@BOSS@@@std@@PAX@2@@Z 10062c60 f i BOSS:ActionType.obj
 0001:00061cd0       ?_Buyheadnode@?$_Tree_alloc@$0A@U?$_Tree_base_types@U?$pair@$$CBV?$basic_string@DU?$char_traits@D@std@@V?$allocator@D@2@@std@@UOpeningInfoType@OpponentModel@UAlbertaBot@@@std@@V?$allocator@U?$pair@$$CBV?$basic_string@DU?$char_traits@D@std@@V?$allocator@D@2@@std@@UOpeningInfoType@OpponentModel@UAlbertaBot@@@std@@@2@@std@@@std@@QAEPAU?$_Tree_node@U?$pair@$$CBV?$basic_string@DU?$char_traits@D@std@@V?$allocator@D@2@@std@@UOpeningInfoType@OpponentModel@UAlbertaBot@@@std@@PAX@2@XZ 10062cd0 f i OpponentModel.obj
 0001:00061d00       ??$?HDU?$char_traits@D@std@@V?$allocator@D@1@@std@@YA?AV?$basic_string@DU?$char_traits@D@std@@V?$allocator@D@2@@0@PBD$$QAV10@@Z 10062d00 f i OpponentModel.obj
 0001:00061d30       ??$?HDU?$char_traits@D@std@@V?$allocator@D@1@@std@@YA?AV?$basic_string@DU?$char_traits@D@std@@V?$allocator@D@2@@0@ABV10@0@Z 10062d30 f i OpponentModel.obj
 0001:00061df0       ??$_Insert_nohint@ABW4OpeningPlan@UAlbertaBot@@U_Nil@std@@@?$_Tree@V?$_Tset_traits@W4OpeningPlan@UAlbertaBot@@U?$less@W4OpeningPlan@UAlbertaBot@@@std@@V?$allocator@W4OpeningPlan@UAlbertaBot@@@4@$0A@@std@@@std@@IAE?AU?$pair@V?$_Tree_const_iterator@V?$_Tree_val@U?$_Tree_simple_types@W4OpeningPlan@UAlbertaBot@@@std@@@std@@@std@@_N@1@_NABW4OpeningPlan@UAlbertaBot@@U_Nil@1@@Z 10062df0 f i OpponentModel.obj
 0001:00061ef0       ?insert@?$basic_string@DU?$char_traits@D@std@@V?$allocator@D@2@@std@@QAEAAV12@IPBDI@Z 10062ef0 f i OpponentModel.obj
 0001:00061fd0       ?insert@?$basic_string@DU?$char_traits@D@std@@V?$allocator@D@2@@std@@QAEAAV12@IABV12@II@Z 10062fd0 f i OpponentModel.obj
 0001:000620d0       ??$_Buynode@ABUpiecewise_construct_t@std@@V?$tuple@ABV?$basic_string@DU?$char_traits@D@std@@V?$allocator@D@2@@std@@@2@V?$tuple@$$$V@2@@?$_Tree_buy@U?$pair@$$CBV?$basic_string@DU?$char_traits@D@std@@V?$allocator@D@2@@std@@UOpeningInfoType@OpponentModel@UAlbertaBot@@@std@@V?$allocator@U?$pair@$$CBV?$basic_string@DU?$char_traits@D@std@@V?$allocator@D@2@@std@@UOpeningInfoType@OpponentModel@UAlbertaBot@@@std@@@2@@std@@QAEPAU?$_Tree_node@U?$pair@$$CBV?$basic_string@DU?$char_traits@D@std@@V?$allocator@D@2@@std@@UOpeningInfoType@OpponentModel@UAlbertaBot@@@std@@PAX@1@ABUpiecewise_construct_t@1@$$QAV?$tuple@ABV?$basic_string@DU?$char_traits@D@std@@V?$allocator@D@2@@std@@@1@$$QAV?$tuple@$$$V@1@@Z 100630d0 f i OpponentModel.obj
 0001:00062190       ??$_Insert_hint@AAU?$pair@$$CBV?$basic_string@DU?$char_traits@D@std@@V?$allocator@D@2@@std@@UOpeningInfoType@OpponentModel@UAlbertaBot@@@std@@PAU?$_Tree_node@U?$pair@$$CBV?$basic_string@DU?$char_traits@D@std@@V?$allocator@D@2@@std@@UOpeningInfoType@OpponentModel@UAlbertaBot@@@std@@PAX@2@@?$_Tree@V?$_Tmap_traits@V?$basic_string@DU?$char_traits@D@std@@V?$allocator@D@2@@std@@UOpeningInfoType@OpponentModel@UAlbertaBot@@U?$less@V?$basic_string@DU?$char_traits@D@std@@V?$allocator@D@2@@std@@@2@V?$allocator@U?$pair@$$CBV?$basic_string@DU?$char_traits@D@std@@V?$allocator@D@2@@std@@UOpeningInfoType@OpponentModel@UAlbertaBot@@@std@@@2@$0A@@std@@@std@@IAE?AV?$_Tree_iterator@V?$_Tree_val@U?$_Tree_simple_types@U?$pair@$$CBV?$basic_string@DU?$char_traits@D@std@@V?$allocator@D@2@@std@@UOpeningInfoType@OpponentModel@UAlbertaBot@@@std@@@std@@@std@@@1@V?$_Tree_const_iterator@V?$_Tree_val@U?$_Tree_simple_types@U?$pair@$$CBV?$basic_string@DU?$char_traits@D@std@@V?$allocator@D@2@@std@@UOpeningInfoType@OpponentModel@UAlbertaBot@@@std@@@std@@@std@@@1@AAU?$pair@$$CBV?$basic_string@DU?$char_traits@D@std@@V?$allocator@D@2@@std@@UOpeningInfoType@OpponentModel@UAlbertaBot@@@1@PAU?$_Tree_node@U?$pair@$$CBV?$basic_string@DU?$char_traits@D@std@@V?$allocator@D@2@@std@@UOpeningInfoType@OpponentModel@UAlbertaBot@@@std@@PAX@1@@Z 10063190 f i OpponentModel.obj
 0001:000623d0       ?_Destroy_if_not_nil@?$_Tree@V?$_Tmap_traits@V?$basic_string@DU?$char_traits@D@std@@V?$allocator@D@2@@std@@VActionType@BOSS@@U?$less@V?$basic_string@DU?$char_traits@D@std@@V?$allocator@D@2@@std@@@2@V?$allocator@U?$pair@$$CBV?$basic_string@DU?$char_traits@D@std@@V?$allocator@D@2@@std@@VActionType@BOSS@@@std@@@2@$0A@@std@@@std@@IAEXPAU?$_Tree_node@U?$pair@$$CBV?$basic_string@DU?$char_traits@D@std@@V?$allocator@D@2@@std@@VActionType@BOSS@@@std@@PAX@2@@Z 100633d0 f i BOSS:ActionType.obj
 0001:000623d0       ?_Destroy_if_not_nil@?$_Tree@V?$_Tmap_traits@V?$basic_string@DU?$char_traits@D@std@@V?$allocator@D@2@@std@@UOpeningInfoType@OpponentModel@UAlbertaBot@@U?$less@V?$basic_string@DU?$char_traits@D@std@@V?$allocator@D@2@@std@@@2@V?$allocator@U?$pair@$$CBV?$basic_string@DU?$char_traits@D@std@@V?$allocator@D@2@@std@@UOpeningInfoType@OpponentModel@UAlbertaBot@@@std@@@2@$0A@@std@@@std@@IAEXPAU?$_Tree_node@U?$pair@$$CBV?$basic_string@DU?$char_traits@D@std@@V?$allocator@D@2@@std@@UOpeningInfoType@OpponentModel@UAlbertaBot@@@std@@PAX@2@@Z 100633d0 f i OpponentModel.obj
 0001:00062410       ?_Buynode0@?$_Tree_buy@U?$pair@$$CBV?$basic_string@DU?$char_traits@D@std@@V?$allocator@D@2@@std@@UOpeningInfoType@OpponentModel@UAlbertaBot@@@std@@V?$allocator@U?$pair@$$CBV?$basic_string@DU?$char_traits@D@std@@V?$allocator@D@2@@std@@UOpeningInfoType@OpponentModel@UAlbertaBot@@@std@@@2@@std@@QAEPAU?$_Tree_node@U?$pair@$$CBV?$basic_string@DU?$char_traits@D@std@@V?$allocator@D@2@@std@@UOpeningInfoType@OpponentModel@UAlbertaBot@@@std@@PAX@2@XZ 10063410 f i OpponentModel.obj
 0001:00062450       ??$_Insert_at@AAU?$pair@$$CBV?$basic_string@DU?$char_traits@D@std@@V?$allocator@D@2@@std@@UOpeningInfoType@OpponentModel@UAlbertaBot@@@std@@PAU?$_Tree_node@U?$pair@$$CBV?$basic_string@DU?$char_traits@D@std@@V?$allocator@D@2@@std@@UOpeningInfoType@OpponentModel@UAlbertaBot@@@std@@PAX@2@@?$_Tree@V?$_Tmap_traits@V?$basic_string@DU?$char_traits@D@std@@V?$allocator@D@2@@std@@UOpeningInfoType@OpponentModel@UAlbertaBot@@U?$less@V?$basic_string@DU?$char_traits@D@std@@V?$allocator@D@2@@std@@@2@V?$allocator@U?$pair@$$CBV?$basic_string@DU?$char_traits@D@std@@V?$allocator@D@2@@std@@UOpeningInfoType@OpponentModel@UAlbertaBot@@@std@@@2@$0A@@std@@@std@@IAE?AV?$_Tree_iterator@V?$_Tree_val@U?$_Tree_simple_types@U?$pair@$$CBV?$basic_string@DU?$char_traits@D@std@@V?$allocator@D@2@@std@@UOpeningInfoType@OpponentModel@UAlbertaBot@@@std@@@std@@@std@@@1@_NPAU?$_Tree_node@U?$pair@$$CBV?$basic_string@DU?$char_traits@D@std@@V?$allocator@D@2@@std@@UOpeningInfoType@OpponentModel@UAlbertaBot@@@std@@PAX@1@AAU?$pair@$$CBV?$basic_string@DU?$char_traits@D@std@@V?$allocator@D@2@@std@@UOpeningInfoType@OpponentModel@UAlbertaBot@@@1@1@Z 10063450 f i OpponentModel.obj
 0001:00062650       ??$_Insert_nohint@AAU?$pair@$$CBV?$basic_string@DU?$char_traits@D@std@@V?$allocator@D@2@@std@@UOpeningInfoType@OpponentModel@UAlbertaBot@@@std@@PAU?$_Tree_node@U?$pair@$$CBV?$basic_string@DU?$char_traits@D@std@@V?$allocator@D@2@@std@@UOpeningInfoType@OpponentModel@UAlbertaBot@@@std@@PAX@2@@?$_Tree@V?$_Tmap_traits@V?$basic_string@DU?$char_traits@D@std@@V?$allocator@D@2@@std@@UOpeningInfoType@OpponentModel@UAlbertaBot@@U?$less@V?$basic_string@DU?$char_traits@D@std@@V?$allocator@D@2@@std@@@2@V?$allocator@U?$pair@$$CBV?$basic_string@DU?$char_traits@D@std@@V?$allocator@D@2@@std@@UOpeningInfoType@OpponentModel@UAlbertaBot@@@std@@@2@$0A@@std@@@std@@IAE?AU?$pair@V?$_Tree_iterator@V?$_Tree_val@U?$_Tree_simple_types@U?$pair@$$CBV?$basic_string@DU?$char_traits@D@std@@V?$allocator@D@2@@std@@UOpeningInfoType@OpponentModel@UAlbertaBot@@@std@@@std@@@std@@@std@@_N@1@_NAAU?$pair@$$CBV?$basic_string@DU?$char_traits@D@std@@V?$allocator@D@2@@std@@UOpeningInfoType@OpponentModel@UAlbertaBot@@@1@PAU?$_Tree_node@U?$pair@$$CBV?$basic_string@DU?$char_traits@D@std@@V?$allocator@D@2@@std@@UOpeningInfoType@OpponentModel@UAlbertaBot@@@std@@PAX@1@@Z 10063650 f i OpponentModel.obj
 0001:00062840       ??$_Uninit_move@PAU?$pair@V?$basic_string@DU?$char_traits@D@std@@V?$allocator@D@2@@std@@N@std@@PAU12@V?$allocator@U?$pair@V?$basic_string@DU?$char_traits@D@std@@V?$allocator@D@2@@std@@N@std@@@2@U12@@std@@YAPAU?$pair@V?$basic_string@DU?$char_traits@D@std@@V?$allocator@D@2@@std@@N@0@PAU10@00AAU?$_Wrap_alloc@V?$allocator@U?$pair@V?$basic_string@DU?$char_traits@D@std@@V?$allocator@D@2@@std@@N@std@@@std@@@0@0U_Nonscalar_ptr_iterator_tag@0@@Z 10063840 f i OpponentModel.obj
 0001:000628cf       ??_E?$basic_ifstream@DU?$char_traits@D@std@@@std@@$4PPPPPPPM@A@AEPAXI@Z 100638cf f i OpponentModel.obj
 0001:000628e0       ?recognizeWorkerRush@OpponentPlan@UAlbertaBot@@AAE_NXZ 100638e0 f   OpponentPlan.obj
 0001:00062ac0       ?recognizeFactoryTech@OpponentPlan@UAlbertaBot@@AAE_NXZ 10063ac0 f   OpponentPlan.obj
 0001:00062d00       ?recognize@OpponentPlan@UAlbertaBot@@AAEXXZ 10063d00 f   OpponentPlan.obj
 0001:000630b0       ?add@UnitCluster@UAlbertaBot@@QAEXABUUnitInfo@2@@Z 100640b0 f   OpsBoss.obj
 0001:000631c0       ?draw@UnitCluster@UAlbertaBot@@QBEXVColor@BWAPI@@ABV?$basic_string@DU?$char_traits@D@std@@V?$allocator@D@2@@std@@@Z 100641c0 f   OpsBoss.obj
 0001:000632a0       ?locateCluster@OpsBoss@UAlbertaBot@@AAEXABV?$vector@V?$Point@H$00@BWAPI@@V?$allocator@V?$Point@H$00@BWAPI@@@std@@@std@@AAVUnitCluster@2@@Z 100642a0 f   OpsBoss.obj
 0001:000633c0       ?formCluster@OpsBoss@UAlbertaBot@@AAEXABUUnitInfo@2@ABV?$map@PAVUnitInterface@BWAPI@@UUnitInfo@UAlbertaBot@@U?$less@PAVUnitInterface@BWAPI@@@std@@V?$allocator@U?$pair@QAVUnitInterface@BWAPI@@UUnitInfo@UAlbertaBot@@@std@@@6@@std@@AAVUnitset@BWAPI@@AAVUnitCluster@2@@Z 100643c0 f   OpsBoss.obj
 0001:00063730       ?clusterUnits@OpsBoss@UAlbertaBot@@AAEXAAVUnitset@BWAPI@@AAV?$vector@VUnitCluster@UAlbertaBot@@V?$allocator@VUnitCluster@UAlbertaBot@@@std@@@std@@@Z 10064730 f   OpsBoss.obj
 0001:00063ae0       ??1UnitCluster@UAlbertaBot@@QAE@XZ 10064ae0 f i OpsBoss.obj
 0001:00063af0       ?cluster@OpsBoss@UAlbertaBot@@QAEXABVUnitset@BWAPI@@AAV?$vector@VUnitCluster@UAlbertaBot@@V?$allocator@VUnitCluster@UAlbertaBot@@@std@@@std@@@Z 10064af0 f   OpsBoss.obj
 0001:00063ba0       ??1?$vector@VUnitCluster@UAlbertaBot@@V?$allocator@VUnitCluster@UAlbertaBot@@@std@@@std@@QAE@XZ 10064ba0 f i OpsBoss.obj
 0001:00063ba0       ?_Tidy@?$vector@VUnitCluster@UAlbertaBot@@V?$allocator@VUnitCluster@UAlbertaBot@@@std@@@std@@IAEXXZ 10064ba0 f i OpsBoss.obj
 0001:00063be0       ?_Reserve@?$vector@VUnitCluster@UAlbertaBot@@V?$allocator@VUnitCluster@UAlbertaBot@@@std@@@std@@IAEXI@Z 10064be0 f i OpsBoss.obj
 0001:00063c80       ?_Reallocate@?$vector@VUnitCluster@UAlbertaBot@@V?$allocator@VUnitCluster@UAlbertaBot@@@std@@@std@@IAEXI@Z 10064c80 f i OpsBoss.obj
 0001:00063d70       ??$_Destroy_range@U?$_Wrap_alloc@V?$allocator@VUnitCluster@UAlbertaBot@@@std@@@std@@@std@@YAXPAVUnitCluster@UAlbertaBot@@0AAU?$_Wrap_alloc@V?$allocator@VUnitCluster@UAlbertaBot@@@std@@@0@U_Nonscalar_ptr_iterator_tag@0@@Z 10064d70 f i OpsBoss.obj
 0001:00063df0       ??0UnitCluster@UAlbertaBot@@QAE@ABV01@@Z 10064df0 f i OpsBoss.obj
 0001:00063ed0       ??$_Uninit_move@PAVUnitCluster@UAlbertaBot@@PAV12@V?$allocator@VUnitCluster@UAlbertaBot@@@std@@V12@@std@@YAPAVUnitCluster@UAlbertaBot@@PAV12@00AAU?$_Wrap_alloc@V?$allocator@VUnitCluster@UAlbertaBot@@@std@@@0@0U_Nonscalar_ptr_iterator_tag@0@@Z 10064ed0 f i OpsBoss.obj
 0001:00063f70       ?StrtodNormalPrecision@internal@rapidjson@@YANNH@Z 10064f70 f i ParseUtils.obj
 0001:00063fe0       ??0Strategy@UAlbertaBot@@QAE@ABV?$basic_string@DU?$char_traits@D@std@@V?$allocator@D@2@@std@@ABVRace@BWAPI@@0ABVBuildOrder@1@@Z 10064fe0 f i ParseUtils.obj
 0001:00064090       ?ParseConfigFile@ParseUtils@UAlbertaBot@@YAXABV?$basic_string@DU?$char_traits@D@std@@V?$allocator@D@2@@std@@@Z 10065090 f   ParseUtils.obj
 0001:00065b80       ??1Strategy@UAlbertaBot@@QAE@XZ 10066b80 f i ParseUtils.obj
 0001:00065bf0       ?ParseTextCommand@ParseUtils@UAlbertaBot@@YAXABV?$basic_string@DU?$char_traits@D@std@@V?$allocator@D@2@@std@@@Z 10066bf0 f   ParseUtils.obj
 0001:00066520       ?GetRace@ParseUtils@UAlbertaBot@@YA?AVRace@BWAPI@@ABV?$basic_string@DU?$char_traits@D@std@@V?$allocator@D@2@@std@@@Z 10067520 f   ParseUtils.obj
 0001:00066640       ?_ParseStrategy@ParseUtils@UAlbertaBot@@YA_NABV?$GenericValue@U?$UTF8@D@rapidjson@@V?$MemoryPoolAllocator@VCrtAllocator@rapidjson@@@2@@rapidjson@@AAV?$basic_string@DU?$char_traits@D@std@@V?$allocator@D@2@@std@@ABV56@2PBV34@@Z 10067640 f   ParseUtils.obj
 0001:00066bc0       ?_LookUpStrategyCombo@ParseUtils@UAlbertaBot@@YA_NABV?$GenericValue@U?$UTF8@D@rapidjson@@V?$MemoryPoolAllocator@VCrtAllocator@rapidjson@@@2@@rapidjson@@AAV?$basic_string@DU?$char_traits@D@std@@V?$allocator@D@2@@std@@ABV56@2PBV34@@Z 10067bc0 f   ParseUtils.obj
 0001:00066cf0       ?GetBoolFromString@ParseUtils@UAlbertaBot@@YA_NABV?$basic_string@DU?$char_traits@D@std@@V?$allocator@D@2@@std@@@Z 10067cf0 f   ParseUtils.obj
 0001:00066e50       ?GetIntByRace@ParseUtils@UAlbertaBot@@YAHPBDABV?$GenericValue@U?$UTF8@D@rapidjson@@V?$MemoryPoolAllocator@VCrtAllocator@rapidjson@@@2@@rapidjson@@@Z 10067e50 f   ParseUtils.obj
 0001:00067030       ?GetDoubleByRace@ParseUtils@UAlbertaBot@@YANPBDABV?$GenericValue@U?$UTF8@D@rapidjson@@V?$MemoryPoolAllocator@VCrtAllocator@rapidjson@@@2@@rapidjson@@@Z 10068030 f   ParseUtils.obj
 0001:00067220       ?GetBoolByRace@ParseUtils@UAlbertaBot@@YA_NPBDABV?$GenericValue@U?$UTF8@D@rapidjson@@V?$MemoryPoolAllocator@VCrtAllocator@rapidjson@@@2@@rapidjson@@@Z 10068220 f   ParseUtils.obj
 0001:00067420       ??0?$GenericDocument@U?$UTF8@D@rapidjson@@V?$MemoryPoolAllocator@VCrtAllocator@rapidjson@@@2@VCrtAllocator@2@@rapidjson@@QAE@PAV?$MemoryPoolAllocator@VCrtAllocator@rapidjson@@@1@IPAVCrtAllocator@1@@Z 10068420 f i ParseUtils.obj
 0001:00067500       ??1?$GenericDocument@U?$UTF8@D@rapidjson@@V?$MemoryPoolAllocator@VCrtAllocator@rapidjson@@@2@VCrtAllocator@2@@rapidjson@@QAE@XZ 10068500 f i ParseUtils.obj
 0001:00067540       ?GetDouble@?$GenericValue@U?$UTF8@D@rapidjson@@V?$MemoryPoolAllocator@VCrtAllocator@rapidjson@@@2@@rapidjson@@QBENXZ 10068540 f i ParseUtils.obj
 0001:000675a0       ?at@?$vector@$$CBV?$basic_string@DU?$char_traits@D@std@@V?$allocator@D@2@@std@@V?$allocator@$$CBV?$basic_string@DU?$char_traits@D@std@@V?$allocator@D@2@@std@@@2@@std@@QAEAAV?$basic_string@DU?$char_traits@D@std@@V?$allocator@D@2@@2@I@Z 100685a0 f i ParseUtils.obj
 0001:000675e0       ?push_back@?$vector@$$CBV?$basic_string@DU?$char_traits@D@std@@V?$allocator@D@2@@std@@V?$allocator@$$CBV?$basic_string@DU?$char_traits@D@std@@V?$allocator@D@2@@std@@@2@@std@@QAEXABV?$basic_string@DU?$char_traits@D@std@@V?$allocator@D@2@@2@@Z 100685e0 f i ParseUtils.obj
 0001:000676a0       ?push_back@?$vector@V?$basic_string@DU?$char_traits@D@std@@V?$allocator@D@2@@std@@V?$allocator@V?$basic_string@DU?$char_traits@D@std@@V?$allocator@D@2@@std@@@2@@std@@QAEX$$QAV?$basic_string@DU?$char_traits@D@std@@V?$allocator@D@2@@2@@Z 100686a0 f i ParseUtils.obj
 0001:00067720       ??1?$Stack@VCrtAllocator@rapidjson@@@internal@rapidjson@@QAE@XZ 10068720 f i ParseUtils.obj
 0001:00067720       ??1?$GenericReader@U?$UTF8@D@rapidjson@@U12@VCrtAllocator@2@@rapidjson@@QAE@XZ 10068720 f i ParseUtils.obj
 0001:00067740       ?_Reserve@?$vector@$$CBV?$basic_string@DU?$char_traits@D@std@@V?$allocator@D@2@@std@@V?$allocator@$$CBV?$basic_string@DU?$char_traits@D@std@@V?$allocator@D@2@@std@@@2@@std@@IAEXI@Z 10068740 f i ParseUtils.obj
 0001:00067740       ?_Reserve@?$vector@V?$basic_string@DU?$char_traits@D@std@@V?$allocator@D@2@@std@@V?$allocator@V?$basic_string@DU?$char_traits@D@std@@V?$allocator@D@2@@std@@@2@@std@@IAEXI@Z 10068740 f i ParseUtils.obj
 0001:000677e0       ?_Reallocate@?$vector@$$CBV?$basic_string@DU?$char_traits@D@std@@V?$allocator@D@2@@std@@V?$allocator@$$CBV?$basic_string@DU?$char_traits@D@std@@V?$allocator@D@2@@std@@@2@@std@@IAEXI@Z 100687e0 f i ParseUtils.obj
 0001:000677e0       ?_Reallocate@?$vector@V?$basic_string@DU?$char_traits@D@std@@V?$allocator@D@2@@std@@V?$allocator@V?$basic_string@DU?$char_traits@D@std@@V?$allocator@D@2@@std@@@2@@std@@IAEXI@Z 100687e0 f i ParseUtils.obj
 0001:00067880       ?Clear@?$MemoryPoolAllocator@VCrtAllocator@rapidjson@@@rapidjson@@QAEXXZ 10068880 f i ParseUtils.obj
 0001:000678d0       ??$?HDU?$char_traits@D@std@@V?$allocator@D@1@@std@@YA?AV?$basic_string@DU?$char_traits@D@std@@V?$allocator@D@2@@0@$$QAV10@D@Z 100688d0 f i ParseUtils.obj
 0001:00067900       ??$?HDU?$char_traits@D@std@@V?$allocator@D@1@@std@@YA?AV?$basic_string@DU?$char_traits@D@std@@V?$allocator@D@2@@0@$$QAV10@0@Z 10068900 f i ParseUtils.obj
 0001:00067960       ??$ReadInt@H@JSONTools@UAlbertaBot@@YAXPBDABV?$GenericValue@U?$UTF8@D@rapidjson@@V?$MemoryPoolAllocator@VCrtAllocator@rapidjson@@@2@@rapidjson@@AAH@Z 10068960 f i ParseUtils.obj
 0001:00067a40       ??$?5DU?$char_traits@D@std@@V?$allocator@D@1@@std@@YAAAV?$basic_istream@DU?$char_traits@D@std@@@0@$$QAV10@AAV?$basic_string@DU?$char_traits@D@std@@V?$allocator@D@2@@0@@Z 10068a40 f i ParseUtils.obj
 0001:00067c00       ??$ParseStream@$0A@U?$UTF8@D@rapidjson@@U?$GenericStringStream@U?$UTF8@D@rapidjson@@@2@@?$GenericDocument@U?$UTF8@D@rapidjson@@V?$MemoryPoolAllocator@VCrtAllocator@rapidjson@@@2@VCrtAllocator@2@@rapidjson@@QAEAAV01@AAU?$GenericStringStream@U?$UTF8@D@rapidjson@@@1@@Z 10068c00 f i ParseUtils.obj
 0001:00067cf0       ??1ClearStackOnExit@?$GenericDocument@U?$UTF8@D@rapidjson@@V?$MemoryPoolAllocator@VCrtAllocator@rapidjson@@@2@VCrtAllocator@2@@rapidjson@@QAE@XZ 10068cf0 f i ParseUtils.obj
 0001:00067d00       ?ShrinkToFit@?$Stack@VCrtAllocator@rapidjson@@@internal@rapidjson@@QAEXXZ 10068d00 f i ParseUtils.obj
 0001:00067d70       ??$Parse@$0A@U?$GenericStringStream@U?$UTF8@D@rapidjson@@@rapidjson@@V?$GenericDocument@U?$UTF8@D@rapidjson@@V?$MemoryPoolAllocator@VCrtAllocator@rapidjson@@@2@VCrtAllocator@2@@2@@?$GenericReader@U?$UTF8@D@rapidjson@@U12@VCrtAllocator@2@@rapidjson@@QAE?AUParseResult@1@AAU?$GenericStringStream@U?$UTF8@D@rapidjson@@@1@AAV?$GenericDocument@U?$UTF8@D@rapidjson@@V?$MemoryPoolAllocator@VCrtAllocator@rapidjson@@@2@VCrtAllocator@2@@1@@Z 10068d70 f i ParseUtils.obj
 0001:00067e40       ??$_Uninit_move@PAV?$basic_string@DU?$char_traits@D@std@@V?$allocator@D@2@@std@@PAV12@V?$allocator@V?$basic_string@DU?$char_traits@D@std@@V?$allocator@D@2@@std@@@2@V12@@std@@YAPAV?$basic_string@DU?$char_traits@D@std@@V?$allocator@D@2@@0@PAV10@00AAU?$_Wrap_alloc@V?$allocator@V?$basic_string@DU?$char_traits@D@std@@V?$allocator@D@2@@std@@@std@@@0@0U_Nonscalar_ptr_iterator_tag@0@@Z 10068e40 f i ParseUtils.obj
 0001:00067e40       ??$_Uninit_move@PAV?$basic_string@DU?$char_traits@D@std@@V?$allocator@D@2@@std@@PAV12@V?$allocator@$$CBV?$basic_string@DU?$char_traits@D@std@@V?$allocator@D@2@@std@@@2@V12@@std@@YAPAV?$basic_string@DU?$char_traits@D@std@@V?$allocator@D@2@@0@PAV10@00AAU?$_Wrap_alloc@V?$allocator@$$CBV?$basic_string@DU?$char_traits@D@std@@V?$allocator@D@2@@std@@@std@@@0@0U_Nonscalar_ptr_iterator_tag@0@@Z 10068e40 f i ParseUtils.obj
 0001:00067ed0       ??1ClearStackOnExit@?$GenericReader@U?$UTF8@D@rapidjson@@U12@VCrtAllocator@2@@rapidjson@@QAE@XZ 10068ed0 f i ParseUtils.obj
 0001:00067ee0       ??$SkipWhitespace@U?$GenericStringStream@U?$UTF8@D@rapidjson@@@rapidjson@@@rapidjson@@YAXAAU?$GenericStringStream@U?$UTF8@D@rapidjson@@@0@@Z 10068ee0 f i ParseUtils.obj
 0001:00067f10       ??$ParseValue@$0A@U?$GenericStringStream@U?$UTF8@D@rapidjson@@@rapidjson@@V?$GenericDocument@U?$UTF8@D@rapidjson@@V?$MemoryPoolAllocator@VCrtAllocator@rapidjson@@@2@VCrtAllocator@2@@2@@?$GenericReader@U?$UTF8@D@rapidjson@@U12@VCrtAllocator@2@@rapidjson@@AAEXAAU?$GenericStringStream@U?$UTF8@D@rapidjson@@@1@AAV?$GenericDocument@U?$UTF8@D@rapidjson@@V?$MemoryPoolAllocator@VCrtAllocator@rapidjson@@@2@VCrtAllocator@2@@1@@Z 10068f10 f i ParseUtils.obj
 0001:00068020       ??1?$StreamLocalCopy@U?$GenericStringStream@U?$UTF8@D@rapidjson@@@rapidjson@@$00@internal@rapidjson@@QAE@XZ 10069020 f i ParseUtils.obj
 0001:00068030       ??$ParseNull@$0A@U?$GenericStringStream@U?$UTF8@D@rapidjson@@@rapidjson@@V?$GenericDocument@U?$UTF8@D@rapidjson@@V?$MemoryPoolAllocator@VCrtAllocator@rapidjson@@@2@VCrtAllocator@2@@2@@?$GenericReader@U?$UTF8@D@rapidjson@@U12@VCrtAllocator@2@@rapidjson@@AAEXAAU?$GenericStringStream@U?$UTF8@D@rapidjson@@@1@AAV?$GenericDocument@U?$UTF8@D@rapidjson@@V?$MemoryPoolAllocator@VCrtAllocator@rapidjson@@@2@VCrtAllocator@2@@1@@Z 10069030 f i ParseUtils.obj
 0001:000680a0       ??$ParseTrue@$0A@U?$GenericStringStream@U?$UTF8@D@rapidjson@@@rapidjson@@V?$GenericDocument@U?$UTF8@D@rapidjson@@V?$MemoryPoolAllocator@VCrtAllocator@rapidjson@@@2@VCrtAllocator@2@@2@@?$GenericReader@U?$UTF8@D@rapidjson@@U12@VCrtAllocator@2@@rapidjson@@AAEXAAU?$GenericStringStream@U?$UTF8@D@rapidjson@@@1@AAV?$GenericDocument@U?$UTF8@D@rapidjson@@V?$MemoryPoolAllocator@VCrtAllocator@rapidjson@@@2@VCrtAllocator@2@@1@@Z 100690a0 f i ParseUtils.obj
 0001:00068130       ??$ParseFalse@$0A@U?$GenericStringStream@U?$UTF8@D@rapidjson@@@rapidjson@@V?$GenericDocument@U?$UTF8@D@rapidjson@@V?$MemoryPoolAllocator@VCrtAllocator@rapidjson@@@2@VCrtAllocator@2@@2@@?$GenericReader@U?$UTF8@D@rapidjson@@U12@VCrtAllocator@2@@rapidjson@@AAEXAAU?$GenericStringStream@U?$UTF8@D@rapidjson@@@1@AAV?$GenericDocument@U?$UTF8@D@rapidjson@@V?$MemoryPoolAllocator@VCrtAllocator@rapidjson@@@2@VCrtAllocator@2@@1@@Z 10069130 f i ParseUtils.obj
 0001:000681c0       ??$ParseString@$0A@U?$GenericStringStream@U?$UTF8@D@rapidjson@@@rapidjson@@V?$GenericDocument@U?$UTF8@D@rapidjson@@V?$MemoryPoolAllocator@VCrtAllocator@rapidjson@@@2@VCrtAllocator@2@@2@@?$GenericReader@U?$UTF8@D@rapidjson@@U12@VCrtAllocator@2@@rapidjson@@AAEXAAU?$GenericStringStream@U?$UTF8@D@rapidjson@@@1@AAV?$GenericDocument@U?$UTF8@D@rapidjson@@V?$MemoryPoolAllocator@VCrtAllocator@rapidjson@@@2@VCrtAllocator@2@@1@_N@Z 100691c0 f i ParseUtils.obj
 0001:00068280       ??$ParseObject@$0A@U?$GenericStringStream@U?$UTF8@D@rapidjson@@@rapidjson@@V?$GenericDocument@U?$UTF8@D@rapidjson@@V?$MemoryPoolAllocator@VCrtAllocator@rapidjson@@@2@VCrtAllocator@2@@2@@?$GenericReader@U?$UTF8@D@rapidjson@@U12@VCrtAllocator@2@@rapidjson@@AAEXAAU?$GenericStringStream@U?$UTF8@D@rapidjson@@@1@AAV?$GenericDocument@U?$UTF8@D@rapidjson@@V?$MemoryPoolAllocator@VCrtAllocator@rapidjson@@@2@VCrtAllocator@2@@1@@Z 10069280 f i ParseUtils.obj
 0001:00068560       ??$ParseArray@$0A@U?$GenericStringStream@U?$UTF8@D@rapidjson@@@rapidjson@@V?$GenericDocument@U?$UTF8@D@rapidjson@@V?$MemoryPoolAllocator@VCrtAllocator@rapidjson@@@2@VCrtAllocator@2@@2@@?$GenericReader@U?$UTF8@D@rapidjson@@U12@VCrtAllocator@2@@rapidjson@@AAEXAAU?$GenericStringStream@U?$UTF8@D@rapidjson@@@1@AAV?$GenericDocument@U?$UTF8@D@rapidjson@@V?$MemoryPoolAllocator@VCrtAllocator@rapidjson@@@2@VCrtAllocator@2@@1@@Z 10069560 f i ParseUtils.obj
 0001:000686b0       ??$ParseNumber@$0A@U?$GenericStringStream@U?$UTF8@D@rapidjson@@@rapidjson@@V?$GenericDocument@U?$UTF8@D@rapidjson@@V?$MemoryPoolAllocator@VCrtAllocator@rapidjson@@@2@VCrtAllocator@2@@2@@?$GenericReader@U?$UTF8@D@rapidjson@@U12@VCrtAllocator@2@@rapidjson@@AAEXAAU?$GenericStringStream@U?$UTF8@D@rapidjson@@@1@AAV?$GenericDocument@U?$UTF8@D@rapidjson@@V?$MemoryPoolAllocator@VCrtAllocator@rapidjson@@@2@VCrtAllocator@2@@1@@Z 100696b0 f i ParseUtils.obj
 0001:00068d30       ?Null@?$GenericDocument@U?$UTF8@D@rapidjson@@V?$MemoryPoolAllocator@VCrtAllocator@rapidjson@@@2@VCrtAllocator@2@@rapidjson@@AAE_NXZ 10069d30 f i ParseUtils.obj
 0001:00068d70       ?Int@?$GenericDocument@U?$UTF8@D@rapidjson@@V?$MemoryPoolAllocator@VCrtAllocator@rapidjson@@@2@VCrtAllocator@2@@rapidjson@@AAE_NH@Z 10069d70 f i ParseUtils.obj
 0001:00068dd0       ?Uint@?$GenericDocument@U?$UTF8@D@rapidjson@@V?$MemoryPoolAllocator@VCrtAllocator@rapidjson@@@2@VCrtAllocator@2@@rapidjson@@AAE_NI@Z 10069dd0 f i ParseUtils.obj
 0001:00068e30       ?String@?$GenericDocument@U?$UTF8@D@rapidjson@@V?$MemoryPoolAllocator@VCrtAllocator@rapidjson@@@2@VCrtAllocator@2@@rapidjson@@AAE_NPBDI_N@Z 10069e30 f i ParseUtils.obj
 0001:00068e30       ?Key@?$GenericDocument@U?$UTF8@D@rapidjson@@V?$MemoryPoolAllocator@VCrtAllocator@rapidjson@@@2@VCrtAllocator@2@@rapidjson@@AAE_NPBDI_N@Z 10069e30 f i ParseUtils.obj
 0001:00068ec0       ??0?$GenericValue@U?$UTF8@D@rapidjson@@V?$MemoryPoolAllocator@VCrtAllocator@rapidjson@@@2@@rapidjson@@QAE@_J@Z 10069ec0 f i ParseUtils.obj
 0001:00068f30       ??0?$GenericValue@U?$UTF8@D@rapidjson@@V?$MemoryPoolAllocator@VCrtAllocator@rapidjson@@@2@@rapidjson@@QAE@_K@Z 10069f30 f i ParseUtils.obj
 0001:00068f90       ?SetArrayRaw@?$GenericValue@U?$UTF8@D@rapidjson@@V?$MemoryPoolAllocator@VCrtAllocator@rapidjson@@@2@@rapidjson@@AAEXPAV12@IAAV?$MemoryPoolAllocator@VCrtAllocator@rapidjson@@@2@@Z 10069f90 f i ParseUtils.obj
 0001:00069040       ?SetObjectRaw@?$GenericValue@U?$UTF8@D@rapidjson@@V?$MemoryPoolAllocator@VCrtAllocator@rapidjson@@@2@@rapidjson@@AAEXPAU?$GenericMember@U?$UTF8@D@rapidjson@@V?$MemoryPoolAllocator@VCrtAllocator@rapidjson@@@2@@2@IAAV?$MemoryPoolAllocator@VCrtAllocator@rapidjson@@@2@@Z 1006a040 f i ParseUtils.obj
 0001:000690f0       ?SetStringRaw@?$GenericValue@U?$UTF8@D@rapidjson@@V?$MemoryPoolAllocator@VCrtAllocator@rapidjson@@@2@@rapidjson@@AAEXU?$GenericStringRef@D@2@AAV?$MemoryPoolAllocator@VCrtAllocator@rapidjson@@@2@@Z 1006a0f0 f i ParseUtils.obj
 0001:00069180       ?AddChunk@?$MemoryPoolAllocator@VCrtAllocator@rapidjson@@@rapidjson@@AAEXI@Z 1006a180 f i ParseUtils.obj
 0001:000691e0       ??$ParseStringToStream@$0A@U?$UTF8@D@rapidjson@@U12@U?$GenericStringStream@U?$UTF8@D@rapidjson@@@2@V?$StackStream@D@?$GenericReader@U?$UTF8@D@rapidjson@@U12@VCrtAllocator@2@@2@@?$GenericReader@U?$UTF8@D@rapidjson@@U12@VCrtAllocator@2@@rapidjson@@AAEXAAU?$GenericStringStream@U?$UTF8@D@rapidjson@@@1@AAV?$StackStream@D@01@@Z 1006a1e0 f i ParseUtils.obj
 0001:000693d0       ??$ParseHex4@U?$GenericStringStream@U?$UTF8@D@rapidjson@@@rapidjson@@@?$GenericReader@U?$UTF8@D@rapidjson@@U12@VCrtAllocator@2@@rapidjson@@AAEIAAU?$GenericStringStream@U?$UTF8@D@rapidjson@@@1@@Z 1006a3d0 f i ParseUtils.obj
 0001:00069450       ??$Encode@V?$StackStream@D@?$GenericReader@U?$UTF8@D@rapidjson@@U12@VCrtAllocator@2@@rapidjson@@@?$UTF8@D@rapidjson@@SAXAAV?$StackStream@D@?$GenericReader@U?$UTF8@D@rapidjson@@U12@VCrtAllocator@2@@1@I@Z 1006a450 f i ParseUtils.obj
 0001:00069580       ??$Expand@V?$GenericValue@U?$UTF8@D@rapidjson@@V?$MemoryPoolAllocator@VCrtAllocator@rapidjson@@@2@@rapidjson@@@?$Stack@VCrtAllocator@rapidjson@@@internal@rapidjson@@AAEXI@Z 1006a580 f i ParseUtils.obj
 0001:00069620       ??$Expand@D@?$Stack@VCrtAllocator@rapidjson@@@internal@rapidjson@@AAEXI@Z 1006a620 f i ParseUtils.obj
 0001:000696c0       ??0PlayerSnapshot@UAlbertaBot@@QAE@PAVPlayerInterface@BWAPI@@@Z 1006a6c0 f   PlayerSnapshot.obj
 0001:00069790       ?takeSelf@PlayerSnapshot@UAlbertaBot@@QAEXXZ 1006a790 f   PlayerSnapshot.obj
 0001:000698c0       ?takeEnemy@PlayerSnapshot@UAlbertaBot@@QAEXXZ 1006a8c0 f   PlayerSnapshot.obj
 0001:00069a90       ?getCount@PlayerSnapshot@UAlbertaBot@@QBEHVUnitType@BWAPI@@@Z 1006aa90 f   PlayerSnapshot.obj
 0001:00069af0       ?failure@ProductionGoal@UAlbertaBot@@ABE_NXZ 1006aaf0 f   ProductionGoal.obj
 0001:00069c20       ??0ProductionGoal@UAlbertaBot@@QAE@ABVMacroAct@1@@Z 1006ac20 f   ProductionGoal.obj
 0001:00069ce0       ?update@ProductionGoal@UAlbertaBot@@QAEXXZ 1006ace0 f   ProductionGoal.obj
 0001:00069df0       ??0ProductionManager@UAlbertaBot@@AAE@XZ 1006adf0 f   ProductionManager.obj
 0001:00069f60       ?setBuildOrder@ProductionManager@UAlbertaBot@@QAEXABVBuildOrder@2@@Z 1006af60 f   ProductionManager.obj
 0001:0006a000       ?update@ProductionManager@UAlbertaBot@@QAEXXZ 1006b000 f   ProductionManager.obj
 0001:0006a1e0       ?onUnitDestroy@ProductionManager@UAlbertaBot@@QAEXPAVUnitInterface@BWAPI@@@Z 1006b1e0 f   ProductionManager.obj
 0001:0006a590       ?dropJammedItemsFromQueue@ProductionManager@UAlbertaBot@@AAEXXZ 1006b590 f   ProductionManager.obj
 0001:0006a760       ?manageBuildOrderQueue@ProductionManager@UAlbertaBot@@AAEXXZ 1006b760 f   ProductionManager.obj
 0001:0006abd0       ?maybeReorderQueue@ProductionManager@UAlbertaBot@@AAEXXZ 1006bbd0 f   ProductionManager.obj
 0001:0006b150       ?getProducer@ProductionManager@UAlbertaBot@@ABEPAVUnitInterface@BWAPI@@VMacroAct@2@V?$Point@H$00@4@@Z 1006c150 f   ProductionManager.obj
 0001:0006b240       ?getClosestUnitToPosition@ProductionManager@UAlbertaBot@@ABEPAVUnitInterface@BWAPI@@ABV?$vector@PAVUnitInterface@BWAPI@@V?$allocator@PAVUnitInterface@BWAPI@@@std@@@std@@V?$Point@H$00@4@@Z 1006c240 f   ProductionManager.obj
 0001:0006b310       ?getFarthestUnitFromPosition@ProductionManager@UAlbertaBot@@ABEPAVUnitInterface@BWAPI@@ABV?$vector@PAVUnitInterface@BWAPI@@V?$allocator@PAVUnitInterface@BWAPI@@@std@@@std@@V?$Point@H$00@4@@Z 1006c310 f   ProductionManager.obj
 0001:0006b3e0       ?getClosestLarvaToPosition@ProductionManager@UAlbertaBot@@ABEPAVUnitInterface@BWAPI@@V?$Point@H$00@4@@Z 1006c3e0 f   ProductionManager.obj
 0001:0006b500       ?create@ProductionManager@UAlbertaBot@@AAEXPAVUnitInterface@BWAPI@@ABUBuildOrderItem@2@@Z 1006c500 f   ProductionManager.obj
 0001:0006b670       ?canMakeNow@ProductionManager@UAlbertaBot@@AAE_NPAVUnitInterface@BWAPI@@VMacroAct@2@@Z 1006c670 f   ProductionManager.obj
 0001:0006b790       ?predictWorkerMovement@ProductionManager@UAlbertaBot@@AAEXAAVBuilding@2@@Z 1006c790 f   ProductionManager.obj
 0001:0006ba20       ?getFreeMinerals@ProductionManager@UAlbertaBot@@ABEHXZ 1006ca20 f   ProductionManager.obj
 0001:0006bab0       ?getFreeGas@ProductionManager@UAlbertaBot@@ABEHXZ 1006cab0 f   ProductionManager.obj
 0001:0006bb40       ?executeCommand@ProductionManager@UAlbertaBot@@AAEXVMacroCommand@2@@Z 1006cb40 f   ProductionManager.obj
 0001:0006be50       ?drawProductionInformation@ProductionManager@UAlbertaBot@@QAEXHH@Z 1006ce50 f   ProductionManager.obj
 0001:0006c290       ?Instance@ProductionManager@UAlbertaBot@@SAAAV12@XZ 1006d290 f   ProductionManager.obj
 0001:0006c2f0       ??1ProductionManager@UAlbertaBot@@QAE@XZ 1006d2f0 f i ProductionManager.obj
 0001:0006c340       ?startExtractorTrick@ProductionManager@UAlbertaBot@@QAEXVUnitType@BWAPI@@@Z 1006d340 f   ProductionManager.obj
 0001:0006c470       ?doExtractorTrick@ProductionManager@UAlbertaBot@@AAEXXZ 1006d470 f   ProductionManager.obj
 0001:0006c7c0       ?queueGasSteal@ProductionManager@UAlbertaBot@@QAEXXZ 1006d7c0 f   ProductionManager.obj
 0001:0006c850       ?isGasStealInQueue@ProductionManager@UAlbertaBot@@QBE_NXZ 1006d850 f   ProductionManager.obj
 0001:0006c8f0       ?goOutOfBookAndClearQueue@ProductionManager@UAlbertaBot@@QAEXXZ 1006d8f0 f   ProductionManager.obj
 0001:0006c970       ?goOutOfBook@ProductionManager@UAlbertaBot@@QAEXXZ 1006d970 f   ProductionManager.obj
 0001:0006ca00       ??1?$forward_list@VProductionGoal@UAlbertaBot@@V?$allocator@VProductionGoal@UAlbertaBot@@@std@@@std@@QAE@XZ 1006da00 f i ProductionManager.obj
 0001:0006ca30       ??$remove_if@V<lambda_1fb01eb6809d677abb8da12eabf0f31a>@@@?$forward_list@VProductionGoal@UAlbertaBot@@V?$allocator@VProductionGoal@UAlbertaBot@@@std@@@std@@QAEXV<lambda_1fb01eb6809d677abb8da12eabf0f31a>@@@Z 1006da30 f i ProductionManager.obj
 0001:0006cac0       ??$_Sort@PAPAVUnitInterface@BWAPI@@HVCompareWhenStarted@UAlbertaBot@@@std@@YAXPAPAVUnitInterface@BWAPI@@0HVCompareWhenStarted@UAlbertaBot@@@Z 1006dac0 f i ProductionManager.obj
 0001:0006cbb0       ??$_Buynode@VProductionGoal@UAlbertaBot@@@?$_Flist_buy@VProductionGoal@UAlbertaBot@@V?$allocator@VProductionGoal@UAlbertaBot@@@std@@@std@@QAEPAU?$_Flist_node@VProductionGoal@UAlbertaBot@@PAX@1@PAU21@$$QAVProductionGoal@UAlbertaBot@@@Z 1006dbb0 f i ProductionManager.obj
 0001:0006cbf0       ?_Buynode0@?$_Flist_buy@VProductionGoal@UAlbertaBot@@V?$allocator@VProductionGoal@UAlbertaBot@@@std@@@std@@QAEPAU?$_Flist_node@VProductionGoal@UAlbertaBot@@PAX@2@PAU32@@Z 1006dbf0 f i ProductionManager.obj
 0001:0006cc20       ??$_Unguarded_partition@PAPAVUnitInterface@BWAPI@@VCompareWhenStarted@UAlbertaBot@@@std@@YA?AU?$pair@PAPAVUnitInterface@BWAPI@@PAPAV12@@0@PAPAVUnitInterface@BWAPI@@0VCompareWhenStarted@UAlbertaBot@@@Z 1006dc20 f i ProductionManager.obj
 0001:0006d040       ??$_Median@PAPAVUnitInterface@BWAPI@@VCompareWhenStarted@UAlbertaBot@@@std@@YAXPAPAVUnitInterface@BWAPI@@00VCompareWhenStarted@UAlbertaBot@@@Z 1006e040 f i ProductionManager.obj
 0001:0006d0f0       ??$_Make_heap@PAPAVUnitInterface@BWAPI@@HPAV12@VCompareWhenStarted@UAlbertaBot@@@std@@YAXPAPAVUnitInterface@BWAPI@@0VCompareWhenStarted@UAlbertaBot@@PAH0@Z 1006e0f0 f i ProductionManager.obj
 0001:0006d1f0       ??$_Sort_heap@PAPAVUnitInterface@BWAPI@@VCompareWhenStarted@UAlbertaBot@@@std@@YAXPAPAVUnitInterface@BWAPI@@0VCompareWhenStarted@UAlbertaBot@@@Z 1006e1f0 f i ProductionManager.obj
 0001:0006d240       ??$_Insertion_sort1@PAPAVUnitInterface@BWAPI@@VCompareWhenStarted@UAlbertaBot@@PAV12@@std@@YAXPAPAVUnitInterface@BWAPI@@0VCompareWhenStarted@UAlbertaBot@@0@Z 1006e240 f i ProductionManager.obj
 0001:0006d3d0       ??$_Med3@PAPAVUnitInterface@BWAPI@@VCompareWhenStarted@UAlbertaBot@@@std@@YAXPAPAVUnitInterface@BWAPI@@00VCompareWhenStarted@UAlbertaBot@@@Z 1006e3d0 f i ProductionManager.obj
 0001:0006d4f0       ??$_Adjust_heap@PAPAVUnitInterface@BWAPI@@HPAV12@VCompareWhenStarted@UAlbertaBot@@@std@@YAXPAPAVUnitInterface@BWAPI@@HH$$QAPAV12@VCompareWhenStarted@UAlbertaBot@@@Z 1006e4f0 f i ProductionManager.obj
 0001:0006d5b0       ??$_Push_heap@PAPAVUnitInterface@BWAPI@@HPAV12@VCompareWhenStarted@UAlbertaBot@@@std@@YAXPAPAVUnitInterface@BWAPI@@HH$$QAPAV12@VCompareWhenStarted@UAlbertaBot@@@Z 1006e5b0 f i ProductionManager.obj
 0001:0006d680       ??0Random@UAlbertaBot@@QAE@XZ 1006e680 f   Random.obj
 0001:0006d730       ?flag@Random@UAlbertaBot@@QAE_NN@Z 1006e730 f   Random.obj
 0001:0006d7a0       ?Instance@Random@UAlbertaBot@@SAAAV12@XZ 1006e7a0 f   Random.obj
 0001:0006d800       ??$_Eval@V?$linear_congruential_engine@I$0LMIP@$0A@$0HPPPPPPP@@std@@@?$uniform_int@H@std@@ABEHAAV?$linear_congruential_engine@I$0LMIP@$0A@$0HPPPPPPP@@1@HH@Z 1006e800 f i Random.obj
 0001:0006d870       ??R?$_Rng_from_urng@IV?$linear_congruential_engine@I$0LMIP@$0A@$0HPPPPPPP@@std@@@std@@QAEII@Z 1006e870 f i Random.obj
 0001:0006d920       ?_Get_all_bits@?$_Rng_from_urng@IV?$linear_congruential_engine@I$0LMIP@$0A@$0HPPPPPPP@@std@@@std@@QAEIXZ 1006e920 f i Random.obj
 0001:0006d990       ??0ScoutManager@UAlbertaBot@@AAE@XZ 1006e990 f   ScoutManager.obj
 0001:0006daf0       ?Instance@ScoutManager@UAlbertaBot@@SAAAV12@XZ 1006eaf0 f   ScoutManager.obj
 0001:0006db50       ??1ScoutManager@UAlbertaBot@@QAE@XZ 1006eb50 f i ScoutManager.obj
 0001:0006dbc0       ?setScoutTargets@ScoutManager@UAlbertaBot@@AAEXXZ 1006ebc0 f   ScoutManager.obj
 0001:0006de30       ?shouldScout@ScoutManager@UAlbertaBot@@QAE_NXZ 1006ee30 f   ScoutManager.obj
 0001:0006ded0       ?update@ScoutManager@UAlbertaBot@@QAEXXZ 1006eed0 f   ScoutManager.obj
 0001:0006e130       ?setWorkerScout@ScoutManager@UAlbertaBot@@QAEXPAVUnitInterface@BWAPI@@@Z 1006f130 f   ScoutManager.obj
 0001:0006e1b0       ?releaseWorkerScout@ScoutManager@UAlbertaBot@@QAEXXZ 1006f1b0 f   ScoutManager.obj
 0001:0006e260       ?releaseOverlordScout@ScoutManager@UAlbertaBot@@AAEXXZ 1006f260 f   ScoutManager.obj
 0001:0006e310       ?drawScoutInformation@ScoutManager@UAlbertaBot@@AAEXHH@Z 1006f310 f   ScoutManager.obj
 0001:0006e4d0       ?moveGroundScout@ScoutManager@UAlbertaBot@@AAEXXZ 1006f4d0 f   ScoutManager.obj
 0001:0006e750       ?followGroundPath@ScoutManager@UAlbertaBot@@AAEXXZ 1006f750 f   ScoutManager.obj
 0001:0006e9e0       ?moveAirScout@ScoutManager@UAlbertaBot@@AAEXXZ 1006f9e0 f   ScoutManager.obj
 0001:0006eb50       ?gasSteal@ScoutManager@UAlbertaBot@@AAE_NXZ 1006fb50 f   ScoutManager.obj
 0001:0006ecf0       ?enemyWorkerToHarass@ScoutManager@UAlbertaBot@@ABEPAVUnitInterface@BWAPI@@XZ 1006fcf0 f   ScoutManager.obj
 0001:0006edf0       ?getAnyEnemyGeyser@ScoutManager@UAlbertaBot@@ABEPAVUnitInterface@BWAPI@@XZ 1006fdf0 f   ScoutManager.obj
 0001:0006eed0       ?getTheEnemyGeyser@ScoutManager@UAlbertaBot@@ABEPAVUnitInterface@BWAPI@@XZ 1006fed0 f   ScoutManager.obj
 0001:0006efe0       ?enemyWorkerInRadius@ScoutManager@UAlbertaBot@@AAE_NXZ 1006ffe0 f   ScoutManager.obj
 0001:0006f070       ?getCharCode@SquadOrder@UAlbertaBot@@QBE?BDXZ 10070070 f i Squad.obj
 0001:0006f0d0       ??0Squad@UAlbertaBot@@QAE@XZ 100700d0 f   Squad.obj
 0001:0006f3f0       ??0Squad@UAlbertaBot@@QAE@ABV?$basic_string@DU?$char_traits@D@std@@V?$allocator@D@2@@std@@VSquadOrder@1@I@Z 100703f0 f   Squad.obj
 0001:0006f7d0       ??1Squad@UAlbertaBot@@QAE@XZ 100707d0 f   Squad.obj
 0001:0006fbc0       ?update@Squad@UAlbertaBot@@QAEXXZ 10070bc0 f   Squad.obj
 0001:0006fe80       ?setClusterStatus@Squad@UAlbertaBot@@AAEXAAVUnitCluster@2@@Z 10070e80 f   Squad.obj
 0001:000701f0       ?clusterCombat@Squad@UAlbertaBot@@AAEXABVUnitCluster@2@@Z 100711f0 f   Squad.obj
 0001:00070380       ?noCombatUnits@Squad@UAlbertaBot@@ABE_NABVUnitCluster@2@@Z 10071380 f   Squad.obj
 0001:00070420       ?notNearEnemy@Squad@UAlbertaBot@@AAE_NABVUnitCluster@2@@Z 10071420 f   Squad.obj
 0001:00070470       ?joinUp@Squad@UAlbertaBot@@AAE_NABVUnitCluster@2@@Z 10071470 f   Squad.obj
 0001:00070610       ?unreadyUnit@Squad@UAlbertaBot@@AAE_NPAVUnitInterface@BWAPI@@@Z 10071610 f   Squad.obj
 0001:000706d0       ?setAllUnits@Squad@UAlbertaBot@@AAEXXZ 100716d0 f   Squad.obj
 0001:000708b0       ?setNearEnemyUnits@Squad@UAlbertaBot@@AAEXXZ 100718b0 f   Squad.obj
 0001:00070a90       ?addUnitsToMicroManagers@Squad@UAlbertaBot@@AAEXXZ 10071a90 f   Squad.obj
 0001:000715b0       ?needsToRegroup@Squad@UAlbertaBot@@AAE_NABVUnitCluster@2@@Z 100725b0 f   Squad.obj
 0001:000719f0       ?calcRegroupPosition@Squad@UAlbertaBot@@ABE?AV?$Point@H$00@BWAPI@@ABVUnitCluster@2@@Z 100729f0 f   Squad.obj
 0001:00071e40       ?finalRegroupPosition@Squad@UAlbertaBot@@ABE?AV?$Point@H$00@BWAPI@@XZ 10072e40 f   Squad.obj
 0001:00071f60       ?nearbyStaticDefense@Squad@UAlbertaBot@@ABEPAVUnitInterface@BWAPI@@ABV?$Point@H$00@4@@Z 10072f60 f   Squad.obj
 0001:00072060       ?clear@Squad@UAlbertaBot@@QAEXXZ 10073060 f   Squad.obj
 0001:00072170       ?unitNearEnemy@Squad@UAlbertaBot@@AAE_NPAVUnitInterface@BWAPI@@@Z 10073170 f   Squad.obj
 0001:00072380       ?calcCenter@Squad@UAlbertaBot@@QBE?AV?$Point@H$00@BWAPI@@XZ 10073380 f   Squad.obj
 0001:000724e0       ?unitClosestToEnemy@Squad@UAlbertaBot@@ABEPAVUnitInterface@BWAPI@@VUnitset@4@@Z 100734e0 f   Squad.obj
 0001:00072790       ?setSquadOrder@Squad@UAlbertaBot@@QAEXABVSquadOrder@2@@Z 10073790 f   Squad.obj
 0001:00072a10       ?removeUnit@Squad@UAlbertaBot@@QAEXPAVUnitInterface@BWAPI@@@Z 10073a10 f   Squad.obj
 0001:00072af0       ?releaseWorkers@Squad@UAlbertaBot@@QAEXXZ 10073af0 f   Squad.obj
 0001:00072c80       ?loadTransport@Squad@UAlbertaBot@@AAEXXZ 10073c80 f   Squad.obj
 0001:00072d70       ?stimIfNeeded@Squad@UAlbertaBot@@AAEXXZ 10073d70 f   Squad.obj
 0001:00072fe0       ?drawCluster@Squad@UAlbertaBot@@ABEXABVUnitCluster@2@@Z 10073fe0 f   Squad.obj
 0001:000730e0       ?drawCombatSimInfo@Squad@UAlbertaBot@@QBEXXZ 100740e0 f   Squad.obj
 0001:000731e0       ??A?$map@PAVUnitInterface@BWAPI@@_NU?$less@PAVUnitInterface@BWAPI@@@std@@V?$allocator@U?$pair@QAVUnitInterface@BWAPI@@_N@std@@@4@@std@@QAEAA_NABQAVUnitInterface@BWAPI@@@Z 100741e0 f i Squad.obj
 0001:00073260       ?insert@?$basic_string@DU?$char_traits@D@std@@V?$allocator@D@2@@std@@QAEAAV12@IID@Z 10074260 f i Squad.obj
 0001:000732f0       ??$?HDU?$char_traits@D@std@@V?$allocator@D@1@@std@@YA?AV?$basic_string@DU?$char_traits@D@std@@V?$allocator@D@2@@0@D$$QAV10@@Z 100742f0 f i Squad.obj
 0001:00073320       ??$?HDU?$char_traits@D@std@@V?$allocator@D@1@@std@@YA?AV?$basic_string@DU?$char_traits@D@std@@V?$allocator@D@2@@0@DABV10@@Z 10074320 f i Squad.obj
 0001:000733d0       ??$?HDU?$char_traits@D@std@@V?$allocator@D@1@@std@@YA?AV?$basic_string@DU?$char_traits@D@std@@V?$allocator@D@2@@0@$$QAV10@ABV10@@Z 100743d0 f i Squad.obj
 0001:00073400       ??$_Buynode@ABUpiecewise_construct_t@std@@V?$tuple@ABQAVUnitInterface@BWAPI@@@2@V?$tuple@$$$V@2@@?$_Tree_buy@U?$pair@QAVUnitInterface@BWAPI@@_N@std@@V?$allocator@U?$pair@QAVUnitInterface@BWAPI@@_N@std@@@2@@std@@QAEPAU?$_Tree_node@U?$pair@QAVUnitInterface@BWAPI@@_N@std@@PAX@1@ABUpiecewise_construct_t@1@$$QAV?$tuple@ABQAVUnitInterface@BWAPI@@@1@$$QAV?$tuple@$$$V@1@@Z 10074400 f i Squad.obj
 0001:00073430       ?clearSquadData@SquadData@UAlbertaBot@@QAEXXZ 10074430 f   SquadData.obj
 0001:000735c0       ?removeSquad@SquadData@UAlbertaBot@@QAEXABV?$basic_string@DU?$char_traits@D@std@@V?$allocator@D@2@@std@@@Z 100745c0 f   SquadData.obj
 0001:00073710       ?squadExists@SquadData@UAlbertaBot@@QAE_NABV?$basic_string@DU?$char_traits@D@std@@V?$allocator@D@2@@std@@@Z 10074710 f   SquadData.obj
 0001:00073780       ?createSquad@SquadData@UAlbertaBot@@QAEXABV?$basic_string@DU?$char_traits@D@std@@V?$allocator@D@2@@std@@ABVSquadOrder@2@I@Z 10074780 f   SquadData.obj
 0001:00073860       ?updateAllSquads@SquadData@UAlbertaBot@@AAEXXZ 10074860 f   SquadData.obj
 0001:000738c0       ?drawSquadInformation@SquadData@UAlbertaBot@@QAEXHH@Z 100748c0 f   SquadData.obj
 0001:00073b20       ?drawCombatSimInformation@SquadData@UAlbertaBot@@QAEXXZ 10074b20 f   SquadData.obj
 0001:00073b80       ?verifySquadUniqueMembership@SquadData@UAlbertaBot@@AAEXXZ 10074b80 f   SquadData.obj
 0001:00073d30       ?getUnitSquad@SquadData@UAlbertaBot@@QBEPBVSquad@2@PAVUnitInterface@BWAPI@@@Z 10074d30 f   SquadData.obj
 0001:00073d30       ?getUnitSquad@SquadData@UAlbertaBot@@QAEPAVSquad@2@PAVUnitInterface@BWAPI@@@Z 10074d30 f   SquadData.obj
 0001:00073dd0       ?assignUnitToSquad@SquadData@UAlbertaBot@@QAEXPAVUnitInterface@BWAPI@@AAVSquad@2@@Z 10074dd0 f   SquadData.obj
 0001:00073e40       ?canAssignUnitToSquad@SquadData@UAlbertaBot@@QBE_NPAVUnitInterface@BWAPI@@ABVSquad@2@@Z 10074e40 f   SquadData.obj
 0001:00073e70       ?getSquad@SquadData@UAlbertaBot@@QAEAAVSquad@2@ABV?$basic_string@DU?$char_traits@D@std@@V?$allocator@D@2@@std@@@Z 10074e70 f   SquadData.obj
 0001:00073f90       ??A?$map@V?$basic_string@DU?$char_traits@D@std@@V?$allocator@D@2@@std@@VSquad@UAlbertaBot@@U?$less@V?$basic_string@DU?$char_traits@D@std@@V?$allocator@D@2@@std@@@2@V?$allocator@U?$pair@$$CBV?$basic_string@DU?$char_traits@D@std@@V?$allocator@D@2@@std@@VSquad@UAlbertaBot@@@std@@@2@@std@@QAEAAVSquad@UAlbertaBot@@ABV?$basic_string@DU?$char_traits@D@std@@V?$allocator@D@2@@1@@Z 10074f90 f i SquadData.obj
 0001:00074000       ?_Eqrange@?$_Tree@V?$_Tmap_traits@V?$basic_string@DU?$char_traits@D@std@@V?$allocator@D@2@@std@@VSquad@UAlbertaBot@@U?$less@V?$basic_string@DU?$char_traits@D@std@@V?$allocator@D@2@@std@@@2@V?$allocator@U?$pair@$$CBV?$basic_string@DU?$char_traits@D@std@@V?$allocator@D@2@@std@@VSquad@UAlbertaBot@@@std@@@2@$0A@@std@@@std@@IAE?AU?$pair@V?$_Tree_iterator@V?$_Tree_val@U?$_Tree_simple_types@U?$pair@$$CBV?$basic_string@DU?$char_traits@D@std@@V?$allocator@D@2@@std@@VSquad@UAlbertaBot@@@std@@@std@@@std@@@std@@V12@@2@ABV?$basic_string@DU?$char_traits@D@std@@V?$allocator@D@2@@2@@Z 10075000 f i SquadData.obj
 0001:00074240       ?_Buyheadnode@?$_Tree_alloc@$0A@U?$_Tree_base_types@U?$pair@$$CBV?$basic_string@DU?$char_traits@D@std@@V?$allocator@D@2@@std@@VSquad@UAlbertaBot@@@std@@V?$allocator@U?$pair@$$CBV?$basic_string@DU?$char_traits@D@std@@V?$allocator@D@2@@std@@VSquad@UAlbertaBot@@@std@@@2@@std@@@std@@QAEPAU?$_Tree_node@U?$pair@$$CBV?$basic_string@DU?$char_traits@D@std@@V?$allocator@D@2@@std@@VSquad@UAlbertaBot@@@std@@PAX@2@XZ 10075240 f i SquadData.obj
 0001:00074280       ??$_Buynode@ABV?$basic_string@DU?$char_traits@D@std@@V?$allocator@D@2@@std@@VSquad@UAlbertaBot@@@?$_Tree_buy@U?$pair@$$CBV?$basic_string@DU?$char_traits@D@std@@V?$allocator@D@2@@std@@VSquad@UAlbertaBot@@@std@@V?$allocator@U?$pair@$$CBV?$basic_string@DU?$char_traits@D@std@@V?$allocator@D@2@@std@@VSquad@UAlbertaBot@@@std@@@2@@std@@QAEPAU?$_Tree_node@U?$pair@$$CBV?$basic_string@DU?$char_traits@D@std@@V?$allocator@D@2@@std@@VSquad@UAlbertaBot@@@std@@PAX@1@ABV?$basic_string@DU?$char_traits@D@std@@V?$allocator@D@2@@1@$$QAVSquad@UAlbertaBot@@@Z 10075280 f i SquadData.obj
 0001:00074330       ??$_Insert_nohint@AAU?$pair@$$CBV?$basic_string@DU?$char_traits@D@std@@V?$allocator@D@2@@std@@VSquad@UAlbertaBot@@@std@@PAU?$_Tree_node@U?$pair@$$CBV?$basic_string@DU?$char_traits@D@std@@V?$allocator@D@2@@std@@VSquad@UAlbertaBot@@@std@@PAX@2@@?$_Tree@V?$_Tmap_traits@V?$basic_string@DU?$char_traits@D@std@@V?$allocator@D@2@@std@@VSquad@UAlbertaBot@@U?$less@V?$basic_string@DU?$char_traits@D@std@@V?$allocator@D@2@@std@@@2@V?$allocator@U?$pair@$$CBV?$basic_string@DU?$char_traits@D@std@@V?$allocator@D@2@@std@@VSquad@UAlbertaBot@@@std@@@2@$0A@@std@@@std@@IAE?AU?$pair@V?$_Tree_iterator@V?$_Tree_val@U?$_Tree_simple_types@U?$pair@$$CBV?$basic_string@DU?$char_traits@D@std@@V?$allocator@D@2@@std@@VSquad@UAlbertaBot@@@std@@@std@@@std@@@std@@_N@1@_NAAU?$pair@$$CBV?$basic_string@DU?$char_traits@D@std@@V?$allocator@D@2@@std@@VSquad@UAlbertaBot@@@1@PAU?$_Tree_node@U?$pair@$$CBV?$basic_string@DU?$char_traits@D@std@@V?$allocator@D@2@@std@@VSquad@UAlbertaBot@@@std@@PAX@1@@Z 10075330 f i SquadData.obj
 0001:00074500       ??$_Buynode@ABUpiecewise_construct_t@std@@V?$tuple@ABV?$basic_string@DU?$char_traits@D@std@@V?$allocator@D@2@@std@@@2@V?$tuple@$$$V@2@@?$_Tree_buy@U?$pair@$$CBV?$basic_string@DU?$char_traits@D@std@@V?$allocator@D@2@@std@@VSquad@UAlbertaBot@@@std@@V?$allocator@U?$pair@$$CBV?$basic_string@DU?$char_traits@D@std@@V?$allocator@D@2@@std@@VSquad@UAlbertaBot@@@std@@@2@@std@@QAEPAU?$_Tree_node@U?$pair@$$CBV?$basic_string@DU?$char_traits@D@std@@V?$allocator@D@2@@std@@VSquad@UAlbertaBot@@@std@@PAX@1@ABUpiecewise_construct_t@1@$$QAV?$tuple@ABV?$basic_string@DU?$char_traits@D@std@@V?$allocator@D@2@@std@@@1@$$QAV?$tuple@$$$V@1@@Z 10075500 f i SquadData.obj
 0001:000745b0       ??$_Insert_hint@AAU?$pair@$$CBV?$basic_string@DU?$char_traits@D@std@@V?$allocator@D@2@@std@@VSquad@UAlbertaBot@@@std@@PAU?$_Tree_node@U?$pair@$$CBV?$basic_string@DU?$char_traits@D@std@@V?$allocator@D@2@@std@@VSquad@UAlbertaBot@@@std@@PAX@2@@?$_Tree@V?$_Tmap_traits@V?$basic_string@DU?$char_traits@D@std@@V?$allocator@D@2@@std@@VSquad@UAlbertaBot@@U?$less@V?$basic_string@DU?$char_traits@D@std@@V?$allocator@D@2@@std@@@2@V?$allocator@U?$pair@$$CBV?$basic_string@DU?$char_traits@D@std@@V?$allocator@D@2@@std@@VSquad@UAlbertaBot@@@std@@@2@$0A@@std@@@std@@IAE?AV?$_Tree_iterator@V?$_Tree_val@U?$_Tree_simple_types@U?$pair@$$CBV?$basic_string@DU?$char_traits@D@std@@V?$allocator@D@2@@std@@VSquad@UAlbertaBot@@@std@@@std@@@std@@@1@V?$_Tree_const_iterator@V?$_Tree_val@U?$_Tree_simple_types@U?$pair@$$CBV?$basic_string@DU?$char_traits@D@std@@V?$allocator@D@2@@std@@VSquad@UAlbertaBot@@@std@@@std@@@std@@@1@AAU?$pair@$$CBV?$basic_string@DU?$char_traits@D@std@@V?$allocator@D@2@@std@@VSquad@UAlbertaBot@@@1@PAU?$_Tree_node@U?$pair@$$CBV?$basic_string@DU?$char_traits@D@std@@V?$allocator@D@2@@std@@VSquad@UAlbertaBot@@@std@@PAX@1@@Z 100755b0 f i SquadData.obj
 0001:000747f0       ?_Destroy_if_not_nil@?$_Tree@V?$_Tmap_traits@V?$basic_string@DU?$char_traits@D@std@@V?$allocator@D@2@@std@@VSquad@UAlbertaBot@@U?$less@V?$basic_string@DU?$char_traits@D@std@@V?$allocator@D@2@@std@@@2@V?$allocator@U?$pair@$$CBV?$basic_string@DU?$char_traits@D@std@@V?$allocator@D@2@@std@@VSquad@UAlbertaBot@@@std@@@2@$0A@@std@@@std@@IAEXPAU?$_Tree_node@U?$pair@$$CBV?$basic_string@DU?$char_traits@D@std@@V?$allocator@D@2@@std@@VSquad@UAlbertaBot@@@std@@PAX@2@@Z 100757f0 f i SquadData.obj
 0001:00074870       ?_Buynode0@?$_Tree_buy@U?$pair@$$CBV?$basic_string@DU?$char_traits@D@std@@V?$allocator@D@2@@std@@VSquad@UAlbertaBot@@@std@@V?$allocator@U?$pair@$$CBV?$basic_string@DU?$char_traits@D@std@@V?$allocator@D@2@@std@@VSquad@UAlbertaBot@@@std@@@2@@std@@QAEPAU?$_Tree_node@U?$pair@$$CBV?$basic_string@DU?$char_traits@D@std@@V?$allocator@D@2@@std@@VSquad@UAlbertaBot@@@std@@PAX@2@XZ 10075870 f i SquadData.obj
 0001:000748b0       ??$_Insert_at@AAU?$pair@$$CBV?$basic_string@DU?$char_traits@D@std@@V?$allocator@D@2@@std@@VSquad@UAlbertaBot@@@std@@PAU?$_Tree_node@U?$pair@$$CBV?$basic_string@DU?$char_traits@D@std@@V?$allocator@D@2@@std@@VSquad@UAlbertaBot@@@std@@PAX@2@@?$_Tree@V?$_Tmap_traits@V?$basic_string@DU?$char_traits@D@std@@V?$allocator@D@2@@std@@VSquad@UAlbertaBot@@U?$less@V?$basic_string@DU?$char_traits@D@std@@V?$allocator@D@2@@std@@@2@V?$allocator@U?$pair@$$CBV?$basic_string@DU?$char_traits@D@std@@V?$allocator@D@2@@std@@VSquad@UAlbertaBot@@@std@@@2@$0A@@std@@@std@@IAE?AV?$_Tree_iterator@V?$_Tree_val@U?$_Tree_simple_types@U?$pair@$$CBV?$basic_string@DU?$char_traits@D@std@@V?$allocator@D@2@@std@@VSquad@UAlbertaBot@@@std@@@std@@@std@@@1@_NPAU?$_Tree_node@U?$pair@$$CBV?$basic_string@DU?$char_traits@D@std@@V?$allocator@D@2@@std@@VSquad@UAlbertaBot@@@std@@PAX@1@AAU?$pair@$$CBV?$basic_string@DU?$char_traits@D@std@@V?$allocator@D@2@@std@@VSquad@UAlbertaBot@@@1@1@Z 100758b0 f i SquadData.obj
 0001:00074af0       ??0Squad@UAlbertaBot@@QAE@ABV01@@Z 10075af0 f i SquadData.obj
 0001:00074e90       ??0MicroOverlords@UAlbertaBot@@QAE@ABV01@@Z 10075e90 f i SquadData.obj
 0001:00074f50       ??0MicroManager@UAlbertaBot@@QAE@ABV01@@Z 10075f50 f i SquadData.obj
 0001:00075040       ??0?$vector@VUnitCluster@UAlbertaBot@@V?$allocator@VUnitCluster@UAlbertaBot@@@std@@@std@@QAE@ABV01@@Z 10076040 f i SquadData.obj
 0001:000750f0       ?_Buy@?$vector@VUnitCluster@UAlbertaBot@@V?$allocator@VUnitCluster@UAlbertaBot@@@std@@@std@@IAE_NI@Z 100760f0 f i SquadData.obj
 0001:00075160       ??$_Uninit_copy@PBVUnitCluster@UAlbertaBot@@PAV12@V?$allocator@VUnitCluster@UAlbertaBot@@@std@@@std@@YAPAVUnitCluster@UAlbertaBot@@PBV12@0PAV12@AAU?$_Wrap_alloc@V?$allocator@VUnitCluster@UAlbertaBot@@@std@@@0@U_Nonscalar_ptr_iterator_tag@0@@Z 10076160 f i SquadData.obj
 0001:00075200       ??0StrategyBossZerg@UAlbertaBot@@AAE@XZ 10076200 f   StrategyBossZerg.obj
 0001:000753a0       ?updateSupply@StrategyBossZerg@UAlbertaBot@@AAEXXZ 100763a0 f   StrategyBossZerg.obj
 0001:00075550       ?updateGameState@StrategyBossZerg@UAlbertaBot@@AAEXXZ 10076550 f   StrategyBossZerg.obj
 0001:00075cb0       ?updateArmySizes@StrategyBossZerg@UAlbertaBot@@AAEXXZ 10076cb0 f   StrategyBossZerg.obj
 0001:00075ee0       ?enoughArmy@StrategyBossZerg@UAlbertaBot@@ABE_NXZ 10076ee0 f   StrategyBossZerg.obj
 0001:00075f30       ?enoughGroundArmy@StrategyBossZerg@UAlbertaBot@@ABE_NXZ 10076f30 f   StrategyBossZerg.obj
 0001:00075fa0       ?enemySeemsToBeDead@StrategyBossZerg@UAlbertaBot@@ABE_NABVPlayerSnapshot@2@@Z 10076fa0 f   StrategyBossZerg.obj
 0001:00076120       ?numInEgg@StrategyBossZerg@UAlbertaBot@@ABEHVUnitType@BWAPI@@@Z 10077120 f   StrategyBossZerg.obj
 0001:00076190       ?isBeingBuilt@StrategyBossZerg@UAlbertaBot@@ABE_NVUnitType@BWAPI@@@Z 10077190 f   StrategyBossZerg.obj
 0001:00076250       ?cancelStuff@StrategyBossZerg@UAlbertaBot@@AAEXH@Z 10077250 f   StrategyBossZerg.obj
 0001:00076480       ?cancelForSpawningPool@StrategyBossZerg@UAlbertaBot@@AAEXXZ 10077480 f   StrategyBossZerg.obj
 0001:00076940       ?nextInQueueIsUseless@StrategyBossZerg@UAlbertaBot@@ABE_NAAVBuildOrderQueue@2@@Z 10077940 f   StrategyBossZerg.obj
 0001:00077380       ?produce@StrategyBossZerg@UAlbertaBot@@AAEXABVMacroAct@2@@Z 10078380 f   StrategyBossZerg.obj
 0001:000773c0       ?needDroneNext@StrategyBossZerg@UAlbertaBot@@ABE_NXZ 100783c0 f   StrategyBossZerg.obj
 0001:00077510       ?findUnitType@StrategyBossZerg@UAlbertaBot@@ABE?AVUnitType@BWAPI@@V34@@Z 10078510 f   StrategyBossZerg.obj
 0001:000775c0       ?queueSupplyIsOK@StrategyBossZerg@UAlbertaBot@@AAE_NAAVBuildOrderQueue@2@@Z 100785c0 f   StrategyBossZerg.obj
 0001:00077780       ?makeOverlords@StrategyBossZerg@UAlbertaBot@@AAEXAAVBuildOrderQueue@2@@Z 10078780 f   StrategyBossZerg.obj
 0001:00077930       ?takeUrgentAction@StrategyBossZerg@UAlbertaBot@@AAE_NAAVBuildOrderQueue@2@@Z 10078930 f   StrategyBossZerg.obj
 0001:00078240       ?makeUrgentReaction@StrategyBossZerg@UAlbertaBot@@AAEXAAVBuildOrderQueue@2@@Z 10079240 f   StrategyBossZerg.obj
 0001:00079460       ?adaptToEnemyOpeningPlan@StrategyBossZerg@UAlbertaBot@@AAE_NXZ 1007a460 f   StrategyBossZerg.obj
 0001:00079650       ?rebuildCriticalLosses@StrategyBossZerg@UAlbertaBot@@AAE_NXZ 1007a650 f   StrategyBossZerg.obj
 0001:00079770       ?checkGroundDefenses@StrategyBossZerg@UAlbertaBot@@AAEXAAVBuildOrderQueue@2@@Z 1007a770 f   StrategyBossZerg.obj
 0001:00079ff0       ?analyzeExtraDrones@StrategyBossZerg@UAlbertaBot@@AAEXXZ 1007aff0 f   StrategyBossZerg.obj
 0001:0007a390       ?findRemainingBuildTime@StrategyBossZerg@UAlbertaBot@@ABEHVUnitType@BWAPI@@@Z 1007b390 f   StrategyBossZerg.obj
 0001:0007a3f0       ?lairUpgradeTime@StrategyBossZerg@UAlbertaBot@@ABEHXZ 1007b3f0 f   StrategyBossZerg.obj
 0001:0007a450       ?setAvailableTechUnits@StrategyBossZerg@UAlbertaBot@@AAEXAAV?$array@_N$07@std@@@Z 1007b450 f   StrategyBossZerg.obj
 0001:0007a530       ?vProtossTechScores@StrategyBossZerg@UAlbertaBot@@AAEXABVPlayerSnapshot@2@@Z 1007b530 f   StrategyBossZerg.obj
 0001:0007a8a0       ?vTerranTechScores@StrategyBossZerg@UAlbertaBot@@AAEXABVPlayerSnapshot@2@@Z 1007b8a0 f   StrategyBossZerg.obj
 0001:0007ac20       ?vZergTechScores@StrategyBossZerg@UAlbertaBot@@AAEXABVPlayerSnapshot@2@@Z 1007bc20 f   StrategyBossZerg.obj
 0001:0007ade0       ?calculateTechScores@StrategyBossZerg@UAlbertaBot@@AAEXH@Z 1007bde0 f   StrategyBossZerg.obj
 0001:0007b090       ?chooseTechTarget@StrategyBossZerg@UAlbertaBot@@AAEXXZ 1007c090 f   StrategyBossZerg.obj
 0001:0007b380       ?chooseUnitMix@StrategyBossZerg@UAlbertaBot@@AAEXXZ 1007c380 f   StrategyBossZerg.obj
 0001:0007b750       ?chooseAuxUnit@StrategyBossZerg@UAlbertaBot@@AAEXXZ 1007c750 f   StrategyBossZerg.obj
 0001:0007b900       ?chooseEconomyRatio@StrategyBossZerg@UAlbertaBot@@AAEXXZ 1007c900 f   StrategyBossZerg.obj
 0001:0007b990       ?chooseStrategy@StrategyBossZerg@UAlbertaBot@@AAEXXZ 1007c990 f   StrategyBossZerg.obj
 0001:0007b9f0       ?produceUnits@StrategyBossZerg@UAlbertaBot@@AAEXAAH0@Z 1007c9f0 f   StrategyBossZerg.obj
 0001:0007c050       ?produceOtherStuff@StrategyBossZerg@UAlbertaBot@@AAEXAAH0_N@Z 1007d050 f   StrategyBossZerg.obj
 0001:0007d510       ?techTargetToString@StrategyBossZerg@UAlbertaBot@@AAE?AV?$basic_string@DU?$char_traits@D@std@@V?$allocator@D@2@@std@@W4TechUnit@2@@Z 1007e510 f   StrategyBossZerg.obj
 0001:0007d610       ?drawStrategyBossInformation@StrategyBossZerg@UAlbertaBot@@AAEXXZ 1007e610 f   StrategyBossZerg.obj
 0001:0007db80       ?Instance@StrategyBossZerg@UAlbertaBot@@SAAAV12@XZ 1007eb80 f   StrategyBossZerg.obj
 0001:0007dbe0       ?setUnitMix@StrategyBossZerg@UAlbertaBot@@QAEXVUnitType@BWAPI@@0@Z 1007ebe0 f   StrategyBossZerg.obj
 0001:0007dc60       ?handleUrgentProductionIssues@StrategyBossZerg@UAlbertaBot@@QAEXAAVBuildOrderQueue@2@@Z 1007ec60 f   StrategyBossZerg.obj
 0001:0007e0c0       ?freshProductionPlan@StrategyBossZerg@UAlbertaBot@@QAEAAVBuildOrder@2@XZ 1007f0c0 f   StrategyBossZerg.obj
 0001:0007e280       ??0Strategy@UAlbertaBot@@QAE@XZ 1007f280 f i StrategyManager.obj
 0001:0007e330       ??0StrategyManager@UAlbertaBot@@AAE@XZ 1007f330 f   StrategyManager.obj
 0001:0007e490       ??1?$map@V?$basic_string@DU?$char_traits@D@std@@V?$allocator@D@2@@std@@UStrategy@UAlbertaBot@@U?$less@V?$basic_string@DU?$char_traits@D@std@@V?$allocator@D@2@@std@@@2@V?$allocator@U?$pair@$$CBV?$basic_string@DU?$char_traits@D@std@@V?$allocator@D@2@@std@@UStrategy@UAlbertaBot@@@std@@@2@@std@@QAE@XZ 1007f490 f i StrategyManager.obj
 0001:0007e4c0       ?Instance@StrategyManager@UAlbertaBot@@SAAAV12@XZ 1007f4c0 f   StrategyManager.obj
 0001:0007e520       ??1StrategyManager@UAlbertaBot@@QAE@XZ 1007f520 f i StrategyManager.obj
 0001:0007e5b0       ?shouldExpandNow@StrategyManager@UAlbertaBot@@ABE?B_NXZ 1007f5b0 f   StrategyManager.obj
 0001:0007e7c0       ?addStrategy@StrategyManager@UAlbertaBot@@QAEXABV?$basic_string@DU?$char_traits@D@std@@V?$allocator@D@2@@std@@AAUStrategy@2@@Z 1007f7c0 f   StrategyManager.obj
 0001:0007e820       ?getBuildOrderGoal@StrategyManager@UAlbertaBot@@QAE?BV?$vector@U?$pair@VMacroAct@UAlbertaBot@@I@std@@V?$allocator@U?$pair@VMacroAct@UAlbertaBot@@I@std@@@2@@std@@XZ 1007f820 f   StrategyManager.obj
 0001:0007e8a0       ?getProtossBuildOrderGoal@StrategyManager@UAlbertaBot@@AAE?BV?$vector@U?$pair@VMacroAct@UAlbertaBot@@I@std@@V?$allocator@U?$pair@VMacroAct@UAlbertaBot@@I@std@@@2@@std@@XZ 1007f8a0 f   StrategyManager.obj
 0001:0007f370       ?getTerranBuildOrderGoal@StrategyManager@UAlbertaBot@@AAE?BV?$vector@U?$pair@VMacroAct@UAlbertaBot@@I@std@@V?$allocator@U?$pair@VMacroAct@UAlbertaBot@@I@std@@@2@@std@@XZ 10080370 f   StrategyManager.obj
 0001:00080840       ?getZergBuildOrderGoal@StrategyManager@UAlbertaBot@@ABE?BV?$vector@U?$pair@VMacroAct@UAlbertaBot@@I@std@@V?$allocator@U?$pair@VMacroAct@UAlbertaBot@@I@std@@@2@@std@@XZ 10081840 f   StrategyManager.obj
 0001:00080a40       ?handleUrgentProductionIssues@StrategyManager@UAlbertaBot@@QAEXAAVBuildOrderQueue@2@@Z 10081a40 f   StrategyManager.obj
 0001:00081380       ?detectSupplyBlock@StrategyManager@UAlbertaBot@@ABE_NAAVBuildOrderQueue@2@@Z 10082380 f   StrategyManager.obj
 0001:000816f0       ?handleExtremeEmergency@StrategyManager@UAlbertaBot@@AAE_NAAVBuildOrderQueue@2@@Z 100826f0 f   StrategyManager.obj
 0001:000817f0       ?freshProductionPlan@StrategyManager@UAlbertaBot@@QAEXXZ 100827f0 f   StrategyManager.obj
 0001:000818c0       ?performBuildOrderSearch@StrategyManager@UAlbertaBot@@AAEXXZ 100828c0 f   StrategyManager.obj
 0001:00081a50       ?canPlanBuildOrderNow@StrategyManager@UAlbertaBot@@ABE_NXZ 10082a50 f   StrategyManager.obj
 0001:00081b00       ?dropIsPlanned@StrategyManager@UAlbertaBot@@QBE_NXZ 10082b00 f   StrategyManager.obj
 0001:00081c20       ??4?$vector@VMacroAct@UAlbertaBot@@V?$allocator@VMacroAct@UAlbertaBot@@@std@@@std@@QAEAAV01@ABV01@@Z 10082c20 f i StrategyManager.obj
 0001:00081cf0       ??A?$map@V?$basic_string@DU?$char_traits@D@std@@V?$allocator@D@2@@std@@UStrategy@UAlbertaBot@@U?$less@V?$basic_string@DU?$char_traits@D@std@@V?$allocator@D@2@@std@@@2@V?$allocator@U?$pair@$$CBV?$basic_string@DU?$char_traits@D@std@@V?$allocator@D@2@@std@@UStrategy@UAlbertaBot@@@std@@@2@@std@@QAEAAUStrategy@UAlbertaBot@@ABV?$basic_string@DU?$char_traits@D@std@@V?$allocator@D@2@@1@@Z 10082cf0 f i StrategyManager.obj
 0001:00081d60       ?find@?$_Tree@V?$_Tmap_traits@V?$basic_string@DU?$char_traits@D@std@@V?$allocator@D@2@@std@@UStrategy@UAlbertaBot@@U?$less@V?$basic_string@DU?$char_traits@D@std@@V?$allocator@D@2@@std@@@2@V?$allocator@U?$pair@$$CBV?$basic_string@DU?$char_traits@D@std@@V?$allocator@D@2@@std@@UStrategy@UAlbertaBot@@@std@@@2@$0A@@std@@@std@@QAE?AV?$_Tree_iterator@V?$_Tree_val@U?$_Tree_simple_types@U?$pair@$$CBV?$basic_string@DU?$char_traits@D@std@@V?$allocator@D@2@@std@@UStrategy@UAlbertaBot@@@std@@@std@@@std@@@2@ABV?$basic_string@DU?$char_traits@D@std@@V?$allocator@D@2@@2@@Z 10082d60 f i StrategyManager.obj
 0001:00081dd0       ?push_back@?$vector@U?$pair@VMacroAct@UAlbertaBot@@I@std@@V?$allocator@U?$pair@VMacroAct@UAlbertaBot@@I@std@@@2@@std@@QAEX$$QAU?$pair@VMacroAct@UAlbertaBot@@I@2@@Z 10082dd0 f i StrategyManager.obj
 0001:00081e70       ?_Reserve@?$vector@U?$pair@VMacroAct@UAlbertaBot@@I@std@@V?$allocator@U?$pair@VMacroAct@UAlbertaBot@@I@std@@@2@@std@@IAEXI@Z 10082e70 f i StrategyManager.obj
 0001:00081f10       ?erase@?$_Tree@V?$_Tmap_traits@V?$basic_string@DU?$char_traits@D@std@@V?$allocator@D@2@@std@@UStrategy@UAlbertaBot@@U?$less@V?$basic_string@DU?$char_traits@D@std@@V?$allocator@D@2@@std@@@2@V?$allocator@U?$pair@$$CBV?$basic_string@DU?$char_traits@D@std@@V?$allocator@D@2@@std@@UStrategy@UAlbertaBot@@@std@@@2@$0A@@std@@@std@@QAE?AV?$_Tree_iterator@V?$_Tree_val@U?$_Tree_simple_types@U?$pair@$$CBV?$basic_string@DU?$char_traits@D@std@@V?$allocator@D@2@@std@@UStrategy@UAlbertaBot@@@std@@@std@@@std@@@2@V?$_Tree_const_iterator@V?$_Tree_val@U?$_Tree_simple_types@U?$pair@$$CBV?$basic_string@DU?$char_traits@D@std@@V?$allocator@D@2@@std@@UStrategy@UAlbertaBot@@@std@@@std@@@std@@@2@0@Z 10082f10 f i StrategyManager.obj
 0001:00081fd0       ?_Reallocate@?$vector@U?$pair@VMacroAct@UAlbertaBot@@I@std@@V?$allocator@U?$pair@VMacroAct@UAlbertaBot@@I@std@@@2@@std@@IAEXI@Z 10082fd0 f i StrategyManager.obj
 0001:00082060       ?erase@?$_Tree@V?$_Tmap_traits@V?$basic_string@DU?$char_traits@D@std@@V?$allocator@D@2@@std@@UStrategy@UAlbertaBot@@U?$less@V?$basic_string@DU?$char_traits@D@std@@V?$allocator@D@2@@std@@@2@V?$allocator@U?$pair@$$CBV?$basic_string@DU?$char_traits@D@std@@V?$allocator@D@2@@std@@UStrategy@UAlbertaBot@@@std@@@2@$0A@@std@@@std@@QAE?AV?$_Tree_iterator@V?$_Tree_val@U?$_Tree_simple_types@U?$pair@$$CBV?$basic_string@DU?$char_traits@D@std@@V?$allocator@D@2@@std@@UStrategy@UAlbertaBot@@@std@@@std@@@std@@@2@V?$_Tree_const_iterator@V?$_Tree_val@U?$_Tree_simple_types@U?$pair@$$CBV?$basic_string@DU?$char_traits@D@std@@V?$allocator@D@2@@std@@UStrategy@UAlbertaBot@@@std@@@std@@@std@@@2@@Z 10083060 f i StrategyManager.obj
 0001:00082360       ?_Erase@?$_Tree@V?$_Tmap_traits@V?$basic_string@DU?$char_traits@D@std@@V?$allocator@D@2@@std@@UStrategy@UAlbertaBot@@U?$less@V?$basic_string@DU?$char_traits@D@std@@V?$allocator@D@2@@std@@@2@V?$allocator@U?$pair@$$CBV?$basic_string@DU?$char_traits@D@std@@V?$allocator@D@2@@std@@UStrategy@UAlbertaBot@@@std@@@2@$0A@@std@@@std@@IAEXPAU?$_Tree_node@U?$pair@$$CBV?$basic_string@DU?$char_traits@D@std@@V?$allocator@D@2@@std@@UStrategy@UAlbertaBot@@@std@@PAX@2@@Z 10083360 f i StrategyManager.obj
 0001:00082430       ?_Buyheadnode@?$_Tree_alloc@$0A@U?$_Tree_base_types@U?$pair@$$CBV?$basic_string@DU?$char_traits@D@std@@V?$allocator@D@2@@std@@UStrategy@UAlbertaBot@@@std@@V?$allocator@U?$pair@$$CBV?$basic_string@DU?$char_traits@D@std@@V?$allocator@D@2@@std@@UStrategy@UAlbertaBot@@@std@@@2@@std@@@std@@QAEPAU?$_Tree_node@U?$pair@$$CBV?$basic_string@DU?$char_traits@D@std@@V?$allocator@D@2@@std@@UStrategy@UAlbertaBot@@@std@@PAX@2@XZ 10083430 f i StrategyManager.obj
 0001:00082460       ??$?0ABVUnitType@BWAPI@@AAHX@?$pair@VMacroAct@UAlbertaBot@@H@std@@QAE@ABVUnitType@BWAPI@@AAH@Z 10083460 f i StrategyManager.obj
 0001:00082460       ??$?0ABVUnitType@BWAPI@@ABHX@?$pair@VMacroAct@UAlbertaBot@@I@std@@QAE@ABVUnitType@BWAPI@@ABH@Z 10083460 f i StrategyManager.obj
 0001:00082460       ??$?0ABVUnitType@BWAPI@@HX@?$pair@VMacroAct@UAlbertaBot@@I@std@@QAE@ABVUnitType@BWAPI@@$$QAH@Z 10083460 f i StrategyManager.obj
 0001:00082460       ??$?0ABVUnitType@BWAPI@@HX@?$pair@VMacroAct@UAlbertaBot@@H@std@@QAE@ABVUnitType@BWAPI@@$$QAH@Z 10083460 f i StrategyManager.obj
 0001:000824b0       ??$?0ABVUpgradeType@BWAPI@@HX@?$pair@VMacroAct@UAlbertaBot@@I@std@@QAE@ABVUpgradeType@BWAPI@@$$QAH@Z 100834b0 f i StrategyManager.obj
 0001:000824b0       ??$?0ABVUpgradeType@BWAPI@@HX@?$pair@VMacroAct@UAlbertaBot@@H@std@@QAE@ABVUpgradeType@BWAPI@@$$QAH@Z 100834b0 f i StrategyManager.obj
 0001:00082510       ??$?0ABVTechType@BWAPI@@HX@?$pair@VMacroAct@UAlbertaBot@@H@std@@QAE@ABVTechType@BWAPI@@$$QAH@Z 10083510 f i StrategyManager.obj
 0001:00082570       ??$_Copy_impl@PAVMacroAct@UAlbertaBot@@PAV12@@std@@YAPAVMacroAct@UAlbertaBot@@PAV12@00@Z 10083570 f i StrategyManager.obj
 0001:000825a0       ??$_Insert@PBH@?$vector@HV?$allocator@H@std@@@std@@QAEXV?$_Vector_const_iterator@V?$_Vector_val@U?$_Simple_types@H@std@@@std@@@1@PBH1Uforward_iterator_tag@1@@Z 100835a0 f i StrategyManager.obj
 0001:000826f0       ??$_Buynode@ABUpiecewise_construct_t@std@@V?$tuple@ABV?$basic_string@DU?$char_traits@D@std@@V?$allocator@D@2@@std@@@2@V?$tuple@$$$V@2@@?$_Tree_buy@U?$pair@$$CBV?$basic_string@DU?$char_traits@D@std@@V?$allocator@D@2@@std@@UStrategy@UAlbertaBot@@@std@@V?$allocator@U?$pair@$$CBV?$basic_string@DU?$char_traits@D@std@@V?$allocator@D@2@@std@@UStrategy@UAlbertaBot@@@std@@@2@@std@@QAEPAU?$_Tree_node@U?$pair@$$CBV?$basic_string@DU?$char_traits@D@std@@V?$allocator@D@2@@std@@UStrategy@UAlbertaBot@@@std@@PAX@1@ABUpiecewise_construct_t@1@$$QAV?$tuple@ABV?$basic_string@DU?$char_traits@D@std@@V?$allocator@D@2@@std@@@1@$$QAV?$tuple@$$$V@1@@Z 100836f0 f i StrategyManager.obj
 0001:000827a0       ??$_Insert_hint@AAU?$pair@$$CBV?$basic_string@DU?$char_traits@D@std@@V?$allocator@D@2@@std@@UStrategy@UAlbertaBot@@@std@@PAU?$_Tree_node@U?$pair@$$CBV?$basic_string@DU?$char_traits@D@std@@V?$allocator@D@2@@std@@UStrategy@UAlbertaBot@@@std@@PAX@2@@?$_Tree@V?$_Tmap_traits@V?$basic_string@DU?$char_traits@D@std@@V?$allocator@D@2@@std@@UStrategy@UAlbertaBot@@U?$less@V?$basic_string@DU?$char_traits@D@std@@V?$allocator@D@2@@std@@@2@V?$allocator@U?$pair@$$CBV?$basic_string@DU?$char_traits@D@std@@V?$allocator@D@2@@std@@UStrategy@UAlbertaBot@@@std@@@2@$0A@@std@@@std@@IAE?AV?$_Tree_iterator@V?$_Tree_val@U?$_Tree_simple_types@U?$pair@$$CBV?$basic_string@DU?$char_traits@D@std@@V?$allocator@D@2@@std@@UStrategy@UAlbertaBot@@@std@@@std@@@std@@@1@V?$_Tree_const_iterator@V?$_Tree_val@U?$_Tree_simple_types@U?$pair@$$CBV?$basic_string@DU?$char_traits@D@std@@V?$allocator@D@2@@std@@UStrategy@UAlbertaBot@@@std@@@std@@@std@@@1@AAU?$pair@$$CBV?$basic_string@DU?$char_traits@D@std@@V?$allocator@D@2@@std@@UStrategy@UAlbertaBot@@@1@PAU?$_Tree_node@U?$pair@$$CBV?$basic_string@DU?$char_traits@D@std@@V?$allocator@D@2@@std@@UStrategy@UAlbertaBot@@@std@@PAX@1@@Z 100837a0 f i StrategyManager.obj
 0001:000829e0       ?_Destroy_if_not_nil@?$_Tree@V?$_Tmap_traits@V?$basic_string@DU?$char_traits@D@std@@V?$allocator@D@2@@std@@UStrategy@UAlbertaBot@@U?$less@V?$basic_string@DU?$char_traits@D@std@@V?$allocator@D@2@@std@@@2@V?$allocator@U?$pair@$$CBV?$basic_string@DU?$char_traits@D@std@@V?$allocator@D@2@@std@@UStrategy@UAlbertaBot@@@std@@@2@$0A@@std@@@std@@IAEXPAU?$_Tree_node@U?$pair@$$CBV?$basic_string@DU?$char_traits@D@std@@V?$allocator@D@2@@std@@UStrategy@UAlbertaBot@@@std@@PAX@2@@Z 100839e0 f i StrategyManager.obj
 0001:00082a30       ?_Buynode0@?$_Tree_buy@U?$pair@$$CBV?$basic_string@DU?$char_traits@D@std@@V?$allocator@D@2@@std@@UStrategy@UAlbertaBot@@@std@@V?$allocator@U?$pair@$$CBV?$basic_string@DU?$char_traits@D@std@@V?$allocator@D@2@@std@@UStrategy@UAlbertaBot@@@std@@@2@@std@@QAEPAU?$_Tree_node@U?$pair@$$CBV?$basic_string@DU?$char_traits@D@std@@V?$allocator@D@2@@std@@UStrategy@UAlbertaBot@@@std@@PAX@2@XZ 10083a30 f i StrategyManager.obj
 0001:00082a70       ??$_Insert_at@AAU?$pair@$$CBV?$basic_string@DU?$char_traits@D@std@@V?$allocator@D@2@@std@@UStrategy@UAlbertaBot@@@std@@PAU?$_Tree_node@U?$pair@$$CBV?$basic_string@DU?$char_traits@D@std@@V?$allocator@D@2@@std@@UStrategy@UAlbertaBot@@@std@@PAX@2@@?$_Tree@V?$_Tmap_traits@V?$basic_string@DU?$char_traits@D@std@@V?$allocator@D@2@@std@@UStrategy@UAlbertaBot@@U?$less@V?$basic_string@DU?$char_traits@D@std@@V?$allocator@D@2@@std@@@2@V?$allocator@U?$pair@$$CBV?$basic_string@DU?$char_traits@D@std@@V?$allocator@D@2@@std@@UStrategy@UAlbertaBot@@@std@@@2@$0A@@std@@@std@@IAE?AV?$_Tree_iterator@V?$_Tree_val@U?$_Tree_simple_types@U?$pair@$$CBV?$basic_string@DU?$char_traits@D@std@@V?$allocator@D@2@@std@@UStrategy@UAlbertaBot@@@std@@@std@@@std@@@1@_NPAU?$_Tree_node@U?$pair@$$CBV?$basic_string@DU?$char_traits@D@std@@V?$allocator@D@2@@std@@UStrategy@UAlbertaBot@@@std@@PAX@1@AAU?$pair@$$CBV?$basic_string@DU?$char_traits@D@std@@V?$allocator@D@2@@std@@UStrategy@UAlbertaBot@@@1@1@Z 10083a70 f i StrategyManager.obj
 0001:00082c70       ??$_Insert_nohint@AAU?$pair@$$CBV?$basic_string@DU?$char_traits@D@std@@V?$allocator@D@2@@std@@UStrategy@UAlbertaBot@@@std@@PAU?$_Tree_node@U?$pair@$$CBV?$basic_string@DU?$char_traits@D@std@@V?$allocator@D@2@@std@@UStrategy@UAlbertaBot@@@std@@PAX@2@@?$_Tree@V?$_Tmap_traits@V?$basic_string@DU?$char_traits@D@std@@V?$allocator@D@2@@std@@UStrategy@UAlbertaBot@@U?$less@V?$basic_string@DU?$char_traits@D@std@@V?$allocator@D@2@@std@@@2@V?$allocator@U?$pair@$$CBV?$basic_string@DU?$char_traits@D@std@@V?$allocator@D@2@@std@@UStrategy@UAlbertaBot@@@std@@@2@$0A@@std@@@std@@IAE?AU?$pair@V?$_Tree_iterator@V?$_Tree_val@U?$_Tree_simple_types@U?$pair@$$CBV?$basic_string@DU?$char_traits@D@std@@V?$allocator@D@2@@std@@UStrategy@UAlbertaBot@@@std@@@std@@@std@@@std@@_N@1@_NAAU?$pair@$$CBV?$basic_string@DU?$char_traits@D@std@@V?$allocator@D@2@@std@@UStrategy@UAlbertaBot@@@1@PAU?$_Tree_node@U?$pair@$$CBV?$basic_string@DU?$char_traits@D@std@@V?$allocator@D@2@@std@@UStrategy@UAlbertaBot@@@std@@PAX@1@@Z 10083c70 f i StrategyManager.obj
 0001:00082e40       ??$_Rotate@PAHHH@std@@YAXPAH0000@Z 10083e40 f i StrategyManager.obj
 0001:00082ef0       ??0The@UAlbertaBot@@QAE@XZ 10083ef0 f   The.obj
 0001:000830c0       ??1GridRoom@UAlbertaBot@@QAE@XZ 100840c0 f i The.obj
 0001:00083110       ??1GridZone@UAlbertaBot@@QAE@XZ 10084110 f i The.obj
 0001:00083170       ??1MapPartitions@UAlbertaBot@@QAE@XZ 10084170 f i The.obj
 0001:000831e0       ?Root@The@UAlbertaBot@@SAAAV12@XZ 100841e0 f   The.obj
 0001:00083240       ??1The@UAlbertaBot@@QAE@XZ 10084240 f i The.obj
 0001:00083390       ?getElapsedTimeInMilliSec@Timer@BOSS@@QAENXZ 10084390 f i TimerManager.obj
 0001:00083410       ??0TimerManager@UAlbertaBot@@QAE@XZ 10084410 f   TimerManager.obj
 0001:00083780       ?drawModuleTimers@TimerManager@UAlbertaBot@@QAEXHH@Z 10084780 f   TimerManager.obj
 0001:00083a30       ??0?$vector@VTimer@BOSS@@V?$allocator@VTimer@BOSS@@@std@@@std@@QAE@I@Z 10084a30 f i TimerManager.obj
 0001:00083aa0       ??$_Uninit_def_fill_n@PAVTimer@BOSS@@IV?$allocator@VTimer@BOSS@@@std@@V12@@std@@YAXPAVTimer@BOSS@@IAAU?$_Wrap_alloc@V?$allocator@VTimer@BOSS@@@std@@@0@0U_Nonscalar_ptr_iterator_tag@0@@Z 10084aa0 f i TimerManager.obj
 0001:00083b10       ?currentDateTime@Assert@UAlbertaBot@@YA?BV?$basic_string@DU?$char_traits@D@std@@V?$allocator@D@2@@std@@XZ 10084b10 f   UABAssert.obj
 0001:00083bc0       ?ReportFailure@Assert@UAlbertaBot@@YAXPBDH0ZZ 10084bc0 f   UABAssert.obj
 0001:00083ed0       ??$endl@DU?$char_traits@D@std@@@std@@YAAAV?$basic_ostream@DU?$char_traits@D@std@@@0@AAV10@@Z 10084ed0 f i UABAssert.obj
 0001:00083f00       ??_GUAlbertaBotModule@UAlbertaBot@@UAEPAXI@Z 10084f00 f i UAlbertaBotModule.obj
 0001:00083f00       ??_EUAlbertaBotModule@UAlbertaBot@@UAEPAXI@Z 10084f00 f i * CIL library *:* CIL module *
 0001:00083f30       ?onStart@UAlbertaBotModule@UAlbertaBot@@UAEXXZ 10084f30 f   UAlbertaBotModule.obj
 0001:00084100       ?onEnd@UAlbertaBotModule@UAlbertaBot@@UAEX_N@Z 10085100 f   UAlbertaBotModule.obj
 0001:00084180       ?onFrame@UAlbertaBotModule@UAlbertaBot@@UAEXXZ 10085180 f   UAlbertaBotModule.obj
 0001:00084400       ?onUnitDestroy@UAlbertaBotModule@UAlbertaBot@@UAEXPAVUnitInterface@BWAPI@@@Z 10085400 f   UAlbertaBotModule.obj
 0001:00084470       ?onUnitMorph@UAlbertaBotModule@UAlbertaBot@@UAEXPAVUnitInterface@BWAPI@@@Z 10085470 f   UAlbertaBotModule.obj
 0001:000844e0       ?onSendText@UAlbertaBotModule@UAlbertaBot@@UAEXV?$basic_string@DU?$char_traits@D@std@@V?$allocator@D@2@@std@@@Z 100854e0 f   UAlbertaBotModule.obj
 0001:00084540       ?onUnitCreate@UAlbertaBotModule@UAlbertaBot@@UAEXPAVUnitInterface@BWAPI@@@Z 10085540 f   UAlbertaBotModule.obj
 0001:00084540       ?onUnitHide@UAlbertaBotModule@UAlbertaBot@@UAEXPAVUnitInterface@BWAPI@@@Z 10085540 f   UAlbertaBotModule.obj
 0001:000845b0       ?onUnitComplete@UAlbertaBotModule@UAlbertaBot@@UAEXPAVUnitInterface@BWAPI@@@Z 100855b0 f   UAlbertaBotModule.obj
 0001:00084620       ?onUnitShow@UAlbertaBotModule@UAlbertaBot@@UAEXPAVUnitInterface@BWAPI@@@Z 10085620 f   UAlbertaBotModule.obj
 0001:00084690       ?onUnitRenegade@UAlbertaBotModule@UAlbertaBot@@UAEXPAVUnitInterface@BWAPI@@@Z 10085690 f   UAlbertaBotModule.obj
 0001:00084700       ?estimateHP@UnitInfo@UAlbertaBot@@QBEHXZ 10085700 f   UnitData.obj
 0001:000847b0       ?estimateShields@UnitInfo@UAlbertaBot@@QBEHXZ 100857b0 f   UnitData.obj
 0001:00084860       ??0UnitData@UAlbertaBot@@QAE@XZ 10085860 f   UnitData.obj
 0001:00084a40       ?updateGoneFromLastPosition@UnitData@UAlbertaBot@@QAEXXZ 10085a40 f   UnitData.obj
 0001:00084bc0       ?updateUnit@UnitData@UAlbertaBot@@QAEXPAVUnitInterface@BWAPI@@@Z 10085bc0 f   UnitData.obj
 0001:00084d20       ?removeUnit@UnitData@UAlbertaBot@@QAEXPAVUnitInterface@BWAPI@@@Z 10085d20 f   UnitData.obj
 0001:00084db0       ?removeBadUnits@UnitData@UAlbertaBot@@QAEXXZ 10085db0 f   UnitData.obj
 0001:00084ea0       ??A?$map@PAVUnitInterface@BWAPI@@UUnitInfo@UAlbertaBot@@U?$less@PAVUnitInterface@BWAPI@@@std@@V?$allocator@U?$pair@QAVUnitInterface@BWAPI@@UUnitInfo@UAlbertaBot@@@std@@@6@@std@@QAEAAUUnitInfo@UAlbertaBot@@ABQAVUnitInterface@BWAPI@@@Z 10085ea0 f i UnitData.obj
 0001:00084f20       ?_Buyheadnode@?$_Tree_alloc@$0A@U?$_Tree_base_types@U?$pair@QAVUnitInterface@BWAPI@@UUnitInfo@UAlbertaBot@@@std@@V?$allocator@U?$pair@QAVUnitInterface@BWAPI@@UUnitInfo@UAlbertaBot@@@std@@@2@@std@@@std@@QAEPAU?$_Tree_node@U?$pair@QAVUnitInterface@BWAPI@@UUnitInfo@UAlbertaBot@@@std@@PAX@2@XZ 10085f20 f i UnitData.obj
 0001:00084f50       ??$_Buynode@ABUpiecewise_construct_t@std@@V?$tuple@ABQAVUnitInterface@BWAPI@@@2@V?$tuple@$$$V@2@@?$_Tree_buy@U?$pair@QAVUnitInterface@BWAPI@@UUnitInfo@UAlbertaBot@@@std@@V?$allocator@U?$pair@QAVUnitInterface@BWAPI@@UUnitInfo@UAlbertaBot@@@std@@@2@@std@@QAEPAU?$_Tree_node@U?$pair@QAVUnitInterface@BWAPI@@UUnitInfo@UAlbertaBot@@@std@@PAX@1@ABUpiecewise_construct_t@1@$$QAV?$tuple@ABQAVUnitInterface@BWAPI@@@1@$$QAV?$tuple@$$$V@1@@Z 10085f50 f i UnitData.obj
 0001:00084fd0       ??$_Insert_hint@AAU?$pair@QAVUnitInterface@BWAPI@@UUnitInfo@UAlbertaBot@@@std@@PAU?$_Tree_node@U?$pair@QAVUnitInterface@BWAPI@@UUnitInfo@UAlbertaBot@@@std@@PAX@2@@?$_Tree@V?$_Tmap_traits@PAVUnitInterface@BWAPI@@UUnitInfo@UAlbertaBot@@U?$less@PAVUnitInterface@BWAPI@@@std@@V?$allocator@U?$pair@QAVUnitInterface@BWAPI@@UUnitInfo@UAlbertaBot@@@std@@@6@$0A@@std@@@std@@IAE?AV?$_Tree_iterator@V?$_Tree_val@U?$_Tree_simple_types@U?$pair@QAVUnitInterface@BWAPI@@UUnitInfo@UAlbertaBot@@@std@@@std@@@std@@@1@V?$_Tree_const_iterator@V?$_Tree_val@U?$_Tree_simple_types@U?$pair@QAVUnitInterface@BWAPI@@UUnitInfo@UAlbertaBot@@@std@@@std@@@std@@@1@AAU?$pair@QAVUnitInterface@BWAPI@@UUnitInfo@UAlbertaBot@@@1@PAU?$_Tree_node@U?$pair@QAVUnitInterface@BWAPI@@UUnitInfo@UAlbertaBot@@@std@@PAX@1@@Z 10085fd0 f i UnitData.obj
 0001:000851f0       ?_Buynode0@?$_Tree_buy@U?$pair@QAVUnitInterface@BWAPI@@UUnitInfo@UAlbertaBot@@@std@@V?$allocator@U?$pair@QAVUnitInterface@BWAPI@@UUnitInfo@UAlbertaBot@@@std@@@2@@std@@QAEPAU?$_Tree_node@U?$pair@QAVUnitInterface@BWAPI@@UUnitInfo@UAlbertaBot@@@std@@PAX@2@XZ 100861f0 f i UnitData.obj
 0001:00085230       ??$_Insert_at@AAU?$pair@QAVUnitInterface@BWAPI@@UUnitInfo@UAlbertaBot@@@std@@PAU?$_Tree_node@U?$pair@QAVUnitInterface@BWAPI@@UUnitInfo@UAlbertaBot@@@std@@PAX@2@@?$_Tree@V?$_Tmap_traits@PAVUnitInterface@BWAPI@@UUnitInfo@UAlbertaBot@@U?$less@PAVUnitInterface@BWAPI@@@std@@V?$allocator@U?$pair@QAVUnitInterface@BWAPI@@UUnitInfo@UAlbertaBot@@@std@@@6@$0A@@std@@@std@@IAE?AV?$_Tree_iterator@V?$_Tree_val@U?$_Tree_simple_types@U?$pair@QAVUnitInterface@BWAPI@@UUnitInfo@UAlbertaBot@@@std@@@std@@@std@@@1@_NPAU?$_Tree_node@U?$pair@QAVUnitInterface@BWAPI@@UUnitInfo@UAlbertaBot@@@std@@PAX@1@AAU?$pair@QAVUnitInterface@BWAPI@@UUnitInfo@UAlbertaBot@@@1@1@Z 10086230 f i UnitData.obj
 0001:00085400       ??$_Insert_nohint@AAU?$pair@QAVUnitInterface@BWAPI@@UUnitInfo@UAlbertaBot@@@std@@PAU?$_Tree_node@U?$pair@QAVUnitInterface@BWAPI@@UUnitInfo@UAlbertaBot@@@std@@PAX@2@@?$_Tree@V?$_Tmap_traits@PAVUnitInterface@BWAPI@@UUnitInfo@UAlbertaBot@@U?$less@PAVUnitInterface@BWAPI@@@std@@V?$allocator@U?$pair@QAVUnitInterface@BWAPI@@UUnitInfo@UAlbertaBot@@@std@@@6@$0A@@std@@@std@@IAE?AU?$pair@V?$_Tree_iterator@V?$_Tree_val@U?$_Tree_simple_types@U?$pair@QAVUnitInterface@BWAPI@@UUnitInfo@UAlbertaBot@@@std@@@std@@@std@@@std@@_N@1@_NAAU?$pair@QAVUnitInterface@BWAPI@@UUnitInfo@UAlbertaBot@@@1@PAU?$_Tree_node@U?$pair@QAVUnitInterface@BWAPI@@UUnitInfo@UAlbertaBot@@@std@@PAX@1@@Z 10086400 f i UnitData.obj
 0001:00085510       ?IsMorphedBuildingType@UnitUtil@UAlbertaBot@@YA_NVUnitType@BWAPI@@@Z 10086510 f   UnitUtil.obj
 0001:00085550       ?IsMorphedUnitType@UnitUtil@UAlbertaBot@@YA_NVUnitType@BWAPI@@@Z 10086550 f   UnitUtil.obj
 0001:00085580       ?IsCompletedResourceDepot@UnitUtil@UAlbertaBot@@YA_NPAVUnitInterface@BWAPI@@@Z 10086580 f   UnitUtil.obj
 0001:000855f0       ?IsStaticDefense@UnitUtil@UAlbertaBot@@YA_NVUnitType@BWAPI@@@Z 100865f0 f   UnitUtil.obj
 0001:00085630       ?IsCombatSimUnit@UnitUtil@UAlbertaBot@@YA_NPAVUnitInterface@BWAPI@@@Z 10086630 f   UnitUtil.obj
 0001:00085720       ?IsCombatSimUnit@UnitUtil@UAlbertaBot@@YA_NVUnitType@BWAPI@@@Z 10086720 f   UnitUtil.obj
 0001:00085790       ?IsCombatUnit@UnitUtil@UAlbertaBot@@YA_NVUnitType@BWAPI@@@Z 10086790 f   UnitUtil.obj
 0001:00085820       ?IsValidUnit@UnitUtil@UAlbertaBot@@YA_NPAVUnitInterface@BWAPI@@@Z 10086820 f   UnitUtil.obj
 0001:000858e0       ?CanAttack@UnitUtil@UAlbertaBot@@YA_NPAVUnitInterface@BWAPI@@0@Z 100868e0 f   UnitUtil.obj
 0001:00085990       ?CanAttack@UnitUtil@UAlbertaBot@@YA_NVUnitType@BWAPI@@0@Z 10086990 f   UnitUtil.obj
 0001:00085a00       ?CanAttackAir@UnitUtil@UAlbertaBot@@YA_NPAVUnitInterface@BWAPI@@@Z 10086a00 f   UnitUtil.obj
 0001:00085a40       ?CanAttackGround@UnitUtil@UAlbertaBot@@YA_NPAVUnitInterface@BWAPI@@@Z 10086a40 f   UnitUtil.obj
 0001:00085a90       ?TypeCanAttackGround@UnitUtil@UAlbertaBot@@YA_NVUnitType@BWAPI@@@Z 10086a90 f   UnitUtil.obj
 0001:00085ad0       ?GroundDPF@UnitUtil@UAlbertaBot@@YANPAVPlayerInterface@BWAPI@@VUnitType@4@@Z 10086ad0 f   UnitUtil.obj
 0001:00085b90       ?AirDPF@UnitUtil@UAlbertaBot@@YANPAVPlayerInterface@BWAPI@@VUnitType@4@@Z 10086b90 f   UnitUtil.obj
 0001:00085c40       ?GetGroundWeapon@UnitUtil@UAlbertaBot@@YA?AVWeaponType@BWAPI@@PAVUnitInterface@4@@Z 10086c40 f   UnitUtil.obj
 0001:00085cb0       ?GetGroundWeapon@UnitUtil@UAlbertaBot@@YA?AVWeaponType@BWAPI@@VUnitType@4@@Z 10086cb0 f   UnitUtil.obj
 0001:00085d10       ?GetAirWeapon@UnitUtil@UAlbertaBot@@YA?AVWeaponType@BWAPI@@PAVUnitInterface@4@@Z 10086d10 f   UnitUtil.obj
 0001:00085d60       ?GetAirWeapon@UnitUtil@UAlbertaBot@@YA?AVWeaponType@BWAPI@@VUnitType@4@@Z 10086d60 f   UnitUtil.obj
 0001:00085da0       ?GetWeapon@UnitUtil@UAlbertaBot@@YA?AVWeaponType@BWAPI@@PAVUnitInterface@4@0@Z 10086da0 f   UnitUtil.obj
 0001:00085dd0       ?GetWeapon@UnitUtil@UAlbertaBot@@YA?AVWeaponType@BWAPI@@VUnitType@4@PAVUnitInterface@4@@Z 10086dd0 f   UnitUtil.obj
 0001:00085e60       ?GetWeapon@UnitUtil@UAlbertaBot@@YA?AVWeaponType@BWAPI@@VUnitType@4@0@Z 10086e60 f   UnitUtil.obj
 0001:00085ee0       ?GetAttackRange@UnitUtil@UAlbertaBot@@YAHPAVUnitInterface@BWAPI@@0@Z 10086ee0 f   UnitUtil.obj
 0001:00086000       ?GetAttackRangeAssumingUpgrades@UnitUtil@UAlbertaBot@@YAHVUnitType@BWAPI@@0@Z 10087000 f   UnitUtil.obj
 0001:000860e0       ?FramesToReachAttackRange@UnitUtil@UAlbertaBot@@YAHPAVUnitInterface@BWAPI@@0@Z 100870e0 f   UnitUtil.obj
 0001:00086190       ?GetAllUnitCount@UnitUtil@UAlbertaBot@@YAHVUnitType@BWAPI@@@Z 10087190 f   UnitUtil.obj
 0001:00086330       ?GetCompletedUnitCount@UnitUtil@UAlbertaBot@@YAHVUnitType@BWAPI@@@Z 10087330 f   UnitUtil.obj
 0001:000863b0       ?GetUncompletedUnitCount@UnitUtil@UAlbertaBot@@YAHVUnitType@BWAPI@@@Z 100873b0 f   UnitUtil.obj
 0001:00086560       ?MobilizeUnit@UnitUtil@UAlbertaBot@@YA_NPAVUnitInterface@BWAPI@@@Z 10087560 f   UnitUtil.obj
 0001:00086630       ??0WorkerData@UAlbertaBot@@QAE@XZ 10087630 f   WorkerData.obj
 0001:00086820       ?workerDestroyed@WorkerData@UAlbertaBot@@QAEXPAVUnitInterface@BWAPI@@@Z 10087820 f   WorkerData.obj
 0001:00086870       ?addWorker@WorkerData@UAlbertaBot@@QAEXPAVUnitInterface@BWAPI@@@Z 10087870 f   WorkerData.obj
 0001:000868c0       ?removeDepot@WorkerData@UAlbertaBot@@QAEXPAVUnitInterface@BWAPI@@@Z 100878c0 f   WorkerData.obj
 0001:000869c0       ?addToMineralPatch@WorkerData@UAlbertaBot@@QAEXPAVUnitInterface@BWAPI@@H@Z 100879c0 f   WorkerData.obj
 0001:00086a40       ?setWorkerJob@WorkerData@UAlbertaBot@@QAEXPAVUnitInterface@BWAPI@@W4WorkerJob@12@0@Z 10087a40 f   WorkerData.obj
 0001:00086b60       ?clearPreviousJob@WorkerData@UAlbertaBot@@AAEXPAVUnitInterface@BWAPI@@@Z 10087b60 f   WorkerData.obj
 0001:00086c90       ?getNumMineralWorkers@WorkerData@UAlbertaBot@@QBEHXZ 10087c90 f   WorkerData.obj
 0001:00086d10       ?getNumGasWorkers@WorkerData@UAlbertaBot@@QBEHXZ 10087d10 f   WorkerData.obj
 0001:00086d90       ?getNumReturnCargoWorkers@WorkerData@UAlbertaBot@@QBEHXZ 10087d90 f   WorkerData.obj
 0001:00086e10       ?getNumCombatWorkers@WorkerData@UAlbertaBot@@QBEHXZ 10087e10 f   WorkerData.obj
 0001:00086e90       ?getNumIdleWorkers@WorkerData@UAlbertaBot@@QBEHXZ 10087e90 f   WorkerData.obj
 0001:00086f10       ?getMineralPatchesNearDepot@WorkerData@UAlbertaBot@@QAE?AVUnitset@BWAPI@@PAVUnitInterface@4@@Z 10087f10 f   WorkerData.obj
 0001:00087040       ?getMineralsNearDepot@WorkerData@UAlbertaBot@@QAEHPAVUnitInterface@BWAPI@@@Z 10088040 f   WorkerData.obj
 0001:000870b0       ?getWorkerResource@WorkerData@UAlbertaBot@@QAEPAVUnitInterface@BWAPI@@PAV34@@Z 100880b0 f   WorkerData.obj
 0001:00087170       ?getMineralToMine@WorkerData@UAlbertaBot@@AAEPAVUnitInterface@BWAPI@@PAV34@@Z 10088170 f   WorkerData.obj
 0001:00087290       ?getNumAssignedWorkers@WorkerData@UAlbertaBot@@QAEHPAVUnitInterface@BWAPI@@@Z 10088290 f   WorkerData.obj
 0001:00087330       ?getGasWorkers@WorkerData@UAlbertaBot@@QAEXAAV?$set@PAVUnitInterface@BWAPI@@U?$less@PAVUnitInterface@BWAPI@@@std@@V?$allocator@PAVUnitInterface@BWAPI@@@4@@std@@@Z 10088330 f   WorkerData.obj
 0001:000873c0       ?getJobCode@WorkerData@UAlbertaBot@@QAEDPAVUnitInterface@BWAPI@@@Z 100883c0 f   WorkerData.obj
 0001:00087470       ?drawDepotDebugInfo@WorkerData@UAlbertaBot@@QAEXXZ 10088470 f   WorkerData.obj
 0001:00087630       ?erase@?$_Tree@V?$_Tmap_traits@PAVUnitInterface@BWAPI@@VUnitType@2@U?$less@PAVUnitInterface@BWAPI@@@std@@V?$allocator@U?$pair@QAVUnitInterface@BWAPI@@VUnitType@2@@std@@@5@$0A@@std@@@std@@QAEIABQAVUnitInterface@BWAPI@@@Z 10088630 f i WorkerData.obj
 0001:00087630       ?erase@?$_Tree@V?$_Tmap_traits@PAVUnitInterface@BWAPI@@PAV12@U?$less@PAVUnitInterface@BWAPI@@@std@@V?$allocator@U?$pair@QAVUnitInterface@BWAPI@@PAV12@@std@@@4@$0A@@std@@@std@@QAEIABQAVUnitInterface@BWAPI@@@Z 10088630 f i WorkerData.obj
 0001:00087680       ??A?$map@PAVUnitInterface@BWAPI@@VUnitType@2@U?$less@PAVUnitInterface@BWAPI@@@std@@V?$allocator@U?$pair@QAVUnitInterface@BWAPI@@VUnitType@2@@std@@@5@@std@@QAEAAVUnitType@BWAPI@@ABQAVUnitInterface@3@@Z 10088680 f i WorkerData.obj
 0001:00087700       ??$_Distance2@V?$_Tree_iterator@V?$_Tree_val@U?$_Tree_simple_types@U?$pair@QAVUnitInterface@BWAPI@@VUnitType@2@@std@@@std@@@std@@@std@@I@std@@YAXV?$_Tree_iterator@V?$_Tree_val@U?$_Tree_simple_types@U?$pair@QAVUnitInterface@BWAPI@@VUnitType@2@@std@@@std@@@std@@@0@0AAIUbidirectional_iterator_tag@0@@Z 10088700 f i WorkerData.obj
 0001:00087700       ??$_Distance2@V?$_Tree_iterator@V?$_Tree_val@U?$_Tree_simple_types@U?$pair@QAVUnitInterface@BWAPI@@PAV12@@std@@@std@@@std@@@std@@I@std@@YAXV?$_Tree_iterator@V?$_Tree_val@U?$_Tree_simple_types@U?$pair@QAVUnitInterface@BWAPI@@PAV12@@std@@@std@@@std@@@0@0AAIUbidirectional_iterator_tag@0@@Z 10088700 f i WorkerData.obj
 0001:00087770       ??$_Buynode@ABUpiecewise_construct_t@std@@V?$tuple@ABQAVUnitInterface@BWAPI@@@2@V?$tuple@$$$V@2@@?$_Tree_buy@U?$pair@QAVUnitInterface@BWAPI@@VUnitType@2@@std@@V?$allocator@U?$pair@QAVUnitInterface@BWAPI@@VUnitType@2@@std@@@2@@std@@QAEPAU?$_Tree_node@U?$pair@QAVUnitInterface@BWAPI@@VUnitType@2@@std@@PAX@1@ABUpiecewise_construct_t@1@$$QAV?$tuple@ABQAVUnitInterface@BWAPI@@@1@$$QAV?$tuple@$$$V@1@@Z 10088770 f i WorkerData.obj
 0001:000877a0       ??0WorkerManager@UAlbertaBot@@AAE@XZ 100887a0 f   WorkerManager.obj
 0001:00087830       ??1WorkerData@UAlbertaBot@@QAE@XZ 10088830 f i WorkerManager.obj
 0001:00087950       ?Instance@WorkerManager@UAlbertaBot@@SAAAV12@XZ 10088950 f   WorkerManager.obj
 0001:000879b0       ?updateWorkerStatus@WorkerManager@UAlbertaBot@@QAEXXZ 100889b0 f   WorkerManager.obj
 0001:00087f90       ?setRepairWorker@WorkerManager@UAlbertaBot@@QAEXPAVUnitInterface@BWAPI@@0@Z 10088f90 f   WorkerManager.obj
 0001:00088020       ?handleGasWorkers@WorkerManager@UAlbertaBot@@AAEXXZ 10089020 f   WorkerManager.obj
 0001:00088520       ?handleIdleWorkers@WorkerManager@UAlbertaBot@@AAEXXZ 10089520 f   WorkerManager.obj
 0001:00088660       ?handleReturnCargoWorkers@WorkerManager@UAlbertaBot@@AAEXXZ 10089660 f   WorkerManager.obj
 0001:00088780       ?handleRepairWorkers@WorkerManager@UAlbertaBot@@AAEXXZ 10089780 f   WorkerManager.obj
 0001:00088840       ?handleMineralWorkers@WorkerManager@UAlbertaBot@@AAEXXZ 10089840 f   WorkerManager.obj
 0001:00088940       ?findEnemyTargetForWorker@WorkerManager@UAlbertaBot@@ABEPAVUnitInterface@BWAPI@@PAV34@@Z 10089940 f   WorkerManager.obj
 0001:00088a90       ?defendSelf@WorkerManager@UAlbertaBot@@AAE_NPAVUnitInterface@BWAPI@@0@Z 10089a90 f   WorkerManager.obj
 0001:00088b10       ?getClosestMineralWorkerTo@WorkerManager@UAlbertaBot@@QAEPAVUnitInterface@BWAPI@@PAV34@@Z 10089b10 f   WorkerManager.obj
 0001:00088cb0       ?getAnyClosestDepot@WorkerManager@UAlbertaBot@@AAEPAVUnitInterface@BWAPI@@PAV34@@Z 10089cb0 f   WorkerManager.obj
 0001:00088dd0       ?getClosestNonFullDepot@WorkerManager@UAlbertaBot@@AAEPAVUnitInterface@BWAPI@@PAV34@@Z 10089dd0 f   WorkerManager.obj
 0001:00089020       ?getGasWorker@WorkerManager@UAlbertaBot@@QAEPAVUnitInterface@BWAPI@@PAV34@@Z 1008a020 f   WorkerManager.obj
 0001:00089180       ?getAnyWorker@WorkerManager@UAlbertaBot@@AAEPAVUnitInterface@BWAPI@@V?$Point@H$00@4@H@Z 1008a180 f   WorkerManager.obj
 0001:00089270       ?getUnencumberedWorker@WorkerManager@UAlbertaBot@@AAEPAVUnitInterface@BWAPI@@V?$Point@H$00@4@H@Z 1008a270 f   WorkerManager.obj
 0001:000893a0       ?getBuilder@WorkerManager@UAlbertaBot@@QAEPAVUnitInterface@BWAPI@@ABVBuilding@2@@Z 1008a3a0 f   WorkerManager.obj
 0001:00089530       ?setBuildWorker@WorkerManager@UAlbertaBot@@QAEXPAVUnitInterface@BWAPI@@VUnitType@4@@Z 1008a530 f   WorkerManager.obj
 0001:000895a0       ?setScoutWorker@WorkerManager@UAlbertaBot@@QAEXPAVUnitInterface@BWAPI@@@Z 1008a5a0 f   WorkerManager.obj
 0001:00089610       ?willHaveResources@WorkerManager@UAlbertaBot@@QAE_NHHN@Z 1008a610 f   WorkerManager.obj
 0001:00089700       ?setCombatWorker@WorkerManager@UAlbertaBot@@QAEXPAVUnitInterface@BWAPI@@@Z 1008a700 f   WorkerManager.obj
 0001:00089770       ?onUnitMorph@WorkerManager@UAlbertaBot@@QAEXPAVUnitInterface@BWAPI@@@Z 1008a770 f   WorkerManager.obj
 0001:00089850       ?onUnitShow@WorkerManager@UAlbertaBot@@QAEXPAVUnitInterface@BWAPI@@@Z 1008a850 f   WorkerManager.obj
 0001:00089960       ?rebalanceWorkers@WorkerManager@UAlbertaBot@@QAEXXZ 1008a960 f   WorkerManager.obj
 0001:00089af0       ?onUnitDestroy@WorkerManager@UAlbertaBot@@QAEXPAVUnitInterface@BWAPI@@@Z 1008aaf0 f   WorkerManager.obj
 0001:00089bc0       ?drawResourceDebugInfo@WorkerManager@UAlbertaBot@@QAEXXZ 1008abc0 f   WorkerManager.obj
 0001:00089e00       ?drawWorkerInformation@WorkerManager@UAlbertaBot@@QAEXHH@Z 1008ae00 f   WorkerManager.obj
 0001:00089f10       ?isFree@WorkerManager@UAlbertaBot@@QAE_NPAVUnitInterface@BWAPI@@@Z 1008af10 f   WorkerManager.obj
 0001:00089f90       ?getMaxWorkers@WorkerManager@UAlbertaBot@@QBEHXZ 1008af90 f   WorkerManager.obj
 0001:0008a0a0       ?isValid@?$Point@H$00@BWAPI@@QBE_NXZ 1008b0a0 f i BWAPI:Position.obj
 0001:0008a110       ?makeValid@?$Point@H$00@BWAPI@@QAEAAV12@XZ 1008b110 f i BWAPI:Position.obj
 0001:0008a190       ?isValid@?$Point@H$0CA@@BWAPI@@QBE_NXZ 1008b190 f i BWAPI:Position.obj
 0001:0008a210       ?makeValid@?$Point@H$0CA@@BWAPI@@QAEAAV12@XZ 1008b210 f i BWAPI:Position.obj
 0001:0008a2a0       ??0UnitType@BWAPI@@QAE@H@Z 1008b2a0 f   BWAPI:UnitType.obj
 0001:0008a2c0       ?whatBuilds@UnitType@BWAPI@@QBE?BU?$pair@VUnitType@BWAPI@@H@std@@XZ 1008b2c0 f   BWAPI:UnitType.obj
 0001:0008a310       ?reqUnitsInit@BWAPI@@YA?AV?$vector@V?$map@VUnitType@BWAPI@@HU?$less@VUnitType@BWAPI@@@std@@V?$allocator@U?$pair@$$CBVUnitType@BWAPI@@H@std@@@4@@std@@V?$allocator@V?$map@VUnitType@BWAPI@@HU?$less@VUnitType@BWAPI@@@std@@V?$allocator@U?$pair@$$CBVUnitType@BWAPI@@H@std@@@4@@std@@@2@@std@@XZ 1008b310 f   BWAPI:UnitType.obj
 0001:0008ac40       ?requiredUnits@UnitType@BWAPI@@QBEABV?$map@VUnitType@BWAPI@@HU?$less@VUnitType@BWAPI@@@std@@V?$allocator@U?$pair@$$CBVUnitType@BWAPI@@H@std@@@4@@std@@XZ 1008bc40 f   BWAPI:UnitType.obj
 0001:0008aca0       ?topSpeed@UnitType@BWAPI@@QBENXZ 1008bca0 f   BWAPI:UnitType.obj
 0001:0008acb0       ?canAttack@UnitType@BWAPI@@QBE_NXZ 1008bcb0 f   BWAPI:UnitType.obj
 0001:0008adb0       ?isRefinery@UnitType@BWAPI@@QBE_NXZ 1008bdb0 f   BWAPI:UnitType.obj
 0001:0008add0       ?isNeutral@UnitType@BWAPI@@QBE_NXZ 1008bdd0 f   BWAPI:UnitType.obj
 0001:0008ae40       ?isMineralField@UnitType@BWAPI@@QBE_NXZ 1008be40 f   BWAPI:UnitType.obj
 0001:0008ae60       ?canBuildAddon@UnitType@BWAPI@@QBE_NXZ 1008be60 f   BWAPI:UnitType.obj
 0001:0008ae90       ??0?$SetContainer@VTechType@BWAPI@@U?$hash@H@std@@@BWAPI@@QAE@XZ 1008be90 f i BWAPI:UnitType.obj
 0001:0008ae90       ??0?$SetContainer@VUnitType@BWAPI@@U?$hash@H@std@@@BWAPI@@QAE@XZ 1008be90 f i BWAPI:UnitType.obj
 0001:0008ae90       ??0?$SetContainer@VUpgradeType@BWAPI@@U?$hash@H@std@@@BWAPI@@QAE@XZ 1008be90 f i BWAPI:UnitType.obj
 0001:0008aea0       ??0?$SetContainer@VTechType@BWAPI@@U?$hash@H@std@@@BWAPI@@QAE@V?$initializer_list@VTechType@BWAPI@@@std@@@Z 1008bea0 f i BWAPI:UnitType.obj
 0001:0008aea0       ??0?$SetContainer@VUpgradeType@BWAPI@@U?$hash@H@std@@@BWAPI@@QAE@V?$initializer_list@VUpgradeType@BWAPI@@@std@@@Z 1008bea0 f i BWAPI:UnitType.obj
 0001:0008aea0       ??0?$SetContainer@VUnitType@BWAPI@@U?$hash@H@std@@@BWAPI@@QAE@V?$initializer_list@VUnitType@BWAPI@@@std@@@Z 1008bea0 f i BWAPI:UnitType.obj
 0001:0008af00       ??0?$initializer_list@VTechType@BWAPI@@@std@@QAE@PBVTechType@BWAPI@@0@Z 1008bf00 f i BWAPI:UnitType.obj
 0001:0008af00       ??0?$initializer_list@VUpgradeType@BWAPI@@@std@@QAE@PBVUpgradeType@BWAPI@@0@Z 1008bf00 f i BWAPI:UnitType.obj
 0001:0008af00       ??0?$initializer_list@VUnitType@BWAPI@@@std@@QAE@PBVUnitType@BWAPI@@0@Z 1008bf00 f i BWAPI:UnitType.obj
 0001:0008af20       ??1?$vector@V?$map@VUnitType@BWAPI@@HU?$less@VUnitType@BWAPI@@@std@@V?$allocator@U?$pair@$$CBVUnitType@BWAPI@@H@std@@@4@@std@@V?$allocator@V?$map@VUnitType@BWAPI@@HU?$less@VUnitType@BWAPI@@@std@@V?$allocator@U?$pair@$$CBVUnitType@BWAPI@@H@std@@@4@@std@@@2@@std@@QAE@XZ 1008bf20 f i BWAPI:UnitType.obj
 0001:0008af20       ?_Tidy@?$vector@V?$map@VUnitType@BWAPI@@HU?$less@VUnitType@BWAPI@@@std@@V?$allocator@U?$pair@$$CBVUnitType@BWAPI@@H@std@@@4@@std@@V?$allocator@V?$map@VUnitType@BWAPI@@HU?$less@VUnitType@BWAPI@@@std@@V?$allocator@U?$pair@$$CBVUnitType@BWAPI@@H@std@@@4@@std@@@2@@std@@IAEXXZ 1008bf20 f i BWAPI:UnitType.obj
 0001:0008af70       ?resize@?$vector@V?$map@VUnitType@BWAPI@@HU?$less@VUnitType@BWAPI@@@std@@V?$allocator@U?$pair@$$CBVUnitType@BWAPI@@H@std@@@4@@std@@V?$allocator@V?$map@VUnitType@BWAPI@@HU?$less@VUnitType@BWAPI@@@std@@V?$allocator@U?$pair@$$CBVUnitType@BWAPI@@H@std@@@4@@std@@@2@@std@@QAEXI@Z 1008bf70 f i BWAPI:UnitType.obj
 0001:0008b050       ?_Reserve@?$vector@V?$map@VUnitType@BWAPI@@HU?$less@VUnitType@BWAPI@@@std@@V?$allocator@U?$pair@$$CBVUnitType@BWAPI@@H@std@@@4@@std@@V?$allocator@V?$map@VUnitType@BWAPI@@HU?$less@VUnitType@BWAPI@@@std@@V?$allocator@U?$pair@$$CBVUnitType@BWAPI@@H@std@@@4@@std@@@2@@std@@IAEXI@Z 1008c050 f i BWAPI:UnitType.obj
 0001:0008b0a0       ??0?$_Hash@V?$_Uset_traits@VUnitType@BWAPI@@V?$_Uhash_compare@VUnitType@BWAPI@@U?$hash@H@std@@U?$equal_to@VUnitType@BWAPI@@@4@@std@@V?$allocator@VUnitType@BWAPI@@@4@$0A@@std@@@std@@QAE@ABV?$_Uhash_compare@VUnitType@BWAPI@@U?$hash@H@std@@U?$equal_to@VUnitType@BWAPI@@@4@@1@ABV?$allocator@VUnitType@BWAPI@@@1@@Z 1008c0a0 f i BWAPI:UnitType.obj
 0001:0008b0a0       ??0?$_Hash@V?$_Uset_traits@VUpgradeType@BWAPI@@V?$_Uhash_compare@VUpgradeType@BWAPI@@U?$hash@H@std@@U?$equal_to@VUpgradeType@BWAPI@@@4@@std@@V?$allocator@VUpgradeType@BWAPI@@@4@$0A@@std@@@std@@QAE@ABV?$_Uhash_compare@VUpgradeType@BWAPI@@U?$hash@H@std@@U?$equal_to@VUpgradeType@BWAPI@@@4@@1@ABV?$allocator@VUpgradeType@BWAPI@@@1@@Z 1008c0a0 f i BWAPI:UnitType.obj
 0001:0008b0a0       ??0?$_Hash@V?$_Uset_traits@VTechType@BWAPI@@V?$_Uhash_compare@VTechType@BWAPI@@U?$hash@H@std@@U?$equal_to@VTechType@BWAPI@@@4@@std@@V?$allocator@VTechType@BWAPI@@@4@$0A@@std@@@std@@QAE@ABV?$_Uhash_compare@VTechType@BWAPI@@U?$hash@H@std@@U?$equal_to@VTechType@BWAPI@@@4@@1@ABV?$allocator@VTechType@BWAPI@@@1@@Z 1008c0a0 f i BWAPI:UnitType.obj
 0001:0008b0a0       ??0?$_Hash@V?$_Uset_traits@VWeaponType@BWAPI@@V?$_Uhash_compare@VWeaponType@BWAPI@@U?$hash@H@std@@U?$equal_to@VWeaponType@BWAPI@@@4@@std@@V?$allocator@VWeaponType@BWAPI@@@4@$0A@@std@@@std@@QAE@ABV?$_Uhash_compare@VWeaponType@BWAPI@@U?$hash@H@std@@U?$equal_to@VWeaponType@BWAPI@@@4@@1@ABV?$allocator@VWeaponType@BWAPI@@@1@@Z 1008c0a0 f i BWAPI:WeaponType.obj
 0001:0008b150       ?_Destroy@?$vector@V?$map@VUnitType@BWAPI@@HU?$less@VUnitType@BWAPI@@@std@@V?$allocator@U?$pair@$$CBVUnitType@BWAPI@@H@std@@@4@@std@@V?$allocator@V?$map@VUnitType@BWAPI@@HU?$less@VUnitType@BWAPI@@@std@@V?$allocator@U?$pair@$$CBVUnitType@BWAPI@@H@std@@@4@@std@@@2@@std@@IAEXPAV?$map@VUnitType@BWAPI@@HU?$less@VUnitType@BWAPI@@@std@@V?$allocator@U?$pair@$$CBVUnitType@BWAPI@@H@std@@@4@@2@0@Z 1008c150 f i BWAPI:UnitType.obj
 0001:0008b190       ?_Grow_to@?$vector@V?$map@VUnitType@BWAPI@@HU?$less@VUnitType@BWAPI@@@std@@V?$allocator@U?$pair@$$CBVUnitType@BWAPI@@H@std@@@4@@std@@V?$allocator@V?$map@VUnitType@BWAPI@@HU?$less@VUnitType@BWAPI@@@std@@V?$allocator@U?$pair@$$CBVUnitType@BWAPI@@H@std@@@4@@std@@@2@@std@@IBEII@Z 1008c190 f i BWAPI:UnitType.obj
 0001:0008b1d0       ?_Reallocate@?$vector@V?$map@VUnitType@BWAPI@@HU?$less@VUnitType@BWAPI@@@std@@V?$allocator@U?$pair@$$CBVUnitType@BWAPI@@H@std@@@4@@std@@V?$allocator@V?$map@VUnitType@BWAPI@@HU?$less@VUnitType@BWAPI@@@std@@V?$allocator@U?$pair@$$CBVUnitType@BWAPI@@H@std@@@4@@std@@@2@@std@@IAEXI@Z 1008c1d0 f i BWAPI:UnitType.obj
 0001:0008b2c0       ?_Insert_n@?$vector@V?$_List_unchecked_const_iterator@V?$_List_val@U?$_List_simple_types@VDamageType@BWAPI@@@std@@@std@@U_Iterator_base0@2@@std@@U?$_Wrap_alloc@V?$allocator@V?$_List_unchecked_const_iterator@V?$_List_val@U?$_List_simple_types@VDamageType@BWAPI@@@std@@@std@@U_Iterator_base0@2@@std@@@std@@@2@@std@@IAE?AV?$_Vector_iterator@V?$_Vector_val@U?$_Simple_types@V?$_List_unchecked_const_iterator@V?$_List_val@U?$_List_simple_types@VDamageType@BWAPI@@@std@@@std@@U_Iterator_base0@2@@std@@@std@@@std@@@2@V?$_Vector_const_iterator@V?$_Vector_val@U?$_Simple_types@V?$_List_unchecked_const_iterator@V?$_List_val@U?$_List_simple_types@VDamageType@BWAPI@@@std@@@std@@U_Iterator_base0@2@@std@@@std@@@std@@@2@IABV?$_List_unchecked_const_iterator@V?$_List_val@U?$_List_simple_types@VDamageType@BWAPI@@@std@@@std@@U_Iterator_base0@2@@2@@Z 1008c2c0 f i BWAPI:DamageType.obj
 0001:0008b2c0       ?_Insert_n@?$vector@V?$_List_unchecked_const_iterator@V?$_List_val@U?$_List_simple_types@VUpgradeType@BWAPI@@@std@@@std@@U_Iterator_base0@2@@std@@U?$_Wrap_alloc@V?$allocator@V?$_List_unchecked_const_iterator@V?$_List_val@U?$_List_simple_types@VUpgradeType@BWAPI@@@std@@@std@@U_Iterator_base0@2@@std@@@std@@@2@@std@@IAE?AV?$_Vector_iterator@V?$_Vector_val@U?$_Simple_types@V?$_List_unchecked_const_iterator@V?$_List_val@U?$_List_simple_types@VUpgradeType@BWAPI@@@std@@@std@@U_Iterator_base0@2@@std@@@std@@@std@@@2@V?$_Vector_const_iterator@V?$_Vector_val@U?$_Simple_types@V?$_List_unchecked_const_iterator@V?$_List_val@U?$_List_simple_types@VUpgradeType@BWAPI@@@std@@@std@@U_Iterator_base0@2@@std@@@std@@@std@@@2@IABV?$_List_unchecked_const_iterator@V?$_List_val@U?$_List_simple_types@VUpgradeType@BWAPI@@@std@@@std@@U_Iterator_base0@2@@2@@Z 1008c2c0 f i BWAPI:UnitType.obj
 0001:0008b2c0       ?_Insert_n@?$vector@V?$_List_unchecked_const_iterator@V?$_List_val@U?$_List_simple_types@VTechType@BWAPI@@@std@@@std@@U_Iterator_base0@2@@std@@U?$_Wrap_alloc@V?$allocator@V?$_List_unchecked_const_iterator@V?$_List_val@U?$_List_simple_types@VTechType@BWAPI@@@std@@@std@@U_Iterator_base0@2@@std@@@std@@@2@@std@@IAE?AV?$_Vector_iterator@V?$_Vector_val@U?$_Simple_types@V?$_List_unchecked_const_iterator@V?$_List_val@U?$_List_simple_types@VTechType@BWAPI@@@std@@@std@@U_Iterator_base0@2@@std@@@std@@@std@@@2@V?$_Vector_const_iterator@V?$_Vector_val@U?$_Simple_types@V?$_List_unchecked_const_iterator@V?$_List_val@U?$_List_simple_types@VTechType@BWAPI@@@std@@@std@@U_Iterator_base0@2@@std@@@std@@@std@@@2@IABV?$_List_unchecked_const_iterator@V?$_List_val@U?$_List_simple_types@VTechType@BWAPI@@@std@@@std@@U_Iterator_base0@2@@2@@Z 1008c2c0 f i BWAPI:UnitType.obj
 0001:0008b2c0       ?_Insert_n@?$vector@V?$_List_unchecked_const_iterator@V?$_List_val@U?$_List_simple_types@VWeaponType@BWAPI@@@std@@@std@@U_Iterator_base0@2@@std@@U?$_Wrap_alloc@V?$allocator@V?$_List_unchecked_const_iterator@V?$_List_val@U?$_List_simple_types@VWeaponType@BWAPI@@@std@@@std@@U_Iterator_base0@2@@std@@@std@@@2@@std@@IAE?AV?$_Vector_iterator@V?$_Vector_val@U?$_Simple_types@V?$_List_unchecked_const_iterator@V?$_List_val@U?$_List_simple_types@VWeaponType@BWAPI@@@std@@@std@@U_Iterator_base0@2@@std@@@std@@@std@@@2@V?$_Vector_const_iterator@V?$_Vector_val@U?$_Simple_types@V?$_List_unchecked_const_iterator@V?$_List_val@U?$_List_simple_types@VWeaponType@BWAPI@@@std@@@std@@U_Iterator_base0@2@@std@@@std@@@std@@@2@IABV?$_List_unchecked_const_iterator@V?$_List_val@U?$_List_simple_types@VWeaponType@BWAPI@@@std@@@std@@U_Iterator_base0@2@@2@@Z 1008c2c0 f i BWAPI:WeaponType.obj
 0001:0008b2c0       ?_Insert_n@?$vector@V?$_List_unchecked_const_iterator@V?$_List_val@U?$_List_simple_types@VUnitType@BWAPI@@@std@@@std@@U_Iterator_base0@2@@std@@U?$_Wrap_alloc@V?$allocator@V?$_List_unchecked_const_iterator@V?$_List_val@U?$_List_simple_types@VUnitType@BWAPI@@@std@@@std@@U_Iterator_base0@2@@std@@@std@@@2@@std@@IAE?AV?$_Vector_iterator@V?$_Vector_val@U?$_Simple_types@V?$_List_unchecked_const_iterator@V?$_List_val@U?$_List_simple_types@VUnitType@BWAPI@@@std@@@std@@U_Iterator_base0@2@@std@@@std@@@std@@@2@V?$_Vector_const_iterator@V?$_Vector_val@U?$_Simple_types@V?$_List_unchecked_const_iterator@V?$_List_val@U?$_List_simple_types@VUnitType@BWAPI@@@std@@@std@@U_Iterator_base0@2@@std@@@std@@@std@@@2@IABV?$_List_unchecked_const_iterator@V?$_List_val@U?$_List_simple_types@VUnitType@BWAPI@@@std@@@std@@U_Iterator_base0@2@@2@@Z 1008c2c0 f i BWAPI:UnitType.obj
 0001:0008b2c0       ?_Insert_n@?$vector@V?$_List_unchecked_const_iterator@V?$_List_val@U?$_List_simple_types@VOrder@BWAPI@@@std@@@std@@U_Iterator_base0@2@@std@@U?$_Wrap_alloc@V?$allocator@V?$_List_unchecked_const_iterator@V?$_List_val@U?$_List_simple_types@VOrder@BWAPI@@@std@@@std@@U_Iterator_base0@2@@std@@@std@@@2@@std@@IAE?AV?$_Vector_iterator@V?$_Vector_val@U?$_Simple_types@V?$_List_unchecked_const_iterator@V?$_List_val@U?$_List_simple_types@VOrder@BWAPI@@@std@@@std@@U_Iterator_base0@2@@std@@@std@@@std@@@2@V?$_Vector_const_iterator@V?$_Vector_val@U?$_Simple_types@V?$_List_unchecked_const_iterator@V?$_List_val@U?$_List_simple_types@VOrder@BWAPI@@@std@@@std@@U_Iterator_base0@2@@std@@@std@@@std@@@2@IABV?$_List_unchecked_const_iterator@V?$_List_val@U?$_List_simple_types@VOrder@BWAPI@@@std@@@std@@U_Iterator_base0@2@@2@@Z 1008c2c0 f i BWAPI:Order.obj
 0001:0008b2c0       ?_Insert_n@?$vector@V?$_List_unchecked_const_iterator@V?$_List_val@U?$_List_simple_types@VUnitCommandType@BWAPI@@@std@@@std@@U_Iterator_base0@2@@std@@U?$_Wrap_alloc@V?$allocator@V?$_List_unchecked_const_iterator@V?$_List_val@U?$_List_simple_types@VUnitCommandType@BWAPI@@@std@@@std@@U_Iterator_base0@2@@std@@@std@@@2@@std@@IAE?AV?$_Vector_iterator@V?$_Vector_val@U?$_Simple_types@V?$_List_unchecked_const_iterator@V?$_List_val@U?$_List_simple_types@VUnitCommandType@BWAPI@@@std@@@std@@U_Iterator_base0@2@@std@@@std@@@std@@@2@V?$_Vector_const_iterator@V?$_Vector_val@U?$_Simple_types@V?$_List_unchecked_const_iterator@V?$_List_val@U?$_List_simple_types@VUnitCommandType@BWAPI@@@std@@@std@@U_Iterator_base0@2@@std@@@std@@@std@@@2@IABV?$_List_unchecked_const_iterator@V?$_List_val@U?$_List_simple_types@VUnitCommandType@BWAPI@@@std@@@std@@U_Iterator_base0@2@@2@@Z 1008c2c0 f i BWAPI:UnitCommandType.obj
 0001:0008b2c0       ?_Insert_n@?$vector@V?$_List_unchecked_const_iterator@V?$_List_val@U?$_List_simple_types@VExplosionType@BWAPI@@@std@@@std@@U_Iterator_base0@2@@std@@U?$_Wrap_alloc@V?$allocator@V?$_List_unchecked_const_iterator@V?$_List_val@U?$_List_simple_types@VExplosionType@BWAPI@@@std@@@std@@U_Iterator_base0@2@@std@@@std@@@2@@std@@IAE?AV?$_Vector_iterator@V?$_Vector_val@U?$_Simple_types@V?$_List_unchecked_const_iterator@V?$_List_val@U?$_List_simple_types@VExplosionType@BWAPI@@@std@@@std@@U_Iterator_base0@2@@std@@@std@@@std@@@2@V?$_Vector_const_iterator@V?$_Vector_val@U?$_Simple_types@V?$_List_unchecked_const_iterator@V?$_List_val@U?$_List_simple_types@VExplosionType@BWAPI@@@std@@@std@@U_Iterator_base0@2@@std@@@std@@@std@@@2@IABV?$_List_unchecked_const_iterator@V?$_List_val@U?$_List_simple_types@VExplosionType@BWAPI@@@std@@@std@@U_Iterator_base0@2@@2@@Z 1008c2c0 f i BWAPI:ExplosionType.obj
 0001:0008b2c0       ?_Insert_n@?$vector@V?$_List_unchecked_const_iterator@V?$_List_val@U?$_List_simple_types@VError@BWAPI@@@std@@@std@@U_Iterator_base0@2@@std@@U?$_Wrap_alloc@V?$allocator@V?$_List_unchecked_const_iterator@V?$_List_val@U?$_List_simple_types@VError@BWAPI@@@std@@@std@@U_Iterator_base0@2@@std@@@std@@@2@@std@@IAE?AV?$_Vector_iterator@V?$_Vector_val@U?$_Simple_types@V?$_List_unchecked_const_iterator@V?$_List_val@U?$_List_simple_types@VError@BWAPI@@@std@@@std@@U_Iterator_base0@2@@std@@@std@@@std@@@2@V?$_Vector_const_iterator@V?$_Vector_val@U?$_Simple_types@V?$_List_unchecked_const_iterator@V?$_List_val@U?$_List_simple_types@VError@BWAPI@@@std@@@std@@U_Iterator_base0@2@@std@@@std@@@std@@@2@IABV?$_List_unchecked_const_iterator@V?$_List_val@U?$_List_simple_types@VError@BWAPI@@@std@@@std@@U_Iterator_base0@2@@2@@Z 1008c2c0 f i BWAPI:Error.obj
 0001:0008b2c0       ?_Insert_n@?$vector@V?$_List_unchecked_const_iterator@V?$_List_val@U?$_List_simple_types@VRace@BWAPI@@@std@@@std@@U_Iterator_base0@2@@std@@U?$_Wrap_alloc@V?$allocator@V?$_List_unchecked_const_iterator@V?$_List_val@U?$_List_simple_types@VRace@BWAPI@@@std@@@std@@U_Iterator_base0@2@@std@@@std@@@2@@std@@IAE?AV?$_Vector_iterator@V?$_Vector_val@U?$_Simple_types@V?$_List_unchecked_const_iterator@V?$_List_val@U?$_List_simple_types@VRace@BWAPI@@@std@@@std@@U_Iterator_base0@2@@std@@@std@@@std@@@2@V?$_Vector_const_iterator@V?$_Vector_val@U?$_Simple_types@V?$_List_unchecked_const_iterator@V?$_List_val@U?$_List_simple_types@VRace@BWAPI@@@std@@@std@@U_Iterator_base0@2@@std@@@std@@@std@@@2@IABV?$_List_unchecked_const_iterator@V?$_List_val@U?$_List_simple_types@VRace@BWAPI@@@std@@@std@@U_Iterator_base0@2@@2@@Z 1008c2c0 f i BWAPI:Race.obj
 0001:0008b2c0       ?_Insert_n@?$vector@V?$_List_unchecked_const_iterator@V?$_List_val@U?$_List_simple_types@VUnitSizeType@BWAPI@@@std@@@std@@U_Iterator_base0@2@@std@@U?$_Wrap_alloc@V?$allocator@V?$_List_unchecked_const_iterator@V?$_List_val@U?$_List_simple_types@VUnitSizeType@BWAPI@@@std@@@std@@U_Iterator_base0@2@@std@@@std@@@2@@std@@IAE?AV?$_Vector_iterator@V?$_Vector_val@U?$_Simple_types@V?$_List_unchecked_const_iterator@V?$_List_val@U?$_List_simple_types@VUnitSizeType@BWAPI@@@std@@@std@@U_Iterator_base0@2@@std@@@std@@@std@@@2@V?$_Vector_const_iterator@V?$_Vector_val@U?$_Simple_types@V?$_List_unchecked_const_iterator@V?$_List_val@U?$_List_simple_types@VUnitSizeType@BWAPI@@@std@@@std@@U_Iterator_base0@2@@std@@@std@@@std@@@2@IABV?$_List_unchecked_const_iterator@V?$_List_val@U?$_List_simple_types@VUnitSizeType@BWAPI@@@std@@@std@@U_Iterator_base0@2@@2@@Z 1008c2c0 f i BWAPI:UnitSizeType.obj
 0001:0008b4b0       ?_Buynode0@?$_List_alloc@$0A@U?$_List_base_types@VUnitType@BWAPI@@V?$allocator@VUnitType@BWAPI@@@std@@@std@@@std@@QAEPAU?$_List_node@VUnitType@BWAPI@@PAX@2@PAU32@0@Z 1008c4b0 f i BWAPI:UnitType.obj
 0001:0008b4b0       ?_Buynode0@?$_List_alloc@$0A@U?$_List_base_types@VError@BWAPI@@V?$allocator@VError@BWAPI@@@std@@@std@@@std@@QAEPAU?$_List_node@VError@BWAPI@@PAX@2@PAU32@0@Z 1008c4b0 f i BWAPI:Error.obj
 0001:0008b4b0       ?_Buynode0@?$_List_alloc@$0A@U?$_List_base_types@VTechType@BWAPI@@V?$allocator@VTechType@BWAPI@@@std@@@std@@@std@@QAEPAU?$_List_node@VTechType@BWAPI@@PAX@2@PAU32@0@Z 1008c4b0 f i BWAPI:UnitType.obj
 0001:0008b4b0       ?_Buynode0@?$_List_alloc@$0A@U?$_List_base_types@VOrder@BWAPI@@V?$allocator@VOrder@BWAPI@@@std@@@std@@@std@@QAEPAU?$_List_node@VOrder@BWAPI@@PAX@2@PAU32@0@Z 1008c4b0 f i BWAPI:Order.obj
 0001:0008b4b0       ?_Buynode0@?$_List_alloc@$0A@U?$_List_base_types@VUnitSizeType@BWAPI@@V?$allocator@VUnitSizeType@BWAPI@@@std@@@std@@@std@@QAEPAU?$_List_node@VUnitSizeType@BWAPI@@PAX@2@PAU32@0@Z 1008c4b0 f i BWAPI:UnitSizeType.obj
 0001:0008b4b0       ?_Buynode0@?$_List_alloc@$0A@U?$_List_base_types@VWeaponType@BWAPI@@V?$allocator@VWeaponType@BWAPI@@@std@@@std@@@std@@QAEPAU?$_List_node@VWeaponType@BWAPI@@PAX@2@PAU32@0@Z 1008c4b0 f i BWAPI:WeaponType.obj
 0001:0008b4b0       ?_Buynode0@?$_List_alloc@$0A@U?$_List_base_types@VExplosionType@BWAPI@@V?$allocator@VExplosionType@BWAPI@@@std@@@std@@@std@@QAEPAU?$_List_node@VExplosionType@BWAPI@@PAX@2@PAU32@0@Z 1008c4b0 f i BWAPI:ExplosionType.obj
 0001:0008b4b0       ?_Buynode0@?$_List_alloc@$0A@U?$_List_base_types@VDamageType@BWAPI@@V?$allocator@VDamageType@BWAPI@@@std@@@std@@@std@@QAEPAU?$_List_node@VDamageType@BWAPI@@PAX@2@PAU32@0@Z 1008c4b0 f i BWAPI:DamageType.obj
 0001:0008b4b0       ?_Buynode0@?$_List_alloc@$0A@U?$_List_base_types@VUpgradeType@BWAPI@@V?$allocator@VUpgradeType@BWAPI@@@std@@@std@@@std@@QAEPAU?$_List_node@VUpgradeType@BWAPI@@PAX@2@PAU32@0@Z 1008c4b0 f i BWAPI:UnitType.obj
 0001:0008b4b0       ?_Buynode0@?$_List_alloc@$0A@U?$_List_base_types@VUnitCommandType@BWAPI@@V?$allocator@VUnitCommandType@BWAPI@@@std@@@std@@@std@@QAEPAU?$_List_node@VUnitCommandType@BWAPI@@PAX@2@PAU32@0@Z 1008c4b0 f i BWAPI:UnitCommandType.obj
 0001:0008b4b0       ?_Buynode0@?$_List_alloc@$0A@U?$_List_base_types@VRace@BWAPI@@V?$allocator@VRace@BWAPI@@@std@@@std@@@std@@QAEPAU?$_List_node@VRace@BWAPI@@PAX@2@PAU32@0@Z 1008c4b0 f i BWAPI:Race.obj
 0001:0008b4f0       ?_Grow_to@?$vector@V?$_List_unchecked_const_iterator@V?$_List_val@U?$_List_simple_types@VRace@BWAPI@@@std@@@std@@U_Iterator_base0@2@@std@@U?$_Wrap_alloc@V?$allocator@V?$_List_unchecked_const_iterator@V?$_List_val@U?$_List_simple_types@VRace@BWAPI@@@std@@@std@@U_Iterator_base0@2@@std@@@std@@@2@@std@@IBEII@Z 1008c4f0 f i BWAPI:Race.obj
 0001:0008b4f0       ?_Grow_to@?$vector@V?$_List_unchecked_const_iterator@V?$_List_val@U?$_List_simple_types@VUnitType@BWAPI@@@std@@@std@@U_Iterator_base0@2@@std@@U?$_Wrap_alloc@V?$allocator@V?$_List_unchecked_const_iterator@V?$_List_val@U?$_List_simple_types@VUnitType@BWAPI@@@std@@@std@@U_Iterator_base0@2@@std@@@std@@@2@@std@@IBEII@Z 1008c4f0 f i BWAPI:UnitType.obj
 0001:0008b4f0       ?_Grow_to@?$vector@V?$_List_unchecked_const_iterator@V?$_List_val@U?$_List_simple_types@VUnitSizeType@BWAPI@@@std@@@std@@U_Iterator_base0@2@@std@@U?$_Wrap_alloc@V?$allocator@V?$_List_unchecked_const_iterator@V?$_List_val@U?$_List_simple_types@VUnitSizeType@BWAPI@@@std@@@std@@U_Iterator_base0@2@@std@@@std@@@2@@std@@IBEII@Z 1008c4f0 f i BWAPI:UnitSizeType.obj
 0001:0008b4f0       ?_Grow_to@?$vector@V?$_List_unchecked_const_iterator@V?$_List_val@U?$_List_simple_types@VDamageType@BWAPI@@@std@@@std@@U_Iterator_base0@2@@std@@U?$_Wrap_alloc@V?$allocator@V?$_List_unchecked_const_iterator@V?$_List_val@U?$_List_simple_types@VDamageType@BWAPI@@@std@@@std@@U_Iterator_base0@2@@std@@@std@@@2@@std@@IBEII@Z 1008c4f0 f i BWAPI:DamageType.obj
 0001:0008b4f0       ?_Grow_to@?$vector@V?$_List_unchecked_const_iterator@V?$_List_val@U?$_List_simple_types@VTechType@BWAPI@@@std@@@std@@U_Iterator_base0@2@@std@@U?$_Wrap_alloc@V?$allocator@V?$_List_unchecked_const_iterator@V?$_List_val@U?$_List_simple_types@VTechType@BWAPI@@@std@@@std@@U_Iterator_base0@2@@std@@@std@@@2@@std@@IBEII@Z 1008c4f0 f i BWAPI:UnitType.obj
 0001:0008b4f0       ?_Grow_to@?$vector@V?$_List_unchecked_const_iterator@V?$_List_val@U?$_List_simple_types@VWeaponType@BWAPI@@@std@@@std@@U_Iterator_base0@2@@std@@U?$_Wrap_alloc@V?$allocator@V?$_List_unchecked_const_iterator@V?$_List_val@U?$_List_simple_types@VWeaponType@BWAPI@@@std@@@std@@U_Iterator_base0@2@@std@@@std@@@2@@std@@IBEII@Z 1008c4f0 f i BWAPI:WeaponType.obj
 0001:0008b4f0       ?_Grow_to@?$vector@V?$_List_unchecked_const_iterator@V?$_List_val@U?$_List_simple_types@VUpgradeType@BWAPI@@@std@@@std@@U_Iterator_base0@2@@std@@U?$_Wrap_alloc@V?$allocator@V?$_List_unchecked_const_iterator@V?$_List_val@U?$_List_simple_types@VUpgradeType@BWAPI@@@std@@@std@@U_Iterator_base0@2@@std@@@std@@@2@@std@@IBEII@Z 1008c4f0 f i BWAPI:UnitType.obj
 0001:0008b4f0       ?_Grow_to@?$vector@V?$_List_unchecked_const_iterator@V?$_List_val@U?$_List_simple_types@VError@BWAPI@@@std@@@std@@U_Iterator_base0@2@@std@@U?$_Wrap_alloc@V?$allocator@V?$_List_unchecked_const_iterator@V?$_List_val@U?$_List_simple_types@VError@BWAPI@@@std@@@std@@U_Iterator_base0@2@@std@@@std@@@2@@std@@IBEII@Z 1008c4f0 f i BWAPI:Error.obj
 0001:0008b4f0       ?_Grow_to@?$vector@V?$_List_unchecked_const_iterator@V?$_List_val@U?$_List_simple_types@VUnitCommandType@BWAPI@@@std@@@std@@U_Iterator_base0@2@@std@@U?$_Wrap_alloc@V?$allocator@V?$_List_unchecked_const_iterator@V?$_List_val@U?$_List_simple_types@VUnitCommandType@BWAPI@@@std@@@std@@U_Iterator_base0@2@@std@@@std@@@2@@std@@IBEII@Z 1008c4f0 f i BWAPI:UnitCommandType.obj
 0001:0008b4f0       ?_Grow_to@?$vector@V?$_List_unchecked_const_iterator@V?$_List_val@U?$_List_simple_types@VExplosionType@BWAPI@@@std@@@std@@U_Iterator_base0@2@@std@@U?$_Wrap_alloc@V?$allocator@V?$_List_unchecked_const_iterator@V?$_List_val@U?$_List_simple_types@VExplosionType@BWAPI@@@std@@@std@@U_Iterator_base0@2@@std@@@std@@@2@@std@@IBEII@Z 1008c4f0 f i BWAPI:ExplosionType.obj
 0001:0008b4f0       ?_Grow_to@?$vector@V?$_List_unchecked_const_iterator@V?$_List_val@U?$_List_simple_types@VOrder@BWAPI@@@std@@@std@@U_Iterator_base0@2@@std@@U?$_Wrap_alloc@V?$allocator@V?$_List_unchecked_const_iterator@V?$_List_val@U?$_List_simple_types@VOrder@BWAPI@@@std@@@std@@U_Iterator_base0@2@@std@@@std@@@2@@std@@IBEII@Z 1008c4f0 f i BWAPI:Order.obj
 0001:0008b530       ??$end@$$CBH$02@std@@YAPBHAAY02$$CBH@Z 1008c530 f i BWAPI:UnitType.obj
 0001:0008b540       ??$end@$$CBH$03@std@@YAPBHAAY03$$CBH@Z 1008c540 f i BWAPI:UnitType.obj
 0001:0008b550       ??$end@$$CBH$04@std@@YAPBHAAY04$$CBH@Z 1008c550 f i BWAPI:UnitType.obj
 0001:0008b560       ??$?0PBH@?$SetContainer@VUpgradeType@BWAPI@@U?$hash@H@std@@@BWAPI@@QAE@PBH0@Z 1008c560 f i BWAPI:UnitType.obj
 0001:0008b5b0       ??$?0PBH@?$SetContainer@VTechType@BWAPI@@U?$hash@H@std@@@BWAPI@@QAE@PBH0@Z 1008c5b0 f i BWAPI:UnitType.obj
 0001:0008b600       ??$fill@PAV?$_List_unchecked_const_iterator@V?$_List_val@U?$_List_simple_types@VError@BWAPI@@@std@@@std@@U_Iterator_base0@2@@std@@V12@@std@@YAXPAV?$_List_unchecked_const_iterator@V?$_List_val@U?$_List_simple_types@VError@BWAPI@@@std@@@std@@U_Iterator_base0@2@@0@0ABV10@@Z 1008c600 f i BWAPI:Error.obj
 0001:0008b600       ??$fill@PAV?$_List_unchecked_const_iterator@V?$_List_val@U?$_List_simple_types@VRace@BWAPI@@@std@@@std@@U_Iterator_base0@2@@std@@V12@@std@@YAXPAV?$_List_unchecked_const_iterator@V?$_List_val@U?$_List_simple_types@VRace@BWAPI@@@std@@@std@@U_Iterator_base0@2@@0@0ABV10@@Z 1008c600 f i BWAPI:Race.obj
 0001:0008b600       ??$fill@PAV?$_List_unchecked_const_iterator@V?$_List_val@U?$_List_simple_types@VWeaponType@BWAPI@@@std@@@std@@U_Iterator_base0@2@@std@@V12@@std@@YAXPAV?$_List_unchecked_const_iterator@V?$_List_val@U?$_List_simple_types@VWeaponType@BWAPI@@@std@@@std@@U_Iterator_base0@2@@0@0ABV10@@Z 1008c600 f i BWAPI:WeaponType.obj
 0001:0008b600       ??$fill@PAV?$_List_unchecked_const_iterator@V?$_List_val@U?$_List_simple_types@VUnitSizeType@BWAPI@@@std@@@std@@U_Iterator_base0@2@@std@@V12@@std@@YAXPAV?$_List_unchecked_const_iterator@V?$_List_val@U?$_List_simple_types@VUnitSizeType@BWAPI@@@std@@@std@@U_Iterator_base0@2@@0@0ABV10@@Z 1008c600 f i BWAPI:UnitSizeType.obj
 0001:0008b600       ??$fill@PAV?$_List_unchecked_const_iterator@V?$_List_val@U?$_List_simple_types@VUnitType@BWAPI@@@std@@@std@@U_Iterator_base0@2@@std@@V12@@std@@YAXPAV?$_List_unchecked_const_iterator@V?$_List_val@U?$_List_simple_types@VUnitType@BWAPI@@@std@@@std@@U_Iterator_base0@2@@0@0ABV10@@Z 1008c600 f i BWAPI:UnitType.obj
 0001:0008b600       ??$fill@PAV?$_List_unchecked_const_iterator@V?$_List_val@U?$_List_simple_types@VDamageType@BWAPI@@@std@@@std@@U_Iterator_base0@2@@std@@V12@@std@@YAXPAV?$_List_unchecked_const_iterator@V?$_List_val@U?$_List_simple_types@VDamageType@BWAPI@@@std@@@std@@U_Iterator_base0@2@@0@0ABV10@@Z 1008c600 f i BWAPI:DamageType.obj
 0001:0008b600       ??$fill@PAV?$_List_unchecked_const_iterator@V?$_List_val@U?$_List_simple_types@VUpgradeType@BWAPI@@@std@@@std@@U_Iterator_base0@2@@std@@V12@@std@@YAXPAV?$_List_unchecked_const_iterator@V?$_List_val@U?$_List_simple_types@VUpgradeType@BWAPI@@@std@@@std@@U_Iterator_base0@2@@0@0ABV10@@Z 1008c600 f i BWAPI:UnitType.obj
 0001:0008b600       ??$fill@PAV?$_List_unchecked_const_iterator@V?$_List_val@U?$_List_simple_types@VTechType@BWAPI@@@std@@@std@@U_Iterator_base0@2@@std@@V12@@std@@YAXPAV?$_List_unchecked_const_iterator@V?$_List_val@U?$_List_simple_types@VTechType@BWAPI@@@std@@@std@@U_Iterator_base0@2@@0@0ABV10@@Z 1008c600 f i BWAPI:UnitType.obj
 0001:0008b600       ??$fill@PAV?$_List_unchecked_const_iterator@V?$_List_val@U?$_List_simple_types@VOrder@BWAPI@@@std@@@std@@U_Iterator_base0@2@@std@@V12@@std@@YAXPAV?$_List_unchecked_const_iterator@V?$_List_val@U?$_List_simple_types@VOrder@BWAPI@@@std@@@std@@U_Iterator_base0@2@@0@0ABV10@@Z 1008c600 f i BWAPI:Order.obj
 0001:0008b600       ??$fill@PAV?$_List_unchecked_const_iterator@V?$_List_val@U?$_List_simple_types@VUnitCommandType@BWAPI@@@std@@@std@@U_Iterator_base0@2@@std@@V12@@std@@YAXPAV?$_List_unchecked_const_iterator@V?$_List_val@U?$_List_simple_types@VUnitCommandType@BWAPI@@@std@@@std@@U_Iterator_base0@2@@0@0ABV10@@Z 1008c600 f i BWAPI:UnitCommandType.obj
 0001:0008b600       ??$fill@PAV?$_List_unchecked_const_iterator@V?$_List_val@U?$_List_simple_types@VExplosionType@BWAPI@@@std@@@std@@U_Iterator_base0@2@@std@@V12@@std@@YAXPAV?$_List_unchecked_const_iterator@V?$_List_val@U?$_List_simple_types@VExplosionType@BWAPI@@@std@@@std@@U_Iterator_base0@2@@0@0ABV10@@Z 1008c600 f i BWAPI:ExplosionType.obj
 0001:0008b630       ??$_Buynode@AAU?$pair@VUnitType@BWAPI@@H@std@@@?$_Tree_buy@U?$pair@$$CBVUnitType@BWAPI@@H@std@@V?$allocator@U?$pair@$$CBVUnitType@BWAPI@@H@std@@@2@@std@@QAEPAU?$_Tree_node@U?$pair@$$CBVUnitType@BWAPI@@H@std@@PAX@1@AAU?$pair@VUnitType@BWAPI@@H@1@@Z 1008c630 f i BWAPI:UnitType.obj
 0001:0008b660       ??$_Uninit_def_fill_n@PAV?$map@VUnitType@BWAPI@@HU?$less@VUnitType@BWAPI@@@std@@V?$allocator@U?$pair@$$CBVUnitType@BWAPI@@H@std@@@4@@std@@IV?$allocator@V?$map@VUnitType@BWAPI@@HU?$less@VUnitType@BWAPI@@@std@@V?$allocator@U?$pair@$$CBVUnitType@BWAPI@@H@std@@@4@@std@@@2@V12@@std@@YAXPAV?$map@VUnitType@BWAPI@@HU?$less@VUnitType@BWAPI@@@std@@V?$allocator@U?$pair@$$CBVUnitType@BWAPI@@H@std@@@4@@0@IAAU?$_Wrap_alloc@V?$allocator@V?$map@VUnitType@BWAPI@@HU?$less@VUnitType@BWAPI@@@std@@V?$allocator@U?$pair@$$CBVUnitType@BWAPI@@H@std@@@4@@std@@@std@@@0@0U_Nonscalar_ptr_iterator_tag@0@@Z 1008c660 f i BWAPI:UnitType.obj
 0001:0008b700       ??$insert@PBVWeaponType@BWAPI@@@?$_Hash@V?$_Uset_traits@VWeaponType@BWAPI@@V?$_Uhash_compare@VWeaponType@BWAPI@@U?$hash@H@std@@U?$equal_to@VWeaponType@BWAPI@@@4@@std@@V?$allocator@VWeaponType@BWAPI@@@4@$0A@@std@@@std@@QAEXPBVWeaponType@BWAPI@@0@Z 1008c700 f i BWAPI:WeaponType.obj
 0001:0008b700       ??$insert@PBVUnitType@BWAPI@@@?$_Hash@V?$_Uset_traits@VUnitType@BWAPI@@V?$_Uhash_compare@VUnitType@BWAPI@@U?$hash@H@std@@U?$equal_to@VUnitType@BWAPI@@@4@@std@@V?$allocator@VUnitType@BWAPI@@@4@$0A@@std@@@std@@QAEXPBVUnitType@BWAPI@@0@Z 1008c700 f i BWAPI:UnitType.obj
 0001:0008b700       ??$insert@PBVTechType@BWAPI@@@?$_Hash@V?$_Uset_traits@VTechType@BWAPI@@V?$_Uhash_compare@VTechType@BWAPI@@U?$hash@H@std@@U?$equal_to@VTechType@BWAPI@@@4@@std@@V?$allocator@VTechType@BWAPI@@@4@$0A@@std@@@std@@QAEXPBVTechType@BWAPI@@0@Z 1008c700 f i BWAPI:UnitType.obj
 0001:0008b700       ??$insert@PBVUpgradeType@BWAPI@@@?$_Hash@V?$_Uset_traits@VUpgradeType@BWAPI@@V?$_Uhash_compare@VUpgradeType@BWAPI@@U?$hash@H@std@@U?$equal_to@VUpgradeType@BWAPI@@@4@@std@@V?$allocator@VUpgradeType@BWAPI@@@4@$0A@@std@@@std@@QAEXPBVUpgradeType@BWAPI@@0@Z 1008c700 f i BWAPI:UnitType.obj
 0001:0008b780       ??$_Uninit_fill_n@PAV?$_List_unchecked_const_iterator@V?$_List_val@U?$_List_simple_types@VWeaponType@BWAPI@@@std@@@std@@U_Iterator_base0@2@@std@@IV12@U?$_Wrap_alloc@V?$allocator@V?$_List_unchecked_const_iterator@V?$_List_val@U?$_List_simple_types@VWeaponType@BWAPI@@@std@@@std@@U_Iterator_base0@2@@std@@@std@@@2@V12@@std@@YAXPAV?$_List_unchecked_const_iterator@V?$_List_val@U?$_List_simple_types@VWeaponType@BWAPI@@@std@@@std@@U_Iterator_base0@2@@0@IPBV10@AAU?$_Wrap_alloc@U?$_Wrap_alloc@V?$allocator@V?$_List_unchecked_const_iterator@V?$_List_val@U?$_List_simple_types@VWeaponType@BWAPI@@@std@@@std@@U_Iterator_base0@2@@std@@@std@@@std@@@0@0U_Nonscalar_ptr_iterator_tag@0@@Z 1008c780 f i BWAPI:WeaponType.obj
 0001:0008b780       ??$_Uninit_fill_n@PAV?$_List_unchecked_const_iterator@V?$_List_val@U?$_List_simple_types@VUnitSizeType@BWAPI@@@std@@@std@@U_Iterator_base0@2@@std@@IV12@U?$_Wrap_alloc@V?$allocator@V?$_List_unchecked_const_iterator@V?$_List_val@U?$_List_simple_types@VUnitSizeType@BWAPI@@@std@@@std@@U_Iterator_base0@2@@std@@@std@@@2@V12@@std@@YAXPAV?$_List_unchecked_const_iterator@V?$_List_val@U?$_List_simple_types@VUnitSizeType@BWAPI@@@std@@@std@@U_Iterator_base0@2@@0@IPBV10@AAU?$_Wrap_alloc@U?$_Wrap_alloc@V?$allocator@V?$_List_unchecked_const_iterator@V?$_List_val@U?$_List_simple_types@VUnitSizeType@BWAPI@@@std@@@std@@U_Iterator_base0@2@@std@@@std@@@std@@@0@0U_Nonscalar_ptr_iterator_tag@0@@Z 1008c780 f i BWAPI:UnitSizeType.obj
 0001:0008b780       ??$_Uninit_fill_n@PAV?$_List_unchecked_const_iterator@V?$_List_val@U?$_List_simple_types@VUnitCommandType@BWAPI@@@std@@@std@@U_Iterator_base0@2@@std@@IV12@U?$_Wrap_alloc@V?$allocator@V?$_List_unchecked_const_iterator@V?$_List_val@U?$_List_simple_types@VUnitCommandType@BWAPI@@@std@@@std@@U_Iterator_base0@2@@std@@@std@@@2@V12@@std@@YAXPAV?$_List_unchecked_const_iterator@V?$_List_val@U?$_List_simple_types@VUnitCommandType@BWAPI@@@std@@@std@@U_Iterator_base0@2@@0@IPBV10@AAU?$_Wrap_alloc@U?$_Wrap_alloc@V?$allocator@V?$_List_unchecked_const_iterator@V?$_List_val@U?$_List_simple_types@VUnitCommandType@BWAPI@@@std@@@std@@U_Iterator_base0@2@@std@@@std@@@std@@@0@0U_Nonscalar_ptr_iterator_tag@0@@Z 1008c780 f i BWAPI:UnitCommandType.obj
 0001:0008b780       ??$_Uninit_fill_n@PAV?$_List_unchecked_const_iterator@V?$_List_val@U?$_List_simple_types@VUnitType@BWAPI@@@std@@@std@@U_Iterator_base0@2@@std@@IV12@U?$_Wrap_alloc@V?$allocator@V?$_List_unchecked_const_iterator@V?$_List_val@U?$_List_simple_types@VUnitType@BWAPI@@@std@@@std@@U_Iterator_base0@2@@std@@@std@@@2@V12@@std@@YAXPAV?$_List_unchecked_const_iterator@V?$_List_val@U?$_List_simple_types@VUnitType@BWAPI@@@std@@@std@@U_Iterator_base0@2@@0@IPBV10@AAU?$_Wrap_alloc@U?$_Wrap_alloc@V?$allocator@V?$_List_unchecked_const_iterator@V?$_List_val@U?$_List_simple_types@VUnitType@BWAPI@@@std@@@std@@U_Iterator_base0@2@@std@@@std@@@std@@@0@0U_Nonscalar_ptr_iterator_tag@0@@Z 1008c780 f i BWAPI:UnitType.obj
 0001:0008b780       ??$_Uninit_fill_n@PAV?$_List_unchecked_const_iterator@V?$_List_val@U?$_List_simple_types@VTechType@BWAPI@@@std@@@std@@U_Iterator_base0@2@@std@@IV12@U?$_Wrap_alloc@V?$allocator@V?$_List_unchecked_const_iterator@V?$_List_val@U?$_List_simple_types@VTechType@BWAPI@@@std@@@std@@U_Iterator_base0@2@@std@@@std@@@2@V12@@std@@YAXPAV?$_List_unchecked_const_iterator@V?$_List_val@U?$_List_simple_types@VTechType@BWAPI@@@std@@@std@@U_Iterator_base0@2@@0@IPBV10@AAU?$_Wrap_alloc@U?$_Wrap_alloc@V?$allocator@V?$_List_unchecked_const_iterator@V?$_List_val@U?$_List_simple_types@VTechType@BWAPI@@@std@@@std@@U_Iterator_base0@2@@std@@@std@@@std@@@0@0U_Nonscalar_ptr_iterator_tag@0@@Z 1008c780 f i BWAPI:UnitType.obj
 0001:0008b780       ??$_Uninit_fill_n@PAV?$_List_unchecked_const_iterator@V?$_List_val@U?$_List_simple_types@VError@BWAPI@@@std@@@std@@U_Iterator_base0@2@@std@@IV12@U?$_Wrap_alloc@V?$allocator@V?$_List_unchecked_const_iterator@V?$_List_val@U?$_List_simple_types@VError@BWAPI@@@std@@@std@@U_Iterator_base0@2@@std@@@std@@@2@V12@@std@@YAXPAV?$_List_unchecked_const_iterator@V?$_List_val@U?$_List_simple_types@VError@BWAPI@@@std@@@std@@U_Iterator_base0@2@@0@IPBV10@AAU?$_Wrap_alloc@U?$_Wrap_alloc@V?$allocator@V?$_List_unchecked_const_iterator@V?$_List_val@U?$_List_simple_types@VError@BWAPI@@@std@@@std@@U_Iterator_base0@2@@std@@@std@@@std@@@0@0U_Nonscalar_ptr_iterator_tag@0@@Z 1008c780 f i BWAPI:Error.obj
 0001:0008b780       ??$_Uninit_fill_n@PAV?$_List_unchecked_const_iterator@V?$_List_val@U?$_List_simple_types@VExplosionType@BWAPI@@@std@@@std@@U_Iterator_base0@2@@std@@IV12@U?$_Wrap_alloc@V?$allocator@V?$_List_unchecked_const_iterator@V?$_List_val@U?$_List_simple_types@VExplosionType@BWAPI@@@std@@@std@@U_Iterator_base0@2@@std@@@std@@@2@V12@@std@@YAXPAV?$_List_unchecked_const_iterator@V?$_List_val@U?$_List_simple_types@VExplosionType@BWAPI@@@std@@@std@@U_Iterator_base0@2@@0@IPBV10@AAU?$_Wrap_alloc@U?$_Wrap_alloc@V?$allocator@V?$_List_unchecked_const_iterator@V?$_List_val@U?$_List_simple_types@VExplosionType@BWAPI@@@std@@@std@@U_Iterator_base0@2@@std@@@std@@@std@@@0@0U_Nonscalar_ptr_iterator_tag@0@@Z 1008c780 f i BWAPI:ExplosionType.obj
 0001:0008b780       ??$_Uninit_fill_n@PAV?$_List_unchecked_const_iterator@V?$_List_val@U?$_List_simple_types@VRace@BWAPI@@@std@@@std@@U_Iterator_base0@2@@std@@IV12@U?$_Wrap_alloc@V?$allocator@V?$_List_unchecked_const_iterator@V?$_List_val@U?$_List_simple_types@VRace@BWAPI@@@std@@@std@@U_Iterator_base0@2@@std@@@std@@@2@V12@@std@@YAXPAV?$_List_unchecked_const_iterator@V?$_List_val@U?$_List_simple_types@VRace@BWAPI@@@std@@@std@@U_Iterator_base0@2@@0@IPBV10@AAU?$_Wrap_alloc@U?$_Wrap_alloc@V?$allocator@V?$_List_unchecked_const_iterator@V?$_List_val@U?$_List_simple_types@VRace@BWAPI@@@std@@@std@@U_Iterator_base0@2@@std@@@std@@@std@@@0@0U_Nonscalar_ptr_iterator_tag@0@@Z 1008c780 f i BWAPI:Race.obj
 0001:0008b780       ??$_Uninit_fill_n@PAV?$_List_unchecked_const_iterator@V?$_List_val@U?$_List_simple_types@VDamageType@BWAPI@@@std@@@std@@U_Iterator_base0@2@@std@@IV12@U?$_Wrap_alloc@V?$allocator@V?$_List_unchecked_const_iterator@V?$_List_val@U?$_List_simple_types@VDamageType@BWAPI@@@std@@@std@@U_Iterator_base0@2@@std@@@std@@@2@V12@@std@@YAXPAV?$_List_unchecked_const_iterator@V?$_List_val@U?$_List_simple_types@VDamageType@BWAPI@@@std@@@std@@U_Iterator_base0@2@@0@IPBV10@AAU?$_Wrap_alloc@U?$_Wrap_alloc@V?$allocator@V?$_List_unchecked_const_iterator@V?$_List_val@U?$_List_simple_types@VDamageType@BWAPI@@@std@@@std@@U_Iterator_base0@2@@std@@@std@@@std@@@0@0U_Nonscalar_ptr_iterator_tag@0@@Z 1008c780 f i BWAPI:DamageType.obj
 0001:0008b780       ??$_Uninit_fill_n@PAV?$_List_unchecked_const_iterator@V?$_List_val@U?$_List_simple_types@VOrder@BWAPI@@@std@@@std@@U_Iterator_base0@2@@std@@IV12@U?$_Wrap_alloc@V?$allocator@V?$_List_unchecked_const_iterator@V?$_List_val@U?$_List_simple_types@VOrder@BWAPI@@@std@@@std@@U_Iterator_base0@2@@std@@@std@@@2@V12@@std@@YAXPAV?$_List_unchecked_const_iterator@V?$_List_val@U?$_List_simple_types@VOrder@BWAPI@@@std@@@std@@U_Iterator_base0@2@@0@IPBV10@AAU?$_Wrap_alloc@U?$_Wrap_alloc@V?$allocator@V?$_List_unchecked_const_iterator@V?$_List_val@U?$_List_simple_types@VOrder@BWAPI@@@std@@@std@@U_Iterator_base0@2@@std@@@std@@@std@@@0@0U_Nonscalar_ptr_iterator_tag@0@@Z 1008c780 f i BWAPI:Order.obj
 0001:0008b780       ??$_Uninit_fill_n@PAV?$_List_unchecked_const_iterator@V?$_List_val@U?$_List_simple_types@VUpgradeType@BWAPI@@@std@@@std@@U_Iterator_base0@2@@std@@IV12@U?$_Wrap_alloc@V?$allocator@V?$_List_unchecked_const_iterator@V?$_List_val@U?$_List_simple_types@VUpgradeType@BWAPI@@@std@@@std@@U_Iterator_base0@2@@std@@@std@@@2@V12@@std@@YAXPAV?$_List_unchecked_const_iterator@V?$_List_val@U?$_List_simple_types@VUpgradeType@BWAPI@@@std@@@std@@U_Iterator_base0@2@@0@IPBV10@AAU?$_Wrap_alloc@U?$_Wrap_alloc@V?$allocator@V?$_List_unchecked_const_iterator@V?$_List_val@U?$_List_simple_types@VUpgradeType@BWAPI@@@std@@@std@@U_Iterator_base0@2@@std@@@std@@@std@@@0@0U_Nonscalar_ptr_iterator_tag@0@@Z 1008c780 f i BWAPI:UnitType.obj
 0001:0008b7a0       ??$insert@PBH@?$_Hash@V?$_Uset_traits@VUpgradeType@BWAPI@@V?$_Uhash_compare@VUpgradeType@BWAPI@@U?$hash@H@std@@U?$equal_to@VUpgradeType@BWAPI@@@4@@std@@V?$allocator@VUpgradeType@BWAPI@@@4@$0A@@std@@@std@@QAEXPBH0@Z 1008c7a0 f i BWAPI:UnitType.obj
 0001:0008b820       ??$insert@PBH@?$_Hash@V?$_Uset_traits@VTechType@BWAPI@@V?$_Uhash_compare@VTechType@BWAPI@@U?$hash@H@std@@U?$equal_to@VTechType@BWAPI@@@4@@std@@V?$allocator@VTechType@BWAPI@@@4@$0A@@std@@@std@@QAEXPBH0@Z 1008c820 f i BWAPI:UnitType.obj
 0001:0008b8a0       ??$destroy@V?$map@VUnitType@BWAPI@@HU?$less@VUnitType@BWAPI@@@std@@V?$allocator@U?$pair@$$CBVUnitType@BWAPI@@H@std@@@4@@std@@@?$_Wrap_alloc@V?$allocator@V?$map@VUnitType@BWAPI@@HU?$less@VUnitType@BWAPI@@@std@@V?$allocator@U?$pair@$$CBVUnitType@BWAPI@@H@std@@@4@@std@@@std@@@std@@QAEXPAV?$map@VUnitType@BWAPI@@HU?$less@VUnitType@BWAPI@@@std@@V?$allocator@U?$pair@$$CBVUnitType@BWAPI@@H@std@@@4@@1@@Z 1008c8a0 f i BWAPI:UnitType.obj
 0001:0008b8d0       ??$_Insert@AAVTechType@BWAPI@@V?$_List_unchecked_const_iterator@V?$_List_val@U?$_List_simple_types@VTechType@BWAPI@@@std@@@std@@U_Iterator_base0@2@@std@@@?$_Hash@V?$_Uset_traits@VTechType@BWAPI@@V?$_Uhash_compare@VTechType@BWAPI@@U?$hash@H@std@@U?$equal_to@VTechType@BWAPI@@@4@@std@@V?$allocator@VTechType@BWAPI@@@4@$0A@@std@@@std@@IAE?AU?$pair@V?$_List_const_iterator@V?$_List_val@U?$_List_simple_types@VTechType@BWAPI@@@std@@@std@@@std@@_N@1@AAVTechType@BWAPI@@V?$_List_unchecked_const_iterator@V?$_List_val@U?$_List_simple_types@VTechType@BWAPI@@@std@@@std@@U_Iterator_base0@2@@1@@Z 1008c8d0 f i BWAPI:UnitType.obj
 0001:0008b8d0       ??$_Insert@AAVUpgradeType@BWAPI@@V?$_List_unchecked_const_iterator@V?$_List_val@U?$_List_simple_types@VUpgradeType@BWAPI@@@std@@@std@@U_Iterator_base0@2@@std@@@?$_Hash@V?$_Uset_traits@VUpgradeType@BWAPI@@V?$_Uhash_compare@VUpgradeType@BWAPI@@U?$hash@H@std@@U?$equal_to@VUpgradeType@BWAPI@@@4@@std@@V?$allocator@VUpgradeType@BWAPI@@@4@$0A@@std@@@std@@IAE?AU?$pair@V?$_List_const_iterator@V?$_List_val@U?$_List_simple_types@VUpgradeType@BWAPI@@@std@@@std@@@std@@_N@1@AAVUpgradeType@BWAPI@@V?$_List_unchecked_const_iterator@V?$_List_val@U?$_List_simple_types@VUpgradeType@BWAPI@@@std@@@std@@U_Iterator_base0@2@@1@@Z 1008c8d0 f i BWAPI:UnitType.obj
 0001:0008b8d0       ??$_Insert@AAVUnitType@BWAPI@@V?$_List_unchecked_const_iterator@V?$_List_val@U?$_List_simple_types@VUnitType@BWAPI@@@std@@@std@@U_Iterator_base0@2@@std@@@?$_Hash@V?$_Uset_traits@VUnitType@BWAPI@@V?$_Uhash_compare@VUnitType@BWAPI@@U?$hash@H@std@@U?$equal_to@VUnitType@BWAPI@@@4@@std@@V?$allocator@VUnitType@BWAPI@@@4@$0A@@std@@@std@@IAE?AU?$pair@V?$_List_const_iterator@V?$_List_val@U?$_List_simple_types@VUnitType@BWAPI@@@std@@@std@@@std@@_N@1@AAVUnitType@BWAPI@@V?$_List_unchecked_const_iterator@V?$_List_val@U?$_List_simple_types@VUnitType@BWAPI@@@std@@@std@@U_Iterator_base0@2@@1@@Z 1008c8d0 f i BWAPI:UnitType.obj
 0001:0008b8d0       ??$_Insert@AAVWeaponType@BWAPI@@V?$_List_unchecked_const_iterator@V?$_List_val@U?$_List_simple_types@VWeaponType@BWAPI@@@std@@@std@@U_Iterator_base0@2@@std@@@?$_Hash@V?$_Uset_traits@VWeaponType@BWAPI@@V?$_Uhash_compare@VWeaponType@BWAPI@@U?$hash@H@std@@U?$equal_to@VWeaponType@BWAPI@@@4@@std@@V?$allocator@VWeaponType@BWAPI@@@4@$0A@@std@@@std@@IAE?AU?$pair@V?$_List_const_iterator@V?$_List_val@U?$_List_simple_types@VWeaponType@BWAPI@@@std@@@std@@@std@@_N@1@AAVWeaponType@BWAPI@@V?$_List_unchecked_const_iterator@V?$_List_val@U?$_List_simple_types@VWeaponType@BWAPI@@@std@@@std@@U_Iterator_base0@2@@1@@Z 1008c8d0 f i BWAPI:WeaponType.obj
 0001:0008b9c0       ??$_Uninit_move@PAV?$map@VUnitType@BWAPI@@HU?$less@VUnitType@BWAPI@@@std@@V?$allocator@U?$pair@$$CBVUnitType@BWAPI@@H@std@@@4@@std@@PAV12@V?$allocator@V?$map@VUnitType@BWAPI@@HU?$less@VUnitType@BWAPI@@@std@@V?$allocator@U?$pair@$$CBVUnitType@BWAPI@@H@std@@@4@@std@@@2@V12@@std@@YAPAV?$map@VUnitType@BWAPI@@HU?$less@VUnitType@BWAPI@@@std@@V?$allocator@U?$pair@$$CBVUnitType@BWAPI@@H@std@@@4@@0@PAV10@00AAU?$_Wrap_alloc@V?$allocator@V?$map@VUnitType@BWAPI@@HU?$less@VUnitType@BWAPI@@@std@@V?$allocator@U?$pair@$$CBVUnitType@BWAPI@@H@std@@@4@@std@@@std@@@0@0U_Nonscalar_ptr_iterator_tag@0@@Z 1008c9c0 f i BWAPI:UnitType.obj
 0001:0008ba70       ??$_Uninit_move@PAV?$_List_unchecked_const_iterator@V?$_List_val@U?$_List_simple_types@VDamageType@BWAPI@@@std@@@std@@U_Iterator_base0@2@@std@@PAV12@U?$_Wrap_alloc@V?$allocator@V?$_List_unchecked_const_iterator@V?$_List_val@U?$_List_simple_types@VDamageType@BWAPI@@@std@@@std@@U_Iterator_base0@2@@std@@@std@@@2@V12@@std@@YAPAV?$_List_unchecked_const_iterator@V?$_List_val@U?$_List_simple_types@VDamageType@BWAPI@@@std@@@std@@U_Iterator_base0@2@@0@PAV10@00AAU?$_Wrap_alloc@U?$_Wrap_alloc@V?$allocator@V?$_List_unchecked_const_iterator@V?$_List_val@U?$_List_simple_types@VDamageType@BWAPI@@@std@@@std@@U_Iterator_base0@2@@std@@@std@@@std@@@0@0U_Nonscalar_ptr_iterator_tag@0@@Z 1008ca70 f i BWAPI:DamageType.obj
 0001:0008ba70       ??$_Uninit_move@PAV?$_List_unchecked_const_iterator@V?$_List_val@U?$_List_simple_types@VRace@BWAPI@@@std@@@std@@U_Iterator_base0@2@@std@@PAV12@U?$_Wrap_alloc@V?$allocator@V?$_List_unchecked_const_iterator@V?$_List_val@U?$_List_simple_types@VRace@BWAPI@@@std@@@std@@U_Iterator_base0@2@@std@@@std@@@2@V12@@std@@YAPAV?$_List_unchecked_const_iterator@V?$_List_val@U?$_List_simple_types@VRace@BWAPI@@@std@@@std@@U_Iterator_base0@2@@0@PAV10@00AAU?$_Wrap_alloc@U?$_Wrap_alloc@V?$allocator@V?$_List_unchecked_const_iterator@V?$_List_val@U?$_List_simple_types@VRace@BWAPI@@@std@@@std@@U_Iterator_base0@2@@std@@@std@@@std@@@0@0U_Nonscalar_ptr_iterator_tag@0@@Z 1008ca70 f i BWAPI:Race.obj
 0001:0008ba70       ??$_Uninit_move@PAV?$_List_unchecked_const_iterator@V?$_List_val@U?$_List_simple_types@VUnitSizeType@BWAPI@@@std@@@std@@U_Iterator_base0@2@@std@@PAV12@U?$_Wrap_alloc@V?$allocator@V?$_List_unchecked_const_iterator@V?$_List_val@U?$_List_simple_types@VUnitSizeType@BWAPI@@@std@@@std@@U_Iterator_base0@2@@std@@@std@@@2@V12@@std@@YAPAV?$_List_unchecked_const_iterator@V?$_List_val@U?$_List_simple_types@VUnitSizeType@BWAPI@@@std@@@std@@U_Iterator_base0@2@@0@PAV10@00AAU?$_Wrap_alloc@U?$_Wrap_alloc@V?$allocator@V?$_List_unchecked_const_iterator@V?$_List_val@U?$_List_simple_types@VUnitSizeType@BWAPI@@@std@@@std@@U_Iterator_base0@2@@std@@@std@@@std@@@0@0U_Nonscalar_ptr_iterator_tag@0@@Z 1008ca70 f i BWAPI:UnitSizeType.obj
 0001:0008ba70       ??$_Uninit_move@PAV?$_List_unchecked_const_iterator@V?$_List_val@U?$_List_simple_types@VError@BWAPI@@@std@@@std@@U_Iterator_base0@2@@std@@PAV12@U?$_Wrap_alloc@V?$allocator@V?$_List_unchecked_const_iterator@V?$_List_val@U?$_List_simple_types@VError@BWAPI@@@std@@@std@@U_Iterator_base0@2@@std@@@std@@@2@V12@@std@@YAPAV?$_List_unchecked_const_iterator@V?$_List_val@U?$_List_simple_types@VError@BWAPI@@@std@@@std@@U_Iterator_base0@2@@0@PAV10@00AAU?$_Wrap_alloc@U?$_Wrap_alloc@V?$allocator@V?$_List_unchecked_const_iterator@V?$_List_val@U?$_List_simple_types@VError@BWAPI@@@std@@@std@@U_Iterator_base0@2@@std@@@std@@@std@@@0@0U_Nonscalar_ptr_iterator_tag@0@@Z 1008ca70 f i BWAPI:Error.obj
 0001:0008ba70       ??$_Uninit_move@PAV?$_List_unchecked_const_iterator@V?$_List_val@U?$_List_simple_types@VUnitType@BWAPI@@@std@@@std@@U_Iterator_base0@2@@std@@PAV12@U?$_Wrap_alloc@V?$allocator@V?$_List_unchecked_const_iterator@V?$_List_val@U?$_List_simple_types@VUnitType@BWAPI@@@std@@@std@@U_Iterator_base0@2@@std@@@std@@@2@V12@@std@@YAPAV?$_List_unchecked_const_iterator@V?$_List_val@U?$_List_simple_types@VUnitType@BWAPI@@@std@@@std@@U_Iterator_base0@2@@0@PAV10@00AAU?$_Wrap_alloc@U?$_Wrap_alloc@V?$allocator@V?$_List_unchecked_const_iterator@V?$_List_val@U?$_List_simple_types@VUnitType@BWAPI@@@std@@@std@@U_Iterator_base0@2@@std@@@std@@@std@@@0@0U_Nonscalar_ptr_iterator_tag@0@@Z 1008ca70 f i BWAPI:UnitType.obj
 0001:0008ba70       ??$_Uninit_move@PAV?$_List_unchecked_const_iterator@V?$_List_val@U?$_List_simple_types@VUnitCommandType@BWAPI@@@std@@@std@@U_Iterator_base0@2@@std@@PAV12@U?$_Wrap_alloc@V?$allocator@V?$_List_unchecked_const_iterator@V?$_List_val@U?$_List_simple_types@VUnitCommandType@BWAPI@@@std@@@std@@U_Iterator_base0@2@@std@@@std@@@2@V12@@std@@YAPAV?$_List_unchecked_const_iterator@V?$_List_val@U?$_List_simple_types@VUnitCommandType@BWAPI@@@std@@@std@@U_Iterator_base0@2@@0@PAV10@00AAU?$_Wrap_alloc@U?$_Wrap_alloc@V?$allocator@V?$_List_unchecked_const_iterator@V?$_List_val@U?$_List_simple_types@VUnitCommandType@BWAPI@@@std@@@std@@U_Iterator_base0@2@@std@@@std@@@std@@@0@0U_Nonscalar_ptr_iterator_tag@0@@Z 1008ca70 f i BWAPI:UnitCommandType.obj
 0001:0008ba70       ??$_Uninit_move@PAV?$_List_unchecked_const_iterator@V?$_List_val@U?$_List_simple_types@VExplosionType@BWAPI@@@std@@@std@@U_Iterator_base0@2@@std@@PAV12@U?$_Wrap_alloc@V?$allocator@V?$_List_unchecked_const_iterator@V?$_List_val@U?$_List_simple_types@VExplosionType@BWAPI@@@std@@@std@@U_Iterator_base0@2@@std@@@std@@@2@V12@@std@@YAPAV?$_List_unchecked_const_iterator@V?$_List_val@U?$_List_simple_types@VExplosionType@BWAPI@@@std@@@std@@U_Iterator_base0@2@@0@PAV10@00AAU?$_Wrap_alloc@U?$_Wrap_alloc@V?$allocator@V?$_List_unchecked_const_iterator@V?$_List_val@U?$_List_simple_types@VExplosionType@BWAPI@@@std@@@std@@U_Iterator_base0@2@@std@@@std@@@std@@@0@0U_Nonscalar_ptr_iterator_tag@0@@Z 1008ca70 f i BWAPI:ExplosionType.obj
 0001:0008ba70       ??$_Uninit_move@PAV?$_List_unchecked_const_iterator@V?$_List_val@U?$_List_simple_types@VWeaponType@BWAPI@@@std@@@std@@U_Iterator_base0@2@@std@@PAV12@U?$_Wrap_alloc@V?$allocator@V?$_List_unchecked_const_iterator@V?$_List_val@U?$_List_simple_types@VWeaponType@BWAPI@@@std@@@std@@U_Iterator_base0@2@@std@@@std@@@2@V12@@std@@YAPAV?$_List_unchecked_const_iterator@V?$_List_val@U?$_List_simple_types@VWeaponType@BWAPI@@@std@@@std@@U_Iterator_base0@2@@0@PAV10@00AAU?$_Wrap_alloc@U?$_Wrap_alloc@V?$allocator@V?$_List_unchecked_const_iterator@V?$_List_val@U?$_List_simple_types@VWeaponType@BWAPI@@@std@@@std@@U_Iterator_base0@2@@std@@@std@@@std@@@0@0U_Nonscalar_ptr_iterator_tag@0@@Z 1008ca70 f i BWAPI:WeaponType.obj
